(lp0
((lp1
S'I'
p2
aS'want'
p3
aS'to'
p4
aS'start'
p5
aS'off'
p6
aS'saying'
p7
aS'that'
p8
aS'this'
p9
aS'camera'
p10
aS'is'
p11
aS'small'
p12
aS'for'
p13
aS'a'
p14
aS'reason.'
p15
aS'pos'
p16
tp17
a((lp18
S'Some'
p19
aS'people,'
p20
aS'in'
p21
aS'their'
p22
aS'reviews,'
p23
aS'complain'
p24
aS'about'
p25
aS'its'
p26
aS'small'
p27
aS'size,'
p28
aS'and'
p29
aS'how'
p30
aS'it'
p31
aS"doesn't"
p32
aS'compare'
p33
aS'with'
p34
aS'larger'
p35
aS'cameras.'
p36
aS'neutral'
p37
tp38
a((lp39
S"I'm"
p40
aS'in'
p41
aS'high'
p42
aS'school,'
p43
aS'and'
p44
aS'this'
p45
aS'camera'
p46
aS'is'
p47
aS'perfect'
p48
aS'for'
p49
aS'what'
p50
ag2
aS'use'
p51
aS'it'
p52
aS'for,'
p53
aS'carrying'
p54
aS'it'
p55
aS'around'
p56
aS'in'
p57
aS'my'
p58
aS'pocket'
p59
aS'so'
p60
ag2
aS'can'
p61
aS'take'
p62
aS'pictures'
p63
aS'whenever'
p64
ag2
aS'want'
p65
aS'to,'
p66
aS'of'
p67
aS'my'
p68
aS'friends'
p69
aS'and'
p70
aS'of'
p71
aS'funny'
p72
aS'things'
p73
aS'that'
p74
aS'happen.'
p75
ag16
tp76
a((lp77
S'The'
p78
aS'only'
p79
aS'thing'
p80
ag2
aS"don't"
p81
aS'like'
p82
aS'is'
p83
aS'the'
p84
aS'small'
p85
aS'size'
p86
aS'(8'
p87
aS'MEG)'
p88
aS'memory'
p89
aS'card'
p90
aS'that'
p91
aS'comes'
p92
aS'with'
p93
aS'it.'
p94
aS'neg'
p95
tp96
a((lp97
g2
aS'have'
p98
aS'to'
p99
aS'move'
p100
aS'pictures'
p101
aS'off'
p102
aS'of'
p103
aS'it'
p104
aS'every'
p105
aS'day'
p106
aS'so'
p107
ag2
aS'have'
p108
aS'room'
p109
aS'for'
p110
aS'more'
p111
aS'pictures'
p112
aS'the'
p113
aS'next,'
p114
aS'and'
p115
ag2
aS"don't"
p116
aS'have'
p117
aS'enough'
p118
aS'money'
p119
aS'to'
p120
aS'buy'
p121
aS'the'
p122
aS'256'
p123
aS'MEG'
p124
aS'card'
p125
aS'that'
p126
aS"I've"
p127
aS'had'
p128
aS'my'
p129
aS'eye'
p130
aS'on'
p131
aS'for'
p132
ag14
aS'while.'
p133
ag95
tp134
a((lp135
S'A'
p136
aS'larger'
p137
aS'memory'
p138
aS'card'
p139
aS'and'
p140
aS'extra'
p141
aS'battery'
p142
aS'are'
p143
aS'good'
p144
aS'things'
p145
aS'to'
p146
aS'buy.'
p147
ag95
tp148
a((lp149
S'Other'
p150
aS'than'
p151
aS'that'
p152
aS'pictures'
p153
aS'taken'
p154
aS'in'
p155
aS'the'
p156
aS'dark'
p157
aS'are'
p158
aS'not'
p159
aS'as'
p160
aS'nice'
p161
aS'as'
p162
aS"I'd"
p163
aS'like'
p164
aS'them,'
p165
ag95
tp166
a((lp167
S"I'd"
p168
aS'say'
p169
aS'that'
p170
aS'this'
p171
aS'camera'
p172
aS'is'
p173
aS'perfect.'
p174
ag16
tp175
a((lp176
S'OK,'
p177
aS'not'
p178
aS'quite'
p179
aS'everything...but'
p180
aS'this'
p181
aS'camera'
p182
aS'is'
p183
aS'so'
p184
aS'compact'
p185
aS'that'
p186
aS'you'
p187
aS'will'
p188
aS'have'
p189
aS'it'
p190
aS'by'
p191
aS'your'
p192
aS'side'
p193
aS'when'
p194
aS'you'
p195
aS'need'
p196
aS'it.'
p197
ag16
tp198
a((lp199
g2
aS'bought'
p200
aS'this'
p201
aS'camera'
p202
aS'for'
p203
aS'the'
p204
aS'same'
p205
aS'reason'
p206
aS'many'
p207
aS'of'
p208
aS'you'
p209
aS'are'
p210
aS'considering'
p211
aS'it,'
p212
aS'or'
p213
aS'have'
p214
aS'already'
p215
aS'bought'
p216
aS"it--it's"
p217
aS'size.'
p218
ag16
tp219
a((lp220
S'It'
p221
aS'is'
p222
aS'amazingly'
p223
aS'small,'
p224
aS"it's"
p225
aS'hard'
p226
aS'to'
p227
aS'believe'
p228
aS'all'
p229
aS'that'
p230
aS'has'
p231
aS'been'
p232
aS'packed'
p233
aS'into'
p234
aS'this'
p235
aS'camera.'
p236
ag16
tp237
a((lp238
g2
aS'take'
p239
aS'it'
p240
aS'with'
p241
aS'me'
p242
aS'everywhere,literally,'
p243
ag37
tp244
a((lp245
S'it'
p246
aS'is'
p247
aS'so'
p248
aS'small'
p249
aS'that'
p250
ag2
aS'am'
p251
aS'able'
p252
aS'to'
p253
aS'keep'
p254
aS'it'
p255
aS'in'
p256
aS'my'
p257
aS'pocket,'
p258
aS'and'
p259
ag2
aS"don't"
p260
aS'have'
p261
aS'to'
p262
aS'fear'
p263
aS'that'
p264
aS'it'
p265
aS'will'
p266
aS'get'
p267
aS'ruined'
p268
aS'in'
p269
aS'my'
p270
aS'pocket'
p271
aS'because'
p272
aS'it'
p273
aS'is'
p274
aS'so'
p275
aS'durable.'
p276
ag16
tp277
a((lp278
S'There'
p279
aS'is'
p280
aS'also'
p281
ag14
aS'small'
p282
aS'covering'
p283
aS'for'
p284
aS'the'
p285
aS'lens,'
p286
aS'so'
p287
aS'you'
p288
aS'need'
p289
aS'not'
p290
aS'worry'
p291
aS'that'
p292
aS'the'
p293
aS'lens'
p294
aS'will'
p295
aS'get'
p296
aS'scratched.'
p297
ag16
tp298
a((lp299
S'The'
p300
aS'picture'
p301
aS'quality'
p302
aS'surprised'
p303
aS'me,'
p304
aS'when'
p305
ag2
aS'first'
p306
aS'saw'
p307
aS'this'
p308
aS'camera'
p309
ag2
aS'saw'
p310
aS'how'
p311
aS'small'
p312
aS'it'
p313
aS'was'
p314
aS'an'
p315
aS'instantly'
p316
aS'assumed'
p317
aS'that'
p318
aS'the'
p319
aS'picture'
p320
aS'quality'
p321
aS'would'
p322
aS'not'
p323
aS'be'
p324
aS'good--but'
p325
ag2
aS'was'
p326
aS'wrong!'
p327
ag16
tp328
a((lp329
S'The'
p330
aS'picture'
p331
aS'quality'
p332
aS'of'
p333
aS'this'
p334
aS'camera'
p335
aS'is'
p336
aS'outstanding'
p337
aS'(taking'
p338
aS"its'"
p339
aS'size'
p340
aS'and'
p341
aS'price'
p342
aS'into'
p343
aS'consideration).'
p344
ag16
tp345
a((lp346
S'However,'
p347
ag2
aS'do'
p348
aS'have'
p349
ag14
aS'few'
p350
aS'things'
p351
aS'to'
p352
aS'complain'
p353
aS'about...'
p354
ag37
tp355
a((lp356
S'First'
p357
aS'off,'
p358
aS'the'
p359
aS'battery.'
p360
ag95
tp361
a((lp362
S'This'
p363
aS'camera'
p364
aS'uses'
p365
ag14
aS'lithium'
p366
aS'battery,'
p367
ag2
aS'find'
p368
aS'lithium'
p369
aS'batteries'
p370
aS'to'
p371
aS'be'
p372
aS'highly'
p373
aS'inconvenient;'
p374
aS'because'
p375
aS'what'
p376
aS'if'
p377
aS'you'
p378
aS'are'
p379
aS'on'
p380
aS'vacation,'
p381
aS'where'
p382
aS'the'
p383
aS'nearest'
p384
aS'place'
p385
aS'to'
p386
aS'buy'
p387
aS'batteries'
p388
aS'is'
p389
aS'just'
p390
ag14
aS'gas'
p391
aS'station--there'
p392
aS'is'
p393
aS'no'
p394
aS'way'
p395
aS'that'
p396
aS'you'
p397
aS'are'
p398
aS'going'
p399
aS'to'
p400
aS'find'
p401
aS'lithium'
p402
aS'batteries'
p403
aS'there.'
p404
ag95
tp405
a((lp406
S'Not'
p407
aS'only'
p408
aS'is'
p409
aS'it'
p410
aS'inconvenient,'
p411
aS'but'
p412
aS'also'
p413
aS'the'
p414
aS'battery'
p415
aS'life'
p416
aS'span'
p417
aS'is'
p418
aS'short.'
p419
ag95
tp420
a((lp421
S'The'
p422
aS'longest'
p423
aS"I've"
p424
aS'had'
p425
aS'it'
p426
aS'work'
p427
aS'was'
p428
aS'about'
p429
aS'1'
p430
aS'hour'
p431
aS'and'
p432
aS'45'
p433
aS'minutes.'
p434
ag37
tp435
a((lp436
S'This'
p437
aS"isn't"
p438
aS'uncommon'
p439
aS'in'
p440
aS'cameras,'
p441
aS'though,'
p442
aS'just'
p443
aS'as'
p444
aS'long'
p445
aS'as'
p446
aS'you'
p447
aS'bring'
p448
aS'your'
p449
aS'charger'
p450
aS'and'
p451
aS'spare'
p452
aS'batteries,'
p453
aS'you'
p454
aS'should'
p455
aS'be'
p456
aS'fine.'
p457
ag95
tp458
a((lp459
S'Another'
p460
aS'problem'
p461
ag2
aS'had'
p462
aS'with'
p463
aS'this'
p464
aS'camera'
p465
aS'was'
p466
aS'the'
p467
aS'zoom'
p468
aS'function.'
p469
ag95
tp470
a((lp471
S'Such'
p472
ag14
aS'small'
p473
aS'zoom'
p474
aS'length'
p475
aS'that'
p476
aS'you'
p477
aS'would'
p478
aS'think'
p479
aS'that'
p480
aS'the'
p481
aS'zoom'
p482
aS'would'
p483
aS'be'
p484
aS'silent'
p485
aS'since'
p486
aS'it'
p487
aS'hardly'
p488
aS'zooms'
p489
aS'in...wrong!'
p490
ag95
tp491
a((lp492
S'Very'
p493
aS'wrong.'
p494
ag37
tp495
a((lp496
S'The'
p497
aS'zoom'
p498
aS'function'
p499
aS'on'
p500
aS'this'
p501
aS'camera'
p502
aS'is'
p503
aS'so'
p504
aS'loud'
p505
aS'that'
p506
aS'sometimes'
p507
aS'you'
p508
aS'will'
p509
aS'be'
p510
aS'unable'
p511
aS'to'
p512
aS'use'
p513
aS'it'
p514
aS'if'
p515
aS'you'
p516
aS'find'
p517
aS'yourself'
p518
aS'in'
p519
ag14
aS'situation'
p520
aS'where'
p521
aS'you'
p522
aS'must'
p523
aS'be'
p524
aS'quiet.'
p525
ag95
tp526
a((lp527
S'Even'
p528
aS'just'
p529
aS'turning'
p530
aS'the'
p531
aS'camera'
p532
aS'on'
p533
aS'will'
p534
aS'move'
p535
aS'the'
p536
aS'lens'
p537
ag14
aS'little,'
p538
aS'resulting'
p539
aS'in'
p540
ag14
aS'noisy'
p541
aS'start-up.'
p542
ag95
tp543
a((lp544
S'The'
p545
aS'flash'
p546
aS'is'
p547
aS'very'
p548
aS'weak.'
p549
ag95
tp550
a((lp551
S'Really'
p552
aS'dissapointing.'
p553
aS'If'
p554
aS'you'
p555
aS'are'
p556
aS'inside,'
p557
aS'you'
p558
aS"can't"
p559
aS'be'
p560
aS'any'
p561
aS'farther'
p562
aS'away'
p563
aS'then'
p564
aS'10'
p565
aS'feet'
p566
aS'in'
p567
ag14
aS'lit'
p568
aS'room.'
p569
ag37
tp570
a((lp571
S'The'
p572
aS'last'
p573
aS'problem'
p574
ag2
aS'found'
p575
aS'with'
p576
aS'this'
p577
aS'camera'
p578
aS'was'
p579
aS'the'
p580
aS'macro'
p581
aS'function.'
p582
ag95
tp583
a((lp584
S'The'
p585
aS'auto-focus'
p586
aS'on'
p587
aS'the'
p588
aS'camera'
p589
aS'seems'
p590
aS'to'
p591
aS'have'
p592
aS'trouble'
p593
aS'focusing'
p594
aS'on'
p595
aS'the'
p596
aS'subject.'
p597
ag95
tp598
a((lp599
S'To'
p600
aS'make'
p601
aS'matters'
p602
aS'work,'
p603
aS'there'
p604
aS'is'
p605
aS'no'
p606
aS'manual'
p607
aS'override'
p608
aS'to'
p609
aS'overcome'
p610
aS'this'
p611
aS'problem.'
p612
ag95
tp613
a((lp614
S'The'
p615
aS'focus'
p616
aS'is'
p617
aS'great,'
p618
aS'though,'
p619
aS'if'
p620
aS'you'
p621
aS'are'
p622
aS'not'
p623
aS'taking'
p624
ag14
aS'macro'
p625
aS'shot.'
p626
ag16
tp627
a((lp628
S'These'
p629
aS'are'
p630
aS'all'
p631
aS'the'
p632
aS'flaws'
p633
ag2
aS'found'
p634
aS'in'
p635
aS'the'
p636
aS'camera,'
p637
ag37
tp638
a((lp639
S"it's"
p640
aS'not'
p641
aS'my'
p642
aS'first'
p643
aS'choice'
p644
aS'in'
p645
aS'cameras,'
p646
ag95
tp647
a((lp648
g2
aS'have'
p649
aS'come'
p650
aS'across'
p651
aS'many'
p652
aS'other'
p653
aS'beginner'
p654
aS'cameras'
p655
aS'that'
p656
ag2
aS'prefer'
p657
aS'over'
p658
aS'this'
p659
aS'camera,'
p660
aS'but'
p661
aS'the'
p662
aS'thing'
p663
aS'you'
p664
aS'have'
p665
aS'to'
p666
aS'keep'
p667
aS'in'
p668
aS'mind'
p669
aS'about'
p670
aS'this'
p671
aS'camera'
p672
aS'is'
p673
aS'the'
p674
aS'size.'
p675
ag16
tp676
a((lp677
S'If'
p678
aS'you'
p679
aS'are'
p680
aS'just'
p681
aS'looking'
p682
aS'for'
p683
aS'something'
p684
aS'to'
p685
aS'keep'
p686
aS'with'
p687
aS'you'
p688
aS'at'
p689
aS'all'
p690
aS'times,'
p691
aS'then'
p692
aS'this'
p693
aS'is'
p694
ag14
aS'great'
p695
aS'camera'
p696
aS'choice.'
p697
ag16
tp698
a((lp699
g2
aS'researched'
p700
aS'digital'
p701
aS'cameras'
p702
aS'for'
p703
ag14
aS'month'
p704
aS'before'
p705
aS'purchasing'
p706
aS'the'
p707
aS's100...'
p708
ag37
tp709
a((lp710
S'after'
p711
aS'considering'
p712
aS'my'
p713
aS'needs'
p714
aS'further'
p715
aS'and'
p716
aS'researching'
p717
aS'the'
p718
aS'marketplace,'
p719
ag2
aS'decided'
p720
aS'on'
p721
aS'the'
p722
aS's100.'
p723
ag16
tp724
a((lp725
g2
aS'have'
p726
aS'had'
p727
aS'this'
p728
aS'little'
p729
aS'gem'
p730
aS'for'
p731
aS'four'
p732
aS'months'
p733
aS'now.'
p734
ag37
tp735
a((lp736
S'It'
p737
aS'has'
p738
aS'given'
p739
aS'me'
p740
aS'zero'
p741
aS'problems,'
p742
aS'and'
p743
aS'the'
p744
aS'more'
p745
ag2
aS'use'
p746
aS'it,'
p747
aS'the'
p748
aS'better'
p749
ag2
aS'become'
p750
aS'at'
p751
aS'taking'
p752
aS'advantage'
p753
aS'of'
p754
aS'its'
p755
aS'strengths.'
p756
ag16
tp757
a((lp758
g2
aS'had'
p759
ag14
aS'regular'
p760
aS'Canon'
p761
aS'Elph'
p762
aS'(APS),'
p763
aS'as'
p764
aS'well'
p765
aS'as'
p766
ag14
aS'JVC'
p767
aS'digital'
p768
aS'camera.'
p769
ag37
tp770
a((lp771
g2
aS'was'
p772
aS'looking'
p773
aS'for'
p774
ag14
aS'blend'
p775
aS'of'
p776
aS'the'
p777
aS'two'
p778
aS'and'
p779
aS'so'
p780
ag2
aS'bought'
p781
aS'this'
p782
aS'camera.'
p783
ag37
tp784
a((lp785
S"I'll"
p786
aS'share'
p787
aS'some'
p788
aS'observations'
p789
aS'that'
p790
aS'may'
p791
aS'differ'
p792
ag14
aS'bit'
p793
aS'from'
p794
aS'what'
p795
aS'other'
p796
aS'reviewers'
p797
aS'have'
p798
aS'noted.'
p799
ag37
tp800
a((lp801
S'1)'
p802
aS'It'
p803
aS'is'
p804
aS'perhaps'
p805
aS'too'
p806
aS'small.'
p807
ag95
tp808
a((lp809
g2
aS'find'
p810
aS'it'
p811
ag14
aS'bit'
p812
aS'difficult'
p813
aS'to'
p814
aS'manage'
p815
aS'the'
p816
aS'very'
p817
aS'tiny'
p818
aS'buttons'
p819
aS'and'
p820
aS'impossible'
p821
aS'to'
p822
aS'read'
p823
aS'the'
p824
aS'icons'
p825
aS'without'
p826
aS'my'
p827
aS'reading'
p828
aS'glasses'
p829
aS'on.'
p830
ag95
tp831
a((lp832
S'Its'
p833
aS'size'
p834
aS'makes'
p835
aS'holding'
p836
aS'it'
p837
aS'steady'
p838
aS'for'
p839
aS'long'
p840
ag14
aS'bit'
p841
aS'of'
p842
ag14
aS'challenge'
p843
aS'(not'
p844
aS'enough'
p845
aS'camera'
p846
aS'body'
p847
aS'to'
p848
aS'grip'
p849
aS'with'
p850
aS'more'
p851
aS'than'
p852
aS'your'
p853
aS'finger'
p854
aS'tips).'
p855
ag95
tp856
a((lp857
S'2)'
p858
aS'The'
p859
aS'delay'
p860
aS'from'
p861
aS'the'
p862
aS'time'
p863
aS'you'
p864
aS'fully'
p865
aS'depress'
p866
aS'the'
p867
aS'shutter'
p868
aS'to'
p869
aS'the'
p870
aS'time'
p871
aS'the'
p872
aS'picture'
p873
aS'is'
p874
aS'taken'
p875
aS'is'
p876
aS'too'
p877
aS'long'
p878
aS'and'
p879
aS'may'
p880
aS'yield'
p881
aS'some'
p882
aS'fuzzy'
p883
aS'shots.'
p884
ag95
tp885
a((lp886
S'This'
p887
aS'is'
p888
aS'due'
p889
aS'to'
p890
aS'the'
p891
aS'unusually'
p892
aS'slow'
p893
aS'autofocus'
p894
aS'system.'
p895
ag95
tp896
a((lp897
S'3)'
p898
aS'The'
p899
aS'lack'
p900
aS'of'
p901
aS'an'
p902
aS'intermediate'
p903
aS'resolution'
p904
aS'setting,'
p905
aS'as'
p906
aS'other'
p907
aS'reviewers'
p908
aS'have'
p909
aS'suggested,'
p910
aS'is'
p911
ag14
aS'problem,'
p912
aS'but'
p913
aS'that'
p914
aS'problem'
p915
aS'is'
p916
aS'meaningless'
p917
aS'with'
p918
ag14
aS'larger'
p919
aS'CompactFlash'
p920
aS'memory'
p921
aS'card'
p922
ag95
tp923
a((lp924
S'(I'
p925
aS'got'
p926
ag14
aS'64'
p927
aS'meg'
p928
aS'card'
p929
aS'for'
p930
aS'$...'
p931
aS'and'
p932
aS'it'
p933
aS'holds'
p934
aS'105'
p935
aS'pics'
p936
aS'at'
p937
aS'1600'
p938
aS'x'
p939
aS'1200'
p940
aS'res).'
p941
ag37
tp942
a((lp943
S'4)'
p944
aS'The'
p945
aS'camera'
p946
aS'gets'
p947
aS'really'
p948
aS'hot'
p949
aS'when'
p950
aS'you'
p951
aS'are'
p952
aS'busy'
p953
aS'snapping'
p954
aS'away.'
p955
ag95
tp956
a((lp957
S'It'
p958
aS'is'
p959
aS'hot'
p960
aS'enough'
p961
aS'to'
p962
aS'be'
p963
aS'annoying.'
p964
ag95
tp965
a((lp966
S'Canon'
p967
aS'says'
p968
aS"it's"
p969
aS'normal.'
p970
ag37
tp971
a((lp972
g2
aS'have'
p973
aS'found'
p974
aS'it'
p975
aS'gets'
p976
aS'less'
p977
aS'warm'
p978
aS'with'
p979
aS'the'
p980
aS'LCD'
p981
aS'off.'
p982
ag37
tp983
a((lp984
S'This'
p985
aS'wonderfully'
p986
aS'small'
p987
aS'digital'
p988
aS'camera'
p989
aS'produces'
p990
aS'fantastically'
p991
aS'good'
p992
aS'pictures'
p993
aS'printed'
p994
aS'on'
p995
aS'any'
p996
aS'decent'
p997
aS'photo-quality'
p998
aS'printer'
p999
aS'(with'
p1000
aS'photo'
p1001
aS'quality'
p1002
aS'paper).'
p1003
ag16
tp1004
a((lp1005
S'It'
p1006
aS'will'
p1007
aS'not'
p1008
aS'replace'
p1009
aS'your'
p1010
aS'high-end'
p1011
aS'35mm'
p1012
aS'SLR'
p1013
aS'but'
p1014
aS"it's"
p1015
ag14
aS'great'
p1016
aS'toy'
p1017
aS'to'
p1018
aS'keep'
p1019
aS'near'
p1020
aS'you'
p1021
aS'at'
p1022
aS'all'
p1023
aS'times'
p1024
aS'for'
p1025
aS'snapshots.'
p1026
ag16
tp1027
a((lp1028
g2
aS'have'
p1029
aS'used'
p1030
aS'many'
p1031
aS'digital'
p1032
aS'cameras.'
p1033
ag37
tp1034
a((lp1035
S'This'
p1036
aS'IS'
p1037
aS'the'
p1038
aS'best'
p1039
aS'camera'
p1040
aS'you'
p1041
aS'can'
p1042
aS'have'
p1043
aS'for'
p1044
aS'digital'
p1045
aS'images'
p1046
aS'if'
p1047
aS'you'
p1048
aS'want'
p1049
aS'to:'
p1050
ag16
tp1051
a((lp1052
S'Take'
p1053
aS'quick'
p1054
aS'pictures'
p1055
aS'with'
p1056
aS'excelent'
p1057
aS'resolution'
p1058
ag16
tp1059
a((lp1060
S'Hate'
p1061
aS'to'
p1062
aS'wait'
p1063
aS'between'
p1064
aS'shots'
p1065
ag16
tp1066
a((lp1067
S'Download'
p1068
aS'it'
p1069
aS'fast'
p1070
aS'to'
p1071
aS'your'
p1072
aS'computer'
p1073
ag16
tp1074
a((lp1075
S'Have'
p1076
ag14
aS'great'
p1077
aS'and'
p1078
aS'easy'
p1079
aS'to'
p1080
aS'use'
p1081
aS'bundled'
p1082
aS'software'
p1083
ag16
tp1084
a((lp1085
S'Travel'
p1086
aS'with'
p1087
aS'it'
p1088
aS'without'
p1089
aS'knowing'
p1090
aS'you'
p1091
aS'have'
p1092
aS'it'
p1093
aS'in'
p1094
aS'your'
p1095
aS'pocket'
p1096
ag16
tp1097
a((lp1098
S'FYI,'
p1099
aS'Battery'
p1100
aS"doesn't"
p1101
aS'die'
p1102
aS'if'
p1103
aS'you'
p1104
aS"don't"
p1105
aS'use'
p1106
aS'LCD'
p1107
ag16
tp1108
a((lp1109
S'The'
p1110
aS'color'
p1111
aS'and'
p1112
aS'light'
p1113
ag2
aS'captured'
p1114
aS'with'
p1115
aS'this'
p1116
aS'camera'
p1117
aS'on'
p1118
ag14
aS'12-day'
p1119
aS'trip'
p1120
aS'to'
p1121
aS'Turkey'
p1122
aS'(gorgeous'
p1123
aS'vividly'
p1124
aS'colored'
p1125
aS'ceramic'
p1126
aS'tiles'
p1127
aS'inside'
p1128
aS'darkened'
p1129
aS'mosques)'
p1130
aS'were'
p1131
aS'far'
p1132
aS'superior'
p1133
aS'to'
p1134
aS'anything'
p1135
aS"I've"
p1136
aS'ever'
p1137
aS'gotten'
p1138
aS'with'
p1139
ag14
aS'traditional'
p1140
aS'35-mm'
p1141
aS'film'
p1142
aS'camera.'
p1143
ag16
tp1144
a((lp1145
g2
aS'love'
p1146
aS'this'
p1147
aS'camera.'
p1148
ag16
tp1149
a((lp1150
g2
aS"don't"
p1151
aS'believe'
p1152
aS'this'
p1153
aS'camera'
p1154
aS'is'
p1155
aS'still'
p1156
aS'available.'
p1157
aS'But'
p1158
aS'if'
p1159
aS'you'
p1160
aS'can'
p1161
aS'find'
p1162
aS'one,'
p1163
aS'you'
p1164
aS'might'
p1165
aS'like'
p1166
aS'to'
p1167
aS'get'
p1168
aS'it.'
p1169
ag16
tp1170
a((lp1171
S"It's"
p1172
aS'still'
p1173
aS'one'
p1174
aS'of'
p1175
aS'the'
p1176
aS'smallest'
p1177
aS'2MP'
p1178
aS'digital'
p1179
aS'cameras'
p1180
aS'on'
p1181
aS'the'
p1182
aS'market,'
p1183
aS'and'
p1184
aS'absolutely'
p1185
aS'one'
p1186
aS'of'
p1187
aS'the'
p1188
aS'best-built'
p1189
aS'most'
p1190
aS'stylish'
p1191
aS'cameras'
p1192
aS'ever.'
p1193
ag16
tp1194
a((lp1195
g2
aS'bought'
p1196
aS'my'
p1197
aS'camera'
p1198
aS'based'
p1199
aS'on'
p1200
aS'recommendations'
p1201
aS'from'
p1202
aS'my'
p1203
aS'other'
p1204
aS'friends'
p1205
aS'who'
p1206
aS'own'
p1207
aS'it.'
p1208
ag37
tp1209
a((lp1210
g2
aS'am'
p1211
aS'very'
p1212
aS'pleased'
p1213
aS'with'
p1214
aS'my'
p1215
aS'purchase.'
p1216
ag16
tp1217
a((lp1218
S"It's"
p1219
aS'best'
p1220
aS'to'
p1221
aS'list'
p1222
aS'the'
p1223
aS'pros'
p1224
aS'and'
p1225
aS'cons'
p1226
aS'of'
p1227
aS'this'
p1228
aS'camera:'
p1229
ag37
tp1230
a((lp1231
S"I've"
p1232
aS'been'
p1233
aS'incredibly'
p1234
aS'happy'
p1235
aS'with'
p1236
aS'this'
p1237
aS'camera.'
p1238
ag16
tp1239
a((lp1240
S'This'
p1241
aS'camera'
p1242
aS'is'
p1243
aS'great'
p1244
aS'if'
p1245
aS"you're"
p1246
aS'used'
p1247
aS'to'
p1248
ag14
aS'high-end'
p1249
aS'SLR.'
p1250
ag16
tp1251
a((lp1252
S"It's"
p1253
aS'overkill'
p1254
aS'for'
p1255
aS'simple'
p1256
aS'snapshots,'
p1257
aS'unless'
p1258
aS"you've"
p1259
aS'got'
p1260
aS'way'
p1261
aS'too'
p1262
aS'much'
p1263
aS'money'
p1264
aS'to'
p1265
aS'blow.'
p1266
ag16
tp1267
a((lp1268
S'Exposure'
p1269
aS'compensation'
p1270
aS'in'
p1271
aS'1/3'
p1272
aS'stop'
p1273
aS'increments'
p1274
aS'(I'
p1275
aS'leave'
p1276
aS'it'
p1277
aS'set'
p1278
aS'on'
p1279
aS'+1/3'
p1280
aS'stop'
p1281
aS'to'
p1282
aS'brighten'
p1283
aS'up'
p1284
aS'the'
p1285
aS'default'
p1286
aS'exposure,'
p1287
aS'which'
p1288
aS'goes'
p1289
ag14
aS'bit'
p1290
aS'dark'
p1291
aS'for'
p1292
aS'my'
p1293
aS'taste).'
p1294
ag16
tp1295
a((lp1296
S'Slow-syncro'
p1297
aS'flash,'
p1298
aS'macro/infinity'
p1299
aS'mode,'
p1300
aS'etc.'
p1301
ag16
tp1302
a((lp1303
S'The'
p1304
aS'zoom'
p1305
aS'range'
p1306
aS'is'
p1307
ag14
aS'little'
p1308
aS'narrow'
p1309
aS'(35-70mm'
p1310
aS'in'
p1311
aS'35mm'
p1312
aS'film'
p1313
aS'equivalent),'
p1314
aS'but'
p1315
aS'given'
p1316
aS'that'
p1317
aS'the'
p1318
aS'camera'
p1319
aS'is'
p1320
aS'the'
p1321
aS'same'
p1322
aS'as'
p1323
aS'my'
p1324
aS'wallet,'
p1325
ag2
aS"can't"
p1326
aS'think'
p1327
aS'of'
p1328
aS'any'
p1329
aS'real'
p1330
aS'complaint.'
p1331
ag37
tp1332
a((lp1333
S'The'
p1334
aS'SS'
p1335
aS'body'
p1336
aS'is'
p1337
aS'wonderful,'
p1338
aS'feels'
p1339
aS'high-quality.'
p1340
ag16
tp1341
a((lp1342
S"It's"
p1343
aS'the'
p1344
aS'same'
p1345
aS'body'
p1346
aS'as'
p1347
aS'the'
p1348
aS'popular'
p1349
aS'ELP2'
p1350
aS'APS'
p1351
aS'camera'
p1352
aS'(take'
p1353
ag14
aS'look'
p1354
aS'at'
p1355
ag14
aS'standard'
p1356
aS'credit'
p1357
aS'card'
p1358
aS'from'
p1359
aS'your'
p1360
aS'wallet'
p1361
aS'and'
p1362
aS"you'll"
p1363
aS'have'
p1364
aS'an'
p1365
aS'idea'
p1366
aS'of'
p1367
aS'the'
p1368
aS'front'
p1369
aS'profile!).'
p1370
ag16
tp1371
a((lp1372
g136
aS'2X'
p1373
aS'optical'
p1374
aS'zoom'
p1375
aS'(you'
p1376
aS'can'
p1377
aS'pretty'
p1378
aS'much'
p1379
aS'ignore'
p1380
aS'any'
p1381
aS'time'
p1382
ag14
aS'manufacturer'
p1383
aS'refers'
p1384
aS'to'
p1385
aS'"digital'
p1386
aS'zoom")'
p1387
ag37
tp1388
a((lp1389
g2
aS'left'
p1390
aS'the'
p1391
aS'camera'
p1392
aS'in'
p1393
aS'my'
p1394
aS'car'
p1395
aS'in'
p1396
aS'Maine'
p1397
aS'(not'
p1398
ag14
aS'very'
p1399
aS'hot'
p1400
aS'place)'
p1401
aS'and'
p1402
aS'the'
p1403
aS'LCD'
p1404
aS'screen'
p1405
aS'cracked'
p1406
aS'!'
p1407
ag95
tp1408
a((lp1409
g2
aS'then'
p1410
aS'realized'
p1411
ag14
aS'major'
p1412
aS'design'
p1413
aS'flaw.'
p1414
ag95
tp1415
a((lp1416
S'All'
p1417
aS'the'
p1418
aS"camera's"
p1419
aS'functionality'
p1420
aS'is'
p1421
aS'only'
p1422
aS'available'
p1423
aS'(or'
p1424
aS'selectable)'
p1425
aS'when'
p1426
aS'the'
p1427
aS'screen'
p1428
aS'is'
p1429
aS'functional.'
p1430
ag95
tp1431
a((lp1432
S'When'
p1433
aS'the'
p1434
aS'screen'
p1435
aS'stops'
p1436
aS'working,'
p1437
aS"you're"
p1438
aS'out'
p1439
aS'of'
p1440
aS'luck'
p1441
ag1407
ag95
tp1442
a((lp1443
g2
aS'wrote'
p1444
aS'another'
p1445
aS'review'
p1446
aS'and'
p1447
aS'this'
p1448
aS'is'
p1449
aS'the'
p1450
aS'update.'
p1451
ag37
tp1452
a((lp1453
g2
aS'discovered'
p1454
aS'that'
p1455
aS'the'
p1456
aS'camera'
p1457
aS'has'
p1458
ag14
aS'manual'
p1459
aS'mode'
p1460
aS'that'
p1461
aS'gives'
p1462
aS'you'
p1463
aS'total'
p1464
aS'control'
p1465
aS'over'
p1466
aS'exposure,'
p1467
aS'white'
p1468
aS'balance,'
p1469
aS'flash'
p1470
aS'(red'
p1471
aS'eye,'
p1472
aS'person'
p1473
aS'against'
p1474
aS'bright'
p1475
aS'background,'
p1476
aS'flash'
p1477
aS'on,'
p1478
aS'flash'
p1479
aS'off,'
p1480
aS'flash'
p1481
aS'automatic).'
p1482
ag16
tp1483
a((lp1484
g2
aS'have'
p1485
aS'used'
p1486
aS'this'
p1487
aS'camera'
p1488
aS'for'
p1489
aS'about'
p1490
aS'3'
p1491
aS'weeks'
p1492
aS'so'
p1493
aS'far,'
p1494
aS'taking'
p1495
aS'over'
p1496
aS'500'
p1497
aS'pictures.'
p1498
ag37
tp1499
a((lp1500
g2
aS'have'
p1501
aS'2'
p1502
aS'batteries'
p1503
aS'and'
p1504
ag14
aS'128'
p1505
aS'mb'
p1506
aS'card.'
p1507
ag37
tp1508
a((lp1509
S'Here'
p1510
aS'are'
p1511
aS'some'
p1512
aS'useful'
p1513
aS'facts:-'
p1514
ag37
tp1515
a((lp1516
S'On'
p1517
ag14
aS'battery'
p1518
aS'charge,'
p1519
aS'the'
p1520
aS'camera'
p1521
aS'takes'
p1522
aS'approximately'
p1523
aS'70'
p1524
aS'pictures,'
p1525
aS'where'
p1526
aS'the'
p1527
aS'camera'
p1528
aS'is'
p1529
aS'opened'
p1530
aS'and'
p1531
aS'closed'
p1532
aS'between'
p1533
aS'pictures.'
p1534
ag37
tp1535
a((lp1536
g136
aS'64mb'
p1537
aS'card'
p1538
aS'stores'
p1539
aS'approximately'
p1540
aS'100'
p1541
aS'pictures'
p1542
aS'at'
p1543
aS'default'
p1544
aS'resolution'
p1545
aS'(ie'
p1546
aS'between'
p1547
aS'500k'
p1548
aS'and'
p1549
aS'1.5mb'
p1550
aS'per'
p1551
aS'picture).'
p1552
ag37
tp1553
a((lp1554
S'The'
p1555
aS'viewfinder'
p1556
aS'does'
p1557
aS'not'
p1558
aS'accurately'
p1559
aS'represent'
p1560
aS'the'
p1561
aS'pucture'
p1562
aS'being'
p1563
aS'taken.'
p1564
ag95
tp1565
a((lp1566
S'The'
p1567
aS'LCD'
p1568
aS'should'
p1569
aS'be'
p1570
aS'used.'
p1571
ag37
tp1572
a((lp1573
S'However,'
p1574
aS'in'
p1575
aS'dark'
p1576
aS'settings'
p1577
aS'you'
p1578
aS'must'
p1579
aS'use'
p1580
aS'the'
p1581
aS'viewfinder.'
p1582
ag37
tp1583
a((lp1584
S'The'
p1585
aS'digital'
p1586
aS'zoom'
p1587
aS'is'
p1588
aS'crap.'
p1589
ag95
tp1590
a((lp1591
S'Turn'
p1592
aS'it'
p1593
aS'off.'
p1594
ag37
tp1595
a((lp1596
S'It'
p1597
aS'fits'
p1598
aS'in'
p1599
aS'your'
p1600
aS'pocket.'
p1601
ag16
tp1602
a((lp1603
S'The'
p1604
aS'closest'
p1605
aS'competitor'
p1606
aS'is'
p1607
aS'the'
p1608
aS'SONY'
p1609
aS'DSC-P1'
p1610
aS'(3.3mp).'
p1611
ag37
tp1612
a((lp1613
S'But'
p1614
aS'that'
p1615
aS'camera'
p1616
aS'is'
p1617
ag14
aS'little'
p1618
aS'larger'
p1619
aS'and'
p1620
aS'you'
p1621
aS'defeat'
p1622
aS'the'
p1623
aS'whole'
p1624
aS'purpose'
p1625
aS'of'
p1626
aS'having'
p1627
ag14
aS'truly'
p1628
aS'portable'
p1629
aS'camera.'
p1630
ag37
tp1631
a((lp1632
g2
aS'take'
p1633
aS'my'
p1634
aS'camera'
p1635
aS'everywhere.'
p1636
ag37
tp1637
a((lp1638
S'Tamrac'
p1639
aS'makes'
p1640
ag14
aS'tiny'
p1641
aS'pouch'
p1642
aS'that'
p1643
aS'is'
p1644
aS'best'
p1645
aS'for'
p1646
aS'the'
p1647
aS'camera.'
p1648
ag37
tp1649
a((lp1650
S'The'
p1651
aS'front'
p1652
aS'even'
p1653
aS'has'
p1654
ag14
aS'zipper'
p1655
aS'for'
p1656
aS'an'
p1657
aS'extra'
p1658
aS'battery'
p1659
aS'and'
p1660
aS'your'
p1661
aS'wallet'
p1662
aS'stuff.'
p1663
ag37
tp1664
a((lp1665
S'The'
p1666
aS'panorama'
p1667
aS'setting'
p1668
aS'is'
p1669
aS'unbelieveable'
p1670
ag1407
ag16
tp1671
a((lp1672
S'You'
p1673
aS'take'
p1674
aS'around'
p1675
aS'12'
p1676
aS'pictures'
p1677
aS'in'
p1678
ag14
aS'circle,'
p1679
aS'stitch'
p1680
aS'them'
p1681
aS'together'
p1682
aS'and'
p1683
aS'voila;'
p1684
aS'you'
p1685
aS'have'
p1686
ag14
aS'perfect'
p1687
aS'memory'
p1688
aS'of'
p1689
aS'where'
p1690
aS'you'
p1691
aS'were'
p1692
aS'standing'
p1693
ag1407
ag37
tp1694
a((lp1695
S'The'
p1696
aS'pictures'
p1697
aS'are'
p1698
ag14
aS'little'
p1699
aS'dark'
p1700
aS'sometimes.'
p1701
ag95
tp1702
a((lp1703
S'You'
p1704
aS'have'
p1705
aS'the'
p1706
aS'option'
p1707
aS'to'
p1708
aS'have'
p1709
aS'the'
p1710
aS'flash'
p1711
aS'automatic'
p1712
aS'or'
p1713
aS'off.'
p1714
ag16
tp1715
a((lp1716
S'The'
p1717
aS'new'
p1718
aS'Canon'
p1719
aS's300'
p1720
aS'is'
p1721
aS'33%'
p1722
aS'larger'
p1723
aS'and'
p1724
aS'26%'
p1725
aS'heavier'
p1726
aS'than'
p1727
aS'the'
p1728
aS'S100.'
p1729
ag16
tp1730
a((lp1731
S'The'
p1732
aS'movie'
p1733
aS'mode'
p1734
aS'can'
p1735
aS'only'
p1736
aS'record'
p1737
ag14
aS'max'
p1738
aS'of'
p1739
aS'30'
p1740
aS'seconds'
p1741
aS'at'
p1742
aS'160X120'
p1743
aS'per'
p1744
aS'clip'
p1745
aS'and'
p1746
ag14
aS'max'
p1747
aS'of'
p1748
aS'4'
p1749
aS'seconds'
p1750
aS'at'
p1751
aS'640X480.'
p1752
ag95
tp1753
a((lp1754
S'It'
p1755
aS'has'
p1756
aS'one'
p1757
aS'more'
p1758
aS'resolution'
p1759
aS'of'
p1760
aS'1024X768'
p1761
aS'and'
p1762
ag14
aS'"Normal"'
p1763
aS'compression'
p1764
aS'mode.'
p1765
aS'And,'
p1766
aS'it'
p1767
aS'has'
p1768
aS'the'
p1769
aS'3X'
p1770
aS'zoom.'
p1771
ag16
tp1772
a((lp1773
S'The'
p1774
aS'price'
p1775
aS'is'
p1776
aS'$...'
p1777
aS'more.'
p1778
ag95
tp1779
a((lp1780
g2
aS'originally'
p1781
aS'gave'
p1782
aS'this'
p1783
aS'camera'
p1784
aS'5'
p1785
aS'stars.'
p1786
aS'When'
p1787
ag2
aS'had'
p1788
aS'Windows'
p1789
aS'98'
p1790
aS'it'
p1791
aS'was'
p1792
aS'wonderful'
p1793
aS'but'
p1794
ag2
aS'got'
p1795
ag14
aS'new'
p1796
aS'computer'
p1797
aS'last'
p1798
aS'November'
p1799
aS'with'
p1800
aS'XP'
p1801
aS'the'
p1802
aS'usb'
p1803
aS'software'
p1804
aS'is'
p1805
aS'Sooo...'
p1806
aS'not'
p1807
aS'compatible'
p1808
aS'with'
p1809
aS'XP'
p1810
ag95
tp1811
a((lp1812
g2
aS'have'
p1813
aS'found'
p1814
aS'however'
p1815
aS'that'
p1816
aS'you'
p1817
aS'can'
p1818
aS'just'
p1819
aS'buy'
p1820
ag14
aS'card'
p1821
aS'reader'
p1822
aS'to'
p1823
aS'solve'
p1824
aS'this'
p1825
aS'problem.'
p1826
ag37
tp1827
a((lp1828
S'The'
p1829
aS'new'
p1830
aS'drivers'
p1831
aS'on'
p1832
aS"cannon's"
p1833
aS'site'
p1834
aS'do'
p1835
aS'not'
p1836
aS'help'
p1837
aS'at'
p1838
aS'all'
p1839
aS'but'
p1840
aS'try'
p1841
aS'them'
p1842
aS'if'
p1843
aS'you'
p1844
aS'want'
p1845
aS'they'
p1846
aS'have'
p1847
aS'made'
p1848
aS'me'
p1849
aS'have'
p1850
aS'to'
p1851
aS'use'
p1852
aS'the'
p1853
aS'backup'
p1854
aS'software.'
p1855
ag95
tp1856
a((lp1857
S'The'
p1858
aS'Adobe'
p1859
aS'software'
p1860
aS'also'
p1861
aS'was'
p1862
aS'wonderful'
p1863
aS'in'
p1864
aS'98'
p1865
aS'but'
p1866
aS'it'
p1867
aS'will'
p1868
aS'not'
p1869
aS'let'
p1870
aS'you'
p1871
aS'print'
p1872
aS'correctly'
p1873
aS'with'
p1874
aS'XP'
p1875
aS'so'
p1876
aS'you'
p1877
aS'are'
p1878
aS'forced'
p1879
aS'to'
p1880
aS'create'
p1881
aS'your'
p1882
aS'document'
p1883
aS'then'
p1884
aS'either'
p1885
aS'print'
p1886
aS'it'
p1887
aS'from'
p1888
aS'Windows'
p1889
aS'or'
p1890
aS'export'
p1891
aS'it'
p1892
aS'to'
p1893
aS'another'
p1894
aS'application.'
p1895
ag95
tp1896
a((lp1897
S'But'
p1898
aS'it'
p1899
aS'takes'
p1900
aS'gorgeous'
p1901
aS'pictures'
p1902
aS'for'
p1903
ag14
aS'2.1'
p1904
aS'MP'
p1905
aS'camera.'
p1906
ag16
tp1907
a((lp1908
g2
aS'love'
p1909
aS'this'
p1910
aS'camera!'
p1911
ag16
tp1912
a((lp1913
S'the'
p1914
aS'only'
p1915
aS'thing'
p1916
ag2
aS"don't"
p1917
aS'like'
p1918
aS'about'
p1919
aS'it'
p1920
aS'is'
p1921
aS'that'
p1922
aS'You'
p1923
aS'have'
p1924
aS'to'
p1925
aS'buy'
p1926
ag14
aS'larger'
p1927
aS'memory'
p1928
aS'card,'
p1929
aS'first'
p1930
aS'thing!'
p1931
ag95
tp1932
a((lp1933
g2
aS'got'
p1934
aS'this'
p1935
aS'camera'
p1936
aS'for'
p1937
aS'an'
p1938
aS'unbelievably'
p1939
aS'low'
p1940
aS'price'
p1941
aS'at'
p1942
aS'amazon.'
p1943
ag16
tp1944
a((lp1945
g2
aS'would'
p1946
aS'recommend'
p1947
aS'this'
p1948
aS'camera'
p1949
aS'unequivocally!'
p1950
ag16
tp1951
a((lp1952
g2
aS'got'
p1953
aS'this'
p1954
aS'camera'
p1955
aS'for'
p1956
aS'an'
p1957
aS'unbelievably'
p1958
aS'low'
p1959
aS'price'
p1960
aS'at'
p1961
aS'amazon.'
p1962
ag16
tp1963
a((lp1964
g2
aS'would'
p1965
aS'recommend'
p1966
aS'this'
p1967
aS'camera'
p1968
aS'unequivocally!'
p1969
ag16
tp1970
a((lp1971
S'My'
p1972
aS'last'
p1973
aS'digital'
p1974
aS'camera'
p1975
aS'was'
p1976
aS'an'
p1977
aS'Apple'
p1978
aS'QuickTake'
p1979
aS'200,'
p1980
aS'which'
p1981
aS'shot'
p1982
aS'640x480'
p1983
aS'pixel'
p1984
aS'images.'
p1985
ag37
tp1986
a((lp1987
S'The'
p1988
aS'Apple'
p1989
aS'was'
p1990
aS'actually'
p1991
aS'better'
p1992
aS'in'
p1993
aS'two'
p1994
aS'repects:'
p1995
aS'it'
p1996
aS'turned-on'
p1997
aS'quickly'
p1998
aS'and'
p1999
aS'it'
p2000
aS'showed'
p2001
aS'you'
p2002
aS'what'
p2003
aS'you'
p2004
aS'just'
p2005
aS'shot'
p2006
aS'right'
p2007
aS'after'
p2008
aS'you'
p2009
aS'shot'
p2010
aS'it.'
p2011
ag37
tp2012
a((lp2013
S'The'
p2014
aS'ELPH'
p2015
aS'will'
p2016
aS'do'
p2017
aS'the'
p2018
aS'latter'
p2019
aS'but'
p2020
aS'you'
p2021
aS'must'
p2022
aS'hold'
p2023
aS'down'
p2024
aS'the'
p2025
aS'shutter'
p2026
aS'button'
p2027
aS'to'
p2028
aS'view'
p2029
aS'it.'
p2030
ag37
tp2031
a((lp2032
S'But'
p2033
aS'this'
p2034
aS'DOES'
p2035
aS'work'
p2036
aS'even'
p2037
aS'if'
p2038
aS'you'
p2039
aS'turn'
p2040
aS'off'
p2041
aS'the'
p2042
aS'LCD'
p2043
aS'viewing'
p2044
aS'--'
p2045
aS'great'
p2046
aS'battery'
p2047
aS'saver.'
p2048
ag16
tp2049
a((lp2050
S"I've"
p2051
aS'been'
p2052
aS'using'
p2053
aS'this'
p2054
aS'camera'
p2055
aS'for'
p2056
ag14
aS'few'
p2057
aS'months'
p2058
aS'now.'
p2059
ag37
tp2060
a((lp2061
g136
aS'great'
p2062
aS'camera,'
p2063
aS'but'
p2064
aS'here'
p2065
aS'are'
p2066
aS'some'
p2067
aS'points'
p2068
aS'which'
p2069
ag2
aS"don't"
p2070
aS'notice'
p2071
aS'in'
p2072
aS'most'
p2073
aS'of'
p2074
aS'the'
p2075
aS'reviews'
p2076
aS'here,'
p2077
aS'which'
p2078
aS'may'
p2079
aS'be'
p2080
aS'of'
p2081
aS'concern'
p2082
aS'especially'
p2083
aS'to'
p2084
aS'the'
p2085
aS'more'
p2086
aS'advanced'
p2087
aS'amatuer:'
p2088
ag16
tp2089
a((lp2090
S'Good'
p2091
aS'quality'
p2092
aS'and'
p2093
aS'fun!'
p2094
ag37
tp2095
a((lp2096
g2
aS'purchased'
p2097
aS'the'
p2098
aS'Elph'
p2099
aS's100'
p2100
aS'mainly'
p2101
aS'because'
p2102
ag2
aS'thought'
p2103
aS'it'
p2104
aS'was'
p2105
aS'cool.'
p2106
ag16
tp2107
a((lp2108
S"I'm"
p2109
ag14
aS'professional'
p2110
aS'photographer'
p2111
aS'using'
p2112
aS'pro'
p2113
aS'digital'
p2114
aS'equipment'
p2115
aS'and'
p2116
ag2
aS'was'
p2117
aS'looking'
p2118
aS'for'
p2119
aS'something'
p2120
aS'to'
p2121
aS'have'
p2122
aS'around'
p2123
aS'the'
p2124
aS'house'
p2125
aS'so'
p2126
aS'that'
p2127
aS'my'
p2128
aS'wife'
p2129
aS'could'
p2130
aS'capture'
p2131
aS'candid'
p2132
aS'moments'
p2133
aS'with'
p2134
aS'my'
p2135
aS'kids.'
p2136
ag37
tp2137
a((lp2138
S'In'
p2139
aS'practice,'
p2140
aS"we've"
p2141
aS'been'
p2142
aS'VERY'
p2143
aS'happy'
p2144
aS'with'
p2145
aS'the'
p2146
aS'results.'
p2147
ag37
tp2148
a((lp2149
S'The'
p2150
aS'camera'
p2151
aS'does'
p2152
ag14
aS'great'
p2153
aS'job'
p2154
aS'with'
p2155
aS'exposure'
p2156
aS'and'
p2157
aS'prints'
p2158
aS'made'
p2159
aS'with'
p2160
aS'my'
p2161
aS'professional'
p2162
aS'printer'
p2163
aS'looks'
p2164
aS'great'
p2165
aS'(not'
p2166
aS'as'
p2167
aS'good'
p2168
aS'as'
p2169
aS'prints'
p2170
aS'from'
p2171
aS'my'
p2172
aS'pro'
p2173
aS'digital'
p2174
aS'camera,'
p2175
aS'but'
p2176
aS'still'
p2177
aS'VERY'
p2178
aS'good).'
p2179
ag16
tp2180
a((lp2181
S'My'
p2182
aS'last'
p2183
aS'digital'
p2184
aS'camera'
p2185
aS'was'
p2186
aS'the'
p2187
aS'Canon'
p2188
aS'Powershot'
p2189
aS'A5'
p2190
aS'Zoom,'
p2191
aS'which'
p2192
ag2
aS'liked'
p2193
aS'quite'
p2194
ag14
aS'bit.'
p2195
ag37
tp2196
a((lp2197
S'But'
p2198
ag2
aS'was'
p2199
aS'ready'
p2200
aS'to'
p2201
aS'upgrade'
p2202
aS'and'
p2203
aS'when'
p2204
ag2
aS'discovered'
p2205
aS'that'
p2206
aS'Canon'
p2207
aS'was'
p2208
aS'going'
p2209
aS'to'
p2210
aS'come'
p2211
aS'out'
p2212
aS'with'
p2213
aS'an'
p2214
aS'even'
p2215
aS'smaller'
p2216
aS'digital'
p2217
aS'camera'
p2218
aS'with'
p2219
ag14
aS'higher'
p2220
aS'resolution,'
p2221
ag2
aS'had'
p2222
aS'to'
p2223
aS'have'
p2224
aS'the'
p2225
aS'S100.'
p2226
ag16
tp2227
a((lp2228
S'This'
p2229
aS'is'
p2230
aS'my'
p2231
aS'second'
p2232
aS'digital'
p2233
aS'camera,'
p2234
aS'but'
p2235
aS"I'm"
p2236
aS'much'
p2237
aS'more'
p2238
aS'impressed'
p2239
aS'with'
p2240
aS'the'
p2241
aS'Canon'
p2242
aS'S100'
p2243
aS'Digital'
p2244
aS'Elph'
p2245
aS'than'
p2246
ag2
aS'EVER'
p2247
aS'was'
p2248
aS'with'
p2249
aS'my'
p2250
aS'Kodak'
p2251
aS'DC240.'
p2252
ag16
tp2253
a((lp2254
S'This'
p2255
aS'camera'
p2256
aS'is'
p2257
aS'so'
p2258
aS'light'
p2259
aS'and'
p2260
aS'tiny'
p2261
aS'that'
p2262
ag2
aS'literally'
p2263
aS'carry'
p2264
aS'it'
p2265
aS'everywhere'
p2266
aS'with'
p2267
aS'me,'
p2268
aS'which'
p2269
aS'is'
p2270
aS'great'
p2271
aS'considering'
p2272
aS"I'm"
p2273
aS'an'
p2274
aS'artist'
p2275
aS'and'
p2276
aS'like'
p2277
aS'to'
p2278
aS'capture'
p2279
aS'interesting'
p2280
aS'items'
p2281
aS'for'
p2282
aS'future'
p2283
aS'painting.'
p2284
ag16
tp2285
a((lp2286
S'The'
p2287
aS'software'
p2288
aS'that'
p2289
aS'comes'
p2290
aS'with'
p2291
aS'the'
p2292
aS'Digital'
p2293
aS'Elph'
p2294
aS'is'
p2295
aS'very'
p2296
aS'nice'
p2297
aS'and'
p2298
aS'intuitive.'
p2299
ag16
tp2300
a((lp2301
g2
aS'especially'
p2302
aS'like'
p2303
aS'the'
p2304
aS'way'
p2305
aS'that'
p2306
aS'ZoomBrowser'
p2307
aS'EX'
p2308
aS'lets'
p2309
aS'you'
p2310
aS'look'
p2311
aS'at'
p2312
ag14
aS'virtual'
p2313
aS'filmstrip'
p2314
aS'of'
p2315
aS'your'
p2316
aS'pictures.'
p2317
ag37
tp2318
a((lp2319
S'The'
p2320
aS'PhotoStitch'
p2321
aS'software'
p2322
aS'is'
p2323
aS'very'
p2324
aS'cool'
p2325
aS'if'
p2326
aS'you'
p2327
aS'want'
p2328
aS'to'
p2329
aS'do'
p2330
aS'any'
p2331
aS'360'
p2332
aS'degree'
p2333
aS'panorama'
p2334
aS'shots.'
p2335
ag16
tp2336
a((lp2337
S"I'd"
p2338
aS'suggest'
p2339
aS'that'
p2340
aS'you'
p2341
aS'not'
p2342
aS'only'
p2343
aS'buy'
p2344
aS'this'
p2345
aS'camera,'
p2346
aS'but'
p2347
aS'the'
p2348
aS'case'
p2349
aS'for'
p2350
aS'it'
p2351
aS'and'
p2352
aS'an'
p2353
aS'extra'
p2354
aS'battery'
p2355
aS'pack.'
p2356
ag37
tp2357
a((lp2358
S'My'
p2359
aS'only'
p2360
aS'complaint'
p2361
aS'and'
p2362
aS'the'
p2363
aS'reason'
p2364
ag2
aS'gave'
p2365
aS'it'
p2366
ag1749
aS'stars'
p2367
aS'instead'
p2368
aS'of'
p2369
ag1785
aS'is'
p2370
aS'that'
p2371
aS'the'
p2372
aS'on-camera'
p2373
aS'controls'
p2374
aS"aren't"
p2375
aS'as'
p2376
aS'intuitive'
p2377
aS'as'
p2378
aS'they'
p2379
aS'should'
p2380
aS'be.'
p2381
ag95
tp2382
a((lp2383
S"I've"
p2384
aS'often'
p2385
aS'struggled'
p2386
aS'to'
p2387
aS'get'
p2388
aS'something'
p2389
aS'to'
p2390
aS'work'
p2391
aS'the'
p2392
aS'way'
p2393
ag2
aS'want'
p2394
aS'it,'
p2395
aS'and'
p2396
aS'hate'
p2397
aS'to'
p2398
aS'have'
p2399
aS'to'
p2400
aS'carry'
p2401
aS'the'
p2402
aS'manual'
p2403
aS'with'
p2404
aS'me'
p2405
aS'all'
p2406
aS'the'
p2407
aS'time!'
p2408
ag95
tp2409
a((lp2410
S'Other'
p2411
aS'than'
p2412
aS'that,'
p2413
ag2
aS'love'
p2414
aS'this'
p2415
aS'camera.'
p2416
ag16
tp2417
a((lp2418
S'The'
p2419
aS'pictures'
p2420
aS'are'
p2421
aS'uniformly'
p2422
aS'excellent'
p2423
aS'and'
p2424
aS'color'
p2425
aS'rendering'
p2426
aS'is'
p2427
aS'perfect.'
p2428
ag16
tp2429
a((lp2430
S'The'
p2431
aS'good:'
p2432
aS'Small'
p2433
aS'size;'
p2434
aS'durable-seeming'
p2435
aS'metal'
p2436
aS'case;'
p2437
aS'easy'
p2438
aS'to'
p2439
aS'use;'
p2440
aS'visually'
p2441
aS'distinctive;'
p2442
aS'good'
p2443
aS'picture'
p2444
aS'quality;'
p2445
aS'fast'
p2446
aS'USB'
p2447
aS'connection;'
p2448
aS'mostly'
p2449
aS'intuitive'
p2450
aS'operation;'
p2451
aS'really'
p2452
aS'cool'
p2453
aS'PhotoStitch'
p2454
aS'software'
p2455
aS'that'
p2456
aS'knits'
p2457
aS'pictures'
p2458
aS'together'
p2459
aS'to'
p2460
aS'give'
p2461
aS'wide'
p2462
aS'panoramas.'
p2463
ag16
tp2464
a((lp2465
S'If'
p2466
aS'compact'
p2467
aS'size'
p2468
aS'is'
p2469
aS'your'
p2470
aS'highest'
p2471
aS'priority'
p2472
aS'in'
p2473
ag14
aS'2-megapixel'
p2474
aS'camera,'
p2475
aS'the'
p2476
aS'Canon'
p2477
aS'PowerShot'
p2478
aS'S100'
p2479
aS'Digital'
p2480
aS'Elph'
p2481
aS'is'
p2482
ag14
aS'standout'
p2483
aS'choice'
p2484
aS'and'
p2485
aS'aptly'
p2486
aS'named'
p2487
aS'for'
p2488
aS'its'
p2489
aS'diminutive'
p2490
aS'design.'
p2491
ag16
tp2492
a((lp2493
S'The'
p2494
aS"S100's"
p2495
aS'image'
p2496
aS'quality'
p2497
aS'rates'
p2498
aS'in'
p2499
aS'the'
p2500
aS'middle'
p2501
aS'of'
p2502
aS'its'
p2503
aS'class,'
p2504
aS'but'
p2505
aS'it'
p2506
aS'can'
p2507
aS'still'
p2508
aS'be'
p2509
ag14
aS'reasonable'
p2510
aS'choice'
p2511
aS'for'
p2512
aS'students,'
p2513
aS'families,'
p2514
aS'or'
p2515
aS'small'
p2516
aS'businesses'
p2517
aS'looking'
p2518
aS'for'
p2519
aS'an'
p2520
aS'ultra-portable'
p2521
aS'camera'
p2522
aS'that'
p2523
aS'weighs'
p2524
aS'less'
p2525
aS'than'
p2526
aS'half'
p2527
ag14
aS'pound'
p2528
aS'with'
p2529
aS'media'
p2530
aS'and'
p2531
aS'battery'
p2532
aS'pack.'
p2533
ag16
tp2534
a((lp2535
S'Recently'
p2536
ag2
aS'was'
p2537
aS'at'
p2538
aS'dinner'
p2539
aS'with'
p2540
aS'some'
p2541
aS'friends,'
p2542
aS'and'
p2543
aS'we'
p2544
aS'were'
p2545
aS'debating'
p2546
aS'the'
p2547
aS'merits'
p2548
aS'of'
p2549
aS'one'
p2550
aS'digital'
p2551
aS'camera'
p2552
aS'vs.'
p2553
aS'another.'
p2554
ag37
tp2555
a((lp2556
S'One'
p2557
aS'of'
p2558
aS'my'
p2559
aS'friends'
p2560
aS'was'
p2561
aS'going'
p2562
aS'on'
p2563
aS'and'
p2564
aS'on'
p2565
aS'about'
p2566
aS'his'
p2567
aS'camera'
p2568
aS'and'
p2569
aS'how'
p2570
aS'fancy'
p2571
aS'it'
p2572
aS'was.'
p2573
ag37
tp2574
a((lp2575
S'While'
p2576
aS'he'
p2577
aS'was'
p2578
aS'talking,'
p2579
ag2
aS'took'
p2580
aS'my'
p2581
aS'S100'
p2582
aS'out'
p2583
aS'of'
p2584
aS'the'
p2585
aS'front'
p2586
aS'pocket'
p2587
aS'of'
p2588
aS'my'
p2589
aS"Levi's"
p2590
aS'and'
p2591
aS'took'
p2592
aS'his'
p2593
aS'picture.'
p2594
ag37
tp2595
a((lp2596
g2
aS'said,'
p2597
aS'can'
p2598
aS'your'
p2599
aS'fancy'
p2600
aS'camera'
p2601
aS'do'
p2602
aS'that?'
p2603
ag37
tp2604
a((lp2605
S'No,'
p2606
aS'because'
p2607
aS'he'
p2608
aS"doesn't"
p2609
aS"(can't)"
p2610
aS'always'
p2611
aS'carry'
p2612
aS'his'
p2613
aS'with'
p2614
aS'him.'
p2615
ag37
tp2616
a((lp2617
S'End'
p2618
aS'of'
p2619
aS'story.'
p2620
ag37
tp2621
a((lp2622
g2
aS'purchased'
p2623
aS'this'
p2624
aS'camera'
p2625
aS'before'
p2626
aS'it'
p2627
aS'went'
p2628
aS'on'
p2629
aS'sale,'
p2630
aS'and'
p2631
aS'while'
p2632
ag2
aS"wouldn't"
p2633
aS'have'
p2634
aS'minded'
p2635
aS'keeping'
p2636
aS'the'
p2637
aS'extra'
p2638
aS'$$$,'
p2639
aS'it'
p2640
aS'was'
p2641
aS'definitely'
p2642
aS'worth'
p2643
aS'it.'
p2644
ag16
tp2645
a((lp2646
g2
aS'have'
p2647
aS'been'
p2648
aS'absolutely,'
p2649
aS'completely'
p2650
aS'satisfied'
p2651
aS'with'
p2652
aS'the'
p2653
aS'product'
p2654
aS'and'
p2655
aS'its'
p2656
aS'capabilities.'
p2657
ag16
tp2658
a((lp2659
g2
aS'am'
p2660
aS'no'
p2661
aS'computer'
p2662
aS'expert,'
p2663
aS'and'
p2664
aS'this'
p2665
aS'is'
p2666
aS'my'
p2667
aS'first'
p2668
aS'(and'
p2669
aS'probably'
p2670
aS'last)'
p2671
aS'digital'
p2672
aS'camera.'
p2673
ag37
tp2674
a((lp2675
S'This'
p2676
aS'is'
p2677
ag14
aS'great'
p2678
aS'product,'
p2679
aS'and'
p2680
aS'Canon'
p2681
aS'has'
p2682
aS'done'
p2683
aS'an'
p2684
aS'excellent'
p2685
aS'job.'
p2686
ag16
tp2687
a((lp2688
S"I've"
p2689
aS'been'
p2690
aS'very'
p2691
aS'reluctant'
p2692
aS'to'
p2693
aS'join'
p2694
aS'the'
p2695
aS'digital'
p2696
aS'camera'
p2697
aS'communitysince'
p2698
aS"I've"
p2699
aS'been'
p2700
aS'an'
p2701
aS'avid'
p2702
aS'"legacy"'
p2703
aS'photographer'
p2704
aS'for'
p2705
aS'most'
p2706
aS'of'
p2707
aS'mylife.'
p2708
ag37
tp2709
a((lp2710
g2
aS'received'
p2711
aS'this'
p2712
aS'little'
p2713
aS'jewel'
p2714
aS'as'
p2715
ag14
aS'gift'
p2716
aS'and'
p2717
ag2
aS'can'
p2718
aS'honestly'
p2719
aS'say'
p2720
aS'Iabsolutely'
p2721
aS'love'
p2722
aS'it.'
p2723
ag16
tp2724
a((lp2725
g2
aS'give'
p2726
aS'this'
p2727
aS'product'
p2728
aS'five'
p2729
aS'stars'
p2730
aS'for'
p2731
aS'its'
p2732
aS'usability,performance,'
p2733
aS'expandability,'
p2734
aS'and'
p2735
aS'definitely'
p2736
aS'looks!'
p2737
ag16
tp2738
a((lp2739
S"I've"
p2740
aS'had'
p2741
aS'this'
p2742
aS'camera'
p2743
aS'for'
p2744
aS'three'
p2745
aS'years.'
p2746
ag37
tp2747
a((lp2748
S'price[-1][u]I'
p2749
aS'bought'
p2750
aS'it'
p2751
aS'new,'
p2752
aS'when'
p2753
aS'it'
p2754
aS'was'
p2755
aS'cutting'
p2756
aS'edge'
p2757
aS'and'
p2758
aS'very'
p2759
aS'expensive.'
p2760
ag37
tp2761
a((lp2762
g2
aS'put'
p2763
ag14
aS'128MB'
p2764
aS'CF'
p2765
aS'card'
p2766
aS'in'
p2767
aS'it.'
p2768
ag37
tp2769
a((lp2770
S'First,'
p2771
ag2
aS'have'
p2772
aS'to'
p2773
aS'say'
p2774
aS'that'
p2775
ag2
aS'have'
p2776
aS'NEVER'
p2777
aS'had'
p2778
aS'the'
p2779
aS'slightest'
p2780
aS'problem'
p2781
aS'with'
p2782
aS'this'
p2783
aS'camera'
p2784
aS'or'
p2785
aS'the'
p2786
aS'software.'
p2787
ag16
tp2788
a((lp2789
S"I've"
p2790
aS'probably'
p2791
aS'taken'
p2792
aS'upwards'
p2793
aS'of'
p2794
aS'5000'
p2795
aS'pictures'
p2796
aS'with'
p2797
aS'it,'
p2798
aS"it's"
p2799
aS'been'
p2800
aS'all'
p2801
aS'over'
p2802
aS'the'
p2803
aS'country.'
p2804
ag37
tp2805
a((lp2806
S'The'
p2807
aS'software'
p2808
aS'has'
p2809
aS'been'
p2810
aS'installed'
p2811
aS'on'
p2812
aS'Windows'
p2813
aS'95,'
p2814
aS'98,'
p2815
aS'2000'
p2816
aS'and'
p2817
aS'XP'
p2818
aS'and'
p2819
ag2
aS"haven't"
p2820
aS'had'
p2821
aS'any'
p2822
aS'problems'
p2823
aS'with'
p2824
aS'it.'
p2825
ag16
tp2826
a((lp2827
S'The'
p2828
aS'camera'
p2829
aS'is'
p2830
aS'solid,'
p2831
aS'performs'
p2832
aS'well,'
p2833
aS'takes'
p2834
aS'good'
p2835
aS'pictures,'
p2836
aS'and'
p2837
aS'the'
p2838
aS'battery'
p2839
aS'lasts'
p2840
aS'pretty'
p2841
aS'long'
p2842
aS'if'
p2843
aS'you'
p2844
aS'disable'
p2845
aS'the'
p2846
aS'LCD'
p2847
aS'viewfinder.'
p2848
ag16
tp2849
a((lp2850
S'If'
p2851
aS'battery'
p2852
aS'life'
p2853
aS'were'
p2854
aS'that'
p2855
aS'big'
p2856
ag14
aS'deal,'
p2857
aS'one'
p2858
aS'could'
p2859
aS'purchase'
p2860
ag14
aS'second'
p2861
aS'battery'
p2862
aS'and'
p2863
aS'rotate.'
p2864
ag37
tp2865
a((lp2866
S'All'
p2867
aS'that'
p2868
aS'said,'
p2869
ag2
aS'am'
p2870
ag14
aS'little'
p2871
aS'disappointed'
p2872
aS'with'
p2873
aS'the'
p2874
aS'quality'
p2875
aS'of'
p2876
aS'the'
p2877
aS'pictures'
p2878
aS'from'
p2879
aS'the'
p2880
aS'camera.'
p2881
ag95
tp2882
a((lp2883
S'They'
p2884
aS'are'
p2885
aS'razor'
p2886
aS'sharp,'
p2887
aS'the'
p2888
aS'color'
p2889
aS'balance'
p2890
aS'is'
p2891
aS'perfect,'
p2892
aS'and'
p2893
aS'the'
p2894
aS'focus'
p2895
aS'is'
p2896
aS'great.'
p2897
ag16
tp2898
a((lp2899
S'When'
p2900
aS'taking'
p2901
aS'pictures'
p2902
aS'of'
p2903
aS'people,'
p2904
aS'however,'
p2905
aS'it'
p2906
aS'shows'
p2907
aS'EVERY'
p2908
aS'flaw'
p2909
aS'in'
p2910
aS'the'
p2911
aS"subject's"
p2912
aS'skin.'
p2913
ag95
tp2914
a((lp2915
S'Scratches,'
p2916
aS'oil,'
p2917
aS'freckles'
p2918
aS'are'
p2919
aS'magnified'
p2920
aS'and'
p2921
aS'come'
p2922
aS'out'
p2923
aS'looking'
p2924
aS'horrific.'
p2925
ag37
tp2926
a((lp2927
S'It'
p2928
aS'requires'
p2929
aS'extensive'
p2930
aS'Photoshopping'
p2931
aS'to'
p2932
aS'fix'
p2933
aS'the'
p2934
aS'flaws.'
p2935
ag37
tp2936
a((lp2937
S'Other'
p2938
aS'cameras'
p2939
aS'taking'
p2940
aS'pics'
p2941
aS'of'
p2942
aS'the'
p2943
aS'same'
p2944
aS'subjects'
p2945
aS'turn'
p2946
aS'out'
p2947
aS'looking'
p2948
aS'much'
p2949
aS'better.'
p2950
ag95
tp2951
a((lp2952
g2
aS'will'
p2953
aS'also'
p2954
aS'say'
p2955
aS'that'
p2956
aS'it'
p2957
aS'takes'
p2958
ag14
aS'very'
p2959
aS'long'
p2960
aS'moment'
p2961
aS'for'
p2962
aS'the'
p2963
aS'camera'
p2964
aS'to'
p2965
aS'do'
p2966
aS'its'
p2967
aS'digital'
p2968
aS'image'
p2969
aS'processing'
p2970
aS'between'
p2971
aS'the'
p2972
aS'time'
p2973
aS'you'
p2974
aS'press'
p2975
aS'the'
p2976
aS'button'
p2977
aS'and'
p2978
aS'when'
p2979
aS'the'
p2980
aS'camera'
p2981
aS'actually'
p2982
aS'takes'
p2983
aS'the'
p2984
aS'picture.'
p2985
ag95
tp2986
a((lp2987
S'By'
p2988
aS'the'
p2989
aS'time'
p2990
aS'the'
p2991
aS"shot's"
p2992
aS'taken,'
p2993
aS'something'
p2994
aS'(especially'
p2995
ag14
aS'squirmy'
p2996
aS'child'
p2997
aS'or'
p2998
ag14
aS'sports'
p2999
aS'play)'
p3000
aS'has'
p3001
aS'invariably'
p3002
aS'moved'
p3003
aS'and'
p3004
aS"it's"
p3005
aS'not'
p3006
aS'the'
p3007
aS'exact'
p3008
aS'picture'
p3009
aS'you'
p3010
aS'wanted.'
p3011
ag37
tp3012
a((lp3013
S"I'm"
p3014
aS'going'
p3015
aS'to'
p3016
aS'buy'
p3017
ag14
aS'real'
p3018
aS'Single-Lens'
p3019
aS'Reflex'
p3020
aS'(SLR)'
p3021
aS'to'
p3022
aS'take'
p3023
aS'baby'
p3024
aS'pictures,'
p3025
aS'but'
p3026
aS"I'll"
p3027
aS'keep'
p3028
aS'this'
p3029
aS'as'
p3030
ag14
aS'travel'
p3031
aS'camera.'
p3032
ag37
tp3033
a((lp3034
S"I'm"
p3035
ag14
aS'writer'
p3036
aS'and'
p3037
aS'new'
p3038
aS'to'
p3039
aS'digital'
p3040
aS'photography.'
p3041
ag37
tp3042
a((lp3043
S"I've"
p3044
aS'owned'
p3045
ag14
aS'few'
p3046
aS'35mm'
p3047
aS'cameras'
p3048
aS'over'
p3049
aS'the'
p3050
aS'years,'
p3051
aS'including'
p3052
aS'one'
p3053
aS'SLR'
p3054
aS'and'
p3055
aS'two'
p3056
aS'point'
p3057
aS'&'
p3058
aS'shoots.'
p3059
ag37
tp3060
a((lp3061
g2
aS'had'
p3062
aS'been'
p3063
aS'waiting'
p3064
aS'for'
p3065
aS'the'
p3066
aS'prices'
p3067
aS'of'
p3068
aS'digital'
p3069
aS'cameras'
p3070
aS'to'
p3071
aS'come'
p3072
aS'down'
p3073
aS'before'
p3074
aS'taking'
p3075
aS'the'
p3076
aS'plunge.'
p3077
ag37
tp3078
a((lp3079
S'This'
p3080
aS'year,'
p3081
aS'with'
p3082
ag14
aS'cruise'
p3083
aS'to'
p3084
aS'Nova'
p3085
aS'Scotia'
p3086
aS'coming'
p3087
aS'in'
p3088
aS'August,'
p3089
ag2
aS'decided'
p3090
aS'the'
p3091
aS'time'
p3092
aS'was'
p3093
aS'right'
p3094
aS'and'
p3095
aS'just'
p3096
aS'purchased'
p3097
ag14
aS'Canon'
p3098
aS'S100'
p3099
aS'Digital'
p3100
aS'Elph.'
p3101
ag37
tp3102
a((lp3103
g2
aS'must'
p3104
aS'say,'
p3105
ag2
aS'think'
p3106
aS'this'
p3107
aS'is'
p3108
aS'the'
p3109
aS'coolest'
p3110
aS'camera'
p3111
aS"I've"
p3112
aS'ever'
p3113
aS'owned!'
p3114
ag16
tp3115
a((lp3116
S'First,'
p3117
aS'it'
p3118
aS'really'
p3119
aS'is'
p3120
aS'tiny;'
p3121
aS'the'
p3122
aS'size'
p3123
aS'of'
p3124
ag14
aS'pack'
p3125
aS'of'
p3126
aS'cigarettes,'
p3127
aS'maybe'
p3128
ag14
aS'scooch'
p3129
aS'deeper.'
p3130
ag16
tp3131
a((lp3132
S'The'
p3133
aS'included'
p3134
aS'battery'
p3135
aS'charger'
p3136
aS'is'
p3137
aS'larger!'
p3138
ag37
tp3139
a((lp3140
S'Second,'
p3141
aS'it'
p3142
aS'is'
p3143
aS'incredibly'
p3144
aS'easy'
p3145
aS'to'
p3146
aS'use.'
p3147
ag16
tp3148
a((lp3149
g2
aS'just'
p3150
aS'went'
p3151
aS'on'
p3152
ag14
aS'quick'
p3153
aS'photo'
p3154
aS'shoot'
p3155
aS'in'
p3156
aS"NYC's"
p3157
aS'Central'
p3158
aS'Park'
p3159
aS'today,'
p3160
aS'and'
p3161
aS'what'
p3162
ag14
aS'bunch'
p3163
aS'of'
p3164
aS'beautiful'
p3165
aS'photos'
p3166
ag2
aS'took,'
p3167
aS'if'
p3168
ag2
aS'do'
p3169
aS'say'
p3170
aS'so'
p3171
aS'myself'
p3172
aS'(and'
p3173
ag2
aS'do!)'
p3174
ag16
tp3175
a((lp3176
S'The'
p3177
aS'camera'
p3178
aS'is'
p3179
aS'as'
p3180
aS'easy'
p3181
aS'to'
p3182
aS'use'
p3183
aS'as'
p3184
ag14
aS'point'
p3185
aS'and'
p3186
aS'shoot,'
p3187
aS'and'
p3188
aS'with'
p3189
aS'instant'
p3190
aS'review'
p3191
aS'on'
p3192
aS'the'
p3193
aS'LCD'
p3194
aS'screen,'
p3195
aS'you'
p3196
aS'can'
p3197
aS'retake'
p3198
aS'any'
p3199
aS'flubbed'
p3200
aS'shots'
p3201
aS'on'
p3202
aS'the'
p3203
aS'spot.'
p3204
ag16
tp3205
a((lp3206
S'The'
p3207
aS'two-times'
p3208
aS'optical'
p3209
aS'zoom'
p3210
aS'operates'
p3211
aS'smoothly'
p3212
aS'and'
p3213
aS'quietly,'
p3214
aS'and'
p3215
aS'lo'
p3216
aS'and'
p3217
aS'behold,'
p3218
ag14
aS'two-piece'
p3219
aS'shutter-like'
p3220
aS'cap'
p3221
aS'automatically'
p3222
aS'slides'
p3223
aS'closed'
p3224
aS'over'
p3225
aS'the'
p3226
aS'lens'
p3227
aS'when'
p3228
aS'you'
p3229
aS'turn'
p3230
aS'the'
p3231
aS'camera'
p3232
aS'off.'
p3233
ag16
tp3234
a((lp3235
g2
aS'also'
p3236
aS'had'
p3237
aS'no'
p3238
aS'problems'
p3239
aS'installing'
p3240
aS'or'
p3241
aS'running'
p3242
aS'the'
p3243
aS'camera'
p3244
aS'software'
p3245
aS'on'
p3246
aS'my'
p3247
aS'PC.'
p3248
ag16
tp3249
a((lp3250
S"I'm"
p3251
aS'still'
p3252
aS'learning'
p3253
aS'about'
p3254
aS'file'
p3255
aS'sizes'
p3256
aS'(and'
p3257
aS'how'
p3258
aS'large'
p3259
aS'is'
p3260
aS'too'
p3261
aS'large'
p3262
aS'to'
p3263
aS'email),'
p3264
aS'and'
p3265
ag2
aS'did'
p3266
aS'erase'
p3267
aS'one'
p3268
aS'photo'
p3269
ag2
aS'wanted'
p3270
aS'to'
p3271
aS'keep'
p3272
aS'as'
p3273
ag2
aS'was'
p3274
aS'getting'
p3275
aS'used'
p3276
aS'to'
p3277
aS'the'
p3278
aS'menu'
p3279
aS'system.'
p3280
ag37
tp3281
a((lp3282
S'But'
p3283
aS'otherwise'
p3284
ag2
aS'am'
p3285
aS'thrilled'
p3286
aS'to'
p3287
aS'have'
p3288
aS'taken'
p3289
aS'the'
p3290
aS'plunge'
p3291
aS'into'
p3292
aS'digital'
p3293
aS'photography.'
p3294
ag37
tp3295
a((lp3296
S'And'
p3297
aS'there'
p3298
aS'are'
p3299
aS'two'
p3300
aS'more'
p3301
aS'advantages'
p3302
aS'to'
p3303
aS'digital'
p3304
aS'photography'
p3305
aS'which'
p3306
ag2
aS"hadn't"
p3307
aS'anticipated,'
p3308
aS'beyond'
p3309
aS'the'
p3310
aS'lack'
p3311
aS'of'
p3312
aS'film'
p3313
aS'and'
p3314
aS'developing.'
p3315
ag37
tp3316
a((lp3317
S'One'
p3318
aS'is'
p3319
aS'the'
p3320
aS'lack'
p3321
aS'of'
p3322
aS'censorship'
p3323
aS'of'
p3324
aS'your'
p3325
aS'photos'
p3326
aS'--'
p3327
aS'time'
p3328
aS'for'
p3329
aS'some,'
p3330
aS'uh,'
p3331
aS'fashion'
p3332
aS'photography'
p3333
aS'of'
p3334
aS'your'
p3335
aS'wife'
p3336
aS'or'
p3337
aS'girlfriend,'
p3338
aS'if'
p3339
aS"that's"
p3340
aS'something'
p3341
aS'you'
p3342
aS'both'
p3343
aS'would'
p3344
aS'enjoy!'
p3345
ag37
tp3346
a((lp3347
S'Another'
p3348
aS'is'
p3349
aS'the'
p3350
aS'ability'
p3351
aS'to'
p3352
aS'upload'
p3353
aS'images'
p3354
aS'from'
p3355
aS'your'
p3356
aS'PC'
p3357
aS'to'
p3358
ag14
aS'memory'
p3359
aS'card'
p3360
aS'in'
p3361
aS'the'
p3362
aS'camera.'
p3363
ag37
tp3364
a((lp3365
S'This'
p3366
aS'is'
p3367
ag14
aS'great'
p3368
aS'source'
p3369
aS'of'
p3370
aS'personal'
p3371
aS'entertainment'
p3372
aS'for'
p3373
aS'travelers,'
p3374
aS'if'
p3375
aS'you'
p3376
aS'catch'
p3377
aS'my'
p3378
aS'drift,'
p3379
aS'and'
p3380
aS'you'
p3381
aS'can'
p3382
aS'zoom'
p3383
aS'in'
p3384
aS'on'
p3385
aS'the'
p3386
aS'LCD'
p3387
aS'images!'
p3388
ag37
tp3389
a((lp3390
g2
aS'would'
p3391
aS'also'
p3392
aS'recommend'
p3393
aS"Canon's"
p3394
aS'soft'
p3395
aS'case'
p3396
aS'for'
p3397
aS'the'
p3398
aS'camera,'
p3399
aS'which'
p3400
aS'has'
p3401
ag14
aS'slot'
p3402
aS'to'
p3403
aS'attach'
p3404
aS'to'
p3405
aS'your'
p3406
aS'belt'
p3407
aS'along'
p3408
aS'with'
p3409
ag14
aS'second'
p3410
aS'nicely'
p3411
aS'finished'
p3412
aS'compartment'
p3413
aS'to'
p3414
aS'hold'
p3415
aS'an'
p3416
aS'extra'
p3417
aS'battery'
p3418
aS'or'
p3419
aS'memory'
p3420
aS'card.'
p3421
ag37
tp3422
a((lp3423
S'As'
p3424
aS'other'
p3425
aS'reviews'
p3426
aS'have'
p3427
aS'noted,'
p3428
aS'you'
p3429
aS'will'
p3430
aS'definitely'
p3431
aS'want'
p3432
aS'one'
p3433
aS'or'
p3434
aS'more'
p3435
aS'additional'
p3436
aS'memory'
p3437
aS'cards.'
p3438
ag37
tp3439
a((lp3440
S"I've"
p3441
aS'found'
p3442
ag2
aS'can'
p3443
aS'get'
p3444
aS'from'
p3445
aS'nine'
p3446
aS'to'
p3447
aS'twelve'
p3448
aS'compressed'
p3449
aS'1600'
p3450
aS'X'
p3451
aS'1200'
p3452
aS'photos'
p3453
aS'on'
p3454
aS'one'
p3455
aS'8MB'
p3456
aS'card,'
p3457
aS'or'
p3458
aS'28'
p3459
aS'images'
p3460
aS'uploaded'
p3461
aS'from'
p3462
aS'my'
p3463
aS'PC.'
p3464
ag37
tp3465
a((lp3466
S'At'
p3467
aS'any'
p3468
aS'rate,'
p3469
aS'if'
p3470
aS'you'
p3471
aS'have'
p3472
aS'been'
p3473
aS'interested'
p3474
aS'in'
p3475
aS'digital'
p3476
aS'photography'
p3477
aS'but'
p3478
aS'the'
p3479
aS'price'
p3480
aS'and'
p3481
aS'confusion'
p3482
aS'have'
p3483
aS'held'
p3484
aS'you'
p3485
aS'back,'
p3486
aS'consider'
p3487
aS'the'
p3488
aS'Canon'
p3489
aS'S100'
p3490
aS'Digital'
p3491
aS'Elph.'
p3492
ag16
tp3493
a((lp3494
S'It'
p3495
aS'really'
p3496
aS'is'
p3497
aS'the'
p3498
aS'perfect'
p3499
aS'travel'
p3500
aS'camera,'
p3501
aS'plus'
p3502
aS'it'
p3503
aS'offers'
p3504
aS'the'
p3505
aS'convenience'
p3506
aS'of'
p3507
aS'digital'
p3508
aS'photography.'
p3509
ag16
tp3510
a((lp3511
S'Why'
p3512
aS'did'
p3513
ag2
aS'wait'
p3514
aS'so'
p3515
aS'long?'
p3516
aS'detail[-1],color'
p3517
aS'rendition[-1][cc]##If'
p3518
aS"you're"
p3519
aS'looking'
p3520
aS'for'
p3521
ag14
aS'digital'
p3522
aS'camera'
p3523
aS'to'
p3524
aS'replace'
p3525
aS'your'
p3526
aS'big'
p3527
aS'Nikon'
p3528
aS'or'
p3529
aS'Canon'
p3530
aS'SLR,'
p3531
aS'forget'
p3532
aS'it'
p3533
aS'-'
p3534
aS'film'
p3535
aS'is'
p3536
aS'still'
p3537
aS'king'
p3538
aS'when'
p3539
aS'exquisite'
p3540
aS'detail'
p3541
aS'and'
p3542
aS'fine'
p3543
aS'color'
p3544
aS'rendition'
p3545
aS'are'
p3546
aS'critical.'
p3547
ag37
tp3548
a((lp3549
S'Before'
p3550
aS'you'
p3551
aS'give'
p3552
aS'up'
p3553
aS'on'
p3554
aS'digital'
p3555
aS'cameras,'
p3556
aS'though,'
p3557
aS'ask'
p3558
aS'yourself'
p3559
ag14
aS'few'
p3560
aS'questions:'
p3561
ag37
tp3562
a((lp3563
S'got'
p3564
aS'this'
p3565
aS'as'
p3566
aS'it'
p3567
aS'flew'
p3568
aS'off'
p3569
aS'the'
p3570
aS'shelves.'
p3571
ag37
tp3572
a((lp3573
S'Really'
p3574
aS'like'
p3575
aS'it,'
p3576
aS'easy'
p3577
aS'to'
p3578
aS'use,'
p3579
aS'great'
p3580
aS'images,'
p3581
aS'very'
p3582
aS'intuitive,'
p3583
aS'fits'
p3584
aS'in'
p3585
aS'my'
p3586
aS'jacket'
p3587
aS'pocket.'
p3588
ag16
tp3589
a((lp3590
S'What'
p3591
aS'else'
p3592
aS'can'
p3593
ag2
aS'say?'
p3594
ag37
tp3595
a((lp3596
g2
aS'was'
p3597
aS'looking'
p3598
aS'for'
p3599
ag14
aS'compact,'
p3600
aS'rugged'
p3601
aS'(I'
p3602
aS'carry'
p3603
aS'it'
p3604
aS'hiking,'
p3605
aS'skiing,'
p3606
aS'boating,'
p3607
aS'etc)'
p3608
aS'camera'
p3609
aS'which'
p3610
aS'is'
p3611
aS'easy'
p3612
aS'to'
p3613
aS'use.'
p3614
ag16
tp3615
a((lp3616
g2
aS'wanted'
p3617
aS'standard'
p3618
aS'memory'
p3619
aS'expansion'
p3620
aS'(CF'
p3621
aS'cards),'
p3622
aS'macro'
p3623
aS'mode,'
p3624
aS'and'
p3625
aS'if'
p3626
aS'possible,'
p3627
ag14
aS'waterproof'
p3628
aS'housing'
p3629
aS'(for'
p3630
aS'kayaking).'
p3631
ag16
tp3632
a((lp3633
S'This'
p3634
aS'is'
p3635
aS'the'
p3636
aS'only'
p3637
aS'camera'
p3638
aS'with'
p3639
aS'all'
p3640
aS'these'
p3641
aS'capabilities.'
p3642
ag37
tp3643
a((lp3644
S'Even'
p3645
aS'with'
p3646
aS'the'
p3647
aS'waterproof'
p3648
aS'housing'
p3649
aS'it'
p3650
aS'is'
p3651
aS'small.'
p3652
ag16
tp3653
a((lp3654
S'The'
p3655
aS'lens'
p3656
aS'retracts'
p3657
aS'and'
p3658
aS'has'
p3659
aS'its'
p3660
aS'own'
p3661
aS'metal'
p3662
aS'cover'
p3663
aS'so'
p3664
aS'you'
p3665
aS"don't"
p3666
aS'need'
p3667
aS'to'
p3668
aS'fuss'
p3669
aS'with'
p3670
ag14
aS'lens'
p3671
aS'cap.'
p3672
ag16
tp3673
a((lp3674
S'The'
p3675
aS'metal'
p3676
aS'housing'
p3677
aS'seems'
p3678
aS'very'
p3679
aS'rugged.'
p3680
ag16
tp3681
a((lp3682
S'Turn-on'
p3683
aS'to'
p3684
aS'ready-to-shoot'
p3685
aS'is'
p3686
aS'about'
p3687
ag1491
aS'seconds.'
p3688
ag37
tp3689
a((lp3690
S"I'd"
p3691
aS'give'
p3692
aS'it'
p3693
ag1785
aS'stars'
p3694
aS'if'
p3695
aS'the'
p3696
aS'automatic'
p3697
aS'modes'
p3698
aS'were'
p3699
aS'better'
p3700
aS'and'
p3701
aS'if'
p3702
aS'there'
p3703
aS'were'
p3704
aS'true'
p3705
aS'manual'
p3706
aS'focus'
p3707
aS'and'
p3708
aS'exposure'
p3709
aS'modes.'
p3710
ag95
tp3711
a((lp3712
S'For'
p3713
aS'example,'
p3714
aS'in'
p3715
aS'auto'
p3716
aS'mode'
p3717
aS'you'
p3718
aS"can't"
p3719
aS'use'
p3720
aS'the'
p3721
aS'flash'
p3722
aS'redeye'
p3723
aS'reduction,'
p3724
aS'you'
p3725
aS'must'
p3726
aS'be'
p3727
aS'in'
p3728
aS'manual'
p3729
aS'mode'
p3730
aS'for'
p3731
aS'that.'
p3732
ag95
tp3733
a((lp3734
S'The'
p3735
aS'auto'
p3736
aS'color'
p3737
aS'balance'
p3738
aS'is'
p3739
aS'often'
p3740
aS'fooled'
p3741
aS'by'
p3742
aS'dense'
p3743
aS'clouds.'
p3744
ag95
tp3745
a((lp3746
S'You'
p3747
aS'need'
p3748
aS'to'
p3749
aS'use'
p3750
aS'the'
p3751
aS'manual'
p3752
aS'exposure'
p3753
aS'adjustment'
p3754
aS'in'
p3755
aS'backlight'
p3756
aS'or'
p3757
aS'bright'
p3758
aS'light'
p3759
aS'conditions'
p3760
aS'such'
p3761
aS'as'
p3762
aS'with'
p3763
aS'snow'
p3764
aS'in'
p3765
aS'the'
p3766
aS'background.'
p3767
ag37
tp3768
a((lp3769
S'The'
p3770
aS'dynamic'
p3771
aS'range'
p3772
aS'seems'
p3773
aS'not'
p3774
aS'quite'
p3775
aS'as'
p3776
aS'good'
p3777
aS'as'
p3778
aS'the'
p3779
aS'Kodak'
p3780
aS'DC260.'
p3781
ag95
tp3782
a((lp3783
S'The'
p3784
aS'macro'
p3785
aS'mode'
p3786
aS'works'
p3787
aS'well,'
p3788
aS'although'
p3789
aS'it'
p3790
aS'takes'
p3791
aS'some'
p3792
aS'practice'
p3793
aS'since'
p3794
aS'the'
p3795
aS'camera'
p3796
aS"doesn't"
p3797
aS'clearly'
p3798
aS'indicate'
p3799
aS'when'
p3800
aS'it'
p3801
aS"can't"
p3802
aS'focus.'
p3803
ag16
tp3804
a((lp3805
S'The'
p3806
aS'white-LED'
p3807
aS'backlit'
p3808
aS'LCD'
p3809
aS'is'
p3810
aS'very'
p3811
aS'bright'
p3812
aS'and'
p3813
aS'crisp,'
p3814
aS'even'
p3815
aS'in'
p3816
aS'sunlight,'
p3817
aS'and'
p3818
aS'relatively'
p3819
aS'easy'
p3820
aS'on'
p3821
aS'the'
p3822
aS'battery.'
p3823
ag16
tp3824
a((lp3825
S'The'
p3826
aS'panorama'
p3827
aS'modes'
p3828
aS'are'
p3829
aS'wonderful.'
p3830
ag16
tp3831
a((lp3832
S'Buy'
p3833
aS'at'
p3834
aS'least'
p3835
aS'two'
p3836
aS'batteries'
p3837
aS'and'
p3838
aS"you'll"
p3839
aS'never'
p3840
aS'run'
p3841
aS'out'
p3842
aS'in'
p3843
aS'the'
p3844
aS'field.'
p3845
ag37
tp3846
a((lp3847
S'High-res'
p3848
aS'photos'
p3849
aS'take'
p3850
aS'1-1.5'
p3851
aS'MBytes'
p3852
aS'each'
p3853
aS'so'
p3854
aS'you'
p3855
aS'want'
p3856
ag14
aS'CF'
p3857
aS'card'
p3858
aS'sized'
p3859
aS'accordingly.'
p3860
ag37
tp3861
a((lp3862
S"It's"
p3863
aS'so'
p3864
aS'small'
p3865
aS'and'
p3866
aS'light,'
p3867
aS'even'
p3868
aS'with'
p3869
ag14
aS'spare'
p3870
aS'battery,'
p3871
aS'you'
p3872
aS'really'
p3873
aS'can'
p3874
aS'take'
p3875
aS'it'
p3876
aS'anywhere.'
p3877
ag16
tp3878
a((lp3879
S'In'
p3880
aS'auto'
p3881
aS'mode'
p3882
aS'anyone'
p3883
aS'can'
p3884
aS'use'
p3885
aS'it'
p3886
aS'as'
p3887
ag14
aS'point'
p3888
aS'and'
p3889
aS'shoot'
p3890
aS'camera.'
p3891
ag16
tp3892
a((lp3893
S'The'
p3894
aS'manual'
p3895
aS'modes'
p3896
aS'give'
p3897
aS'you'
p3898
ag14
aS'lot'
p3899
aS'of'
p3900
aS'control'
p3901
aS'over'
p3902
aS'exposure'
p3903
aS'and'
p3904
aS'white'
p3905
aS'balance'
p3906
aS'(but'
p3907
aS'there'
p3908
aS'is'
p3909
aS'no'
p3910
aS'manual'
p3911
aS'focus'
p3912
aS'or'
p3913
aS'manual'
p3914
aS'exposure).'
p3915
ag16
tp3916
a((lp3917
S'1600x1200'
p3918
aS'means'
p3919
aS'really'
p3920
aS'good,'
p3921
aS'cropped'
p3922
aS'5x7'
p3923
aS'prints'
p3924
aS'and'
p3925
aS'acceptable'
p3926
aS'8x10s.'
p3927
ag37
tp3928
a((lp3929
S'There'
p3930
aS'are'
p3931
aS'better'
p3932
aS'cameras'
p3933
aS'but'
p3934
aS'none'
p3935
aS'anywhere'
p3936
aS'near'
p3937
aS'as'
p3938
aS'light'
p3939
aS'and'
p3940
aS'compact.'
p3941
ag16
tp3942
a((lp3943
S"It's"
p3944
ag14
aS'little'
p3945
aS'jewel.'
p3946
ag37
tp3947
a((lp3948
S'1-'
p3949
aS'Small.'
p3950
ag16
tp3951
a((lp3952
S'VERY'
p3953
aS'smal.'
p3954
ag16
tp3955
a((lp3956
S"You'll"
p3957
aS'carry'
p3958
aS'it'
p3959
aS'with'
p3960
aS'you'
p3961
aS'every'
p3962
aS'day.'
p3963
ag37
tp3964
a((lp3965
S"I've"
p3966
aS'been'
p3967
aS'taking'
p3968
aS'near'
p3969
aS'100'
p3970
aS'pictures'
p3971
aS'per'
p3972
aS'month'
p3973
aS'since'
p3974
ag2
aS'got'
p3975
aS'mine.'
p3976
ag37
tp3977
a((lp3978
S"I've"
p3979
aS'had'
p3980
ag14
aS'lot'
p3981
aS'of'
p3982
aS'cameras,'
p3983
aS'but'
p3984
aS'this'
p3985
aS'one'
p3986
aS'is'
p3987
aS'ACTUALLY'
p3988
aS'being'
p3989
aS'used,'
p3990
aS'and'
p3991
aS'not'
p3992
aS'stored'
p3993
aS'in'
p3994
ag14
aS'desk:'
p3995
aS"it's"
p3996
aS'allways'
p3997
aS'in'
p3998
aS'my'
p3999
aS'shist'
p4000
aS'pocket.'
p4001
ag16
tp4002
a((lp4003
S'2-'
p4004
aS'Excellent'
p4005
aS'picture'
p4006
aS'quality'
p4007
aS'and'
p4008
aS'so'
p4009
aS'simple'
p4010
aS'to'
p4011
aS'use!!!'
p4012
ag16
tp4013
a((lp4014
S'Fool'
p4015
aS'proof.'
p4016
ag37
tp4017
a((lp4018
g2
aS'started'
p4019
aS'shooting'
p4020
aS'even'
p4021
aS'before'
p4022
aS'reading'
p4023
aS'the'
p4024
aS'manual'
p4025
aS'(not'
p4026
aS'recommended'
p4027
aS'at'
p4028
aS'all).'
p4029
ag37
tp4030
a((lp4031
S'3-'
p4032
aS'USB'
p4033
aS'kicks!'
p4034
ag37
tp4035
a((lp4036
g1502
aS'secs'
p4037
aS'to'
p4038
aS'download'
p4039
ag14
aS'600KB'
p4040
aS'1600x1200'
p4041
aS'picture!'
p4042
ag37
tp4043
a((lp4044
S'4-'
p4045
aS'Looks'
p4046
aS'great.'
p4047
ag16
tp4048
a((lp4049
S'Silver'
p4050
aS'metal'
p4051
aS'case'
p4052
aS'-NOT'
p4053
aS'PLASTIC.'
p4054
ag16
tp4055
a((lp4056
S'5-'
p4057
aS'Excelent'
p4058
aS'software'
p4059
aS'package.'
p4060
ag16
tp4061
a((lp4062
S'6-'
p4063
aS'Small'
p4064
aS'but'
p4065
aS'very'
p4066
aS'clear'
p4067
aS'TFT'
p4068
aS'screen.'
p4069
ag16
tp4070
a((lp4071
S'Take'
p4072
aS'shots'
p4073
aS'at'
p4074
aS'angles'
p4075
aS'you'
p4076
aS'thought'
p4077
aS'you'
p4078
aS"wouldn't."
p4079
ag37
tp4080
a((lp4081
S"Don't"
p4082
aS'care'
p4083
aS'about'
p4084
aS'sunlight:'
p4085
aS"it's"
p4086
aS'TFT.'
p4087
ag16
tp4088
a((lp4089
S'7-'
p4090
aS'360'
p4091
ag16
tp4092
a.