(dp0
S"I've only had this camera for a few days, but it's been great."
p1
(dp2
S'camera'
p3
S'+2'
p4
ssS'Canon is fixing / replacing but 2 to 3 weeks turn around.'
p5
NsS"Moreover, apart from the plastic cable cover, the camera has a nice, solid feel about it, and it's so tiny, I take it with me wherever I go."
p6
(dp7
S'camera'
p8
S'+2'
p9
ssS'If you use the LCD wisely and dont use it as a TV screen to show all your buddys the girl you went on a date with last night, you should be able to get plenty of shots in on a charge, I have only seen the warning light once, and that was after a week of daily occasional to medium duty use.'
p10
NsS"Lacking a high speed/sports mode is something I'll never understand in a camera of this caliber and price."
p11
NsS'I am still waiting news as to whether I will be charged for the 2nd time.'
p12
NsS'In response to "testing" the LCD through pressure in the center and sides, I am glad that it did not cause any damage.'
p13
NsS"You don't have a shutter or aperture priority mode...so the lack of a high speed program is a total dealbreaker for me."
p14
NsS'A few of my indoor shots could have benefited from a stronger flash, but even those shots were not all that bad.'
p15
NsS'The startup time, quality of pictures and videos is outstanding.'
p16
(dp17
S'pictures'
p18
S'+2'
p19
ssS"i just thought it's cute and cool =)"
p20
NsS'another thing i like about this camera is the way that you can swap colors around and the impressive video quality i would advise any person in the market for a camera to pay the little extra on the hefty $500 price tag and get a quality camera.'
p21
(dp22
S'colors'
p23
S'+3'
p24
sS'video'
p25
S'+3'
p26
ssS'LCD works fine for reviewing images already on the card so it, the LCD, still works, however the camera will not allow new pictures to be taken.'
p27
NsS'My SD500 was kept in a case all the time if not being used.'
p28
NsS'overall build quality, good macros-results, impressive video-quality, good pictures with flash (good colours, sharp results), excellent auto white balance.'
p29
(dp30
S'video-quality'
p31
S'+3'
p32
sS'white balance'
p33
S'+3'
p34
sS'flash'
p35
S'+3'
p36
sS'macros-results'
p37
S'+2'
p38
sS'build'
p39
S'+1'
p40
ssS'Expected better from a $500 unit.'
p41
NsS'Finally a Canon with a setting for Snow White Balance.'
p42
NsS'Unlike many other compact PS cameras this camera has an AF assist lamp essential for focusing in dark areas.'
p43
NsS"For me the colors of the Casio-cameras (Z750, Z50)aren't by far as good as that of the SD500, the pictures looks more artificial and over processed."
p44
NsS"I read all the reviews on cnet, steve's, dpreview and a host of other sites before i decided to buy this camera."
p45
NsS"Personally I love it! It's a definite 10!"
p46
NsS'great picture quality - in automatic mode, quality is great.'
p47
(dp48
S'picture'
p49
S'+3'
p50
ssS'Once I learned how to use the diferent features, it is much easier than my old one to use and view pics.'
p51
NsS'there was no compromise this little camera does amazing things.'
p52
(dp53
S'camera'
p54
S'+2'
p55
ssS'The SD500 rivals the Canon G6 in image quality.'
p56
(dp57
S'image'
p58
S'+2'
p59
ssS'I would not deny that some cameras are not treated with care.'
p60
NsS"shake it a little bit and it'l change the background color. if you've holding the camera horizontally, then it will show the time and date horizontally."
p61
NsS'Very good "every day" camera. Fits nicely in the pocket of my jeans and takes quality photos.'
p62
(dp63
S'camera'
p64
S'+1'
p65
ssS'However, it was not so in my case.'
p66
NsS'A Digic II-powered image-processing system enables the SD500 to snap a limitless stream of 7-megapixel photos at a respectable clip, its start-up time is tops in its class, and it delivers decent photos when compared to its competition.'
p67
(dp68
S'image-processing system'
p69
S'+1'
p70
ssS"I still can't believe how fast it starts up."
p71
(dp72
S'starts up'
p73
S'+3'
p74
ssS'I have been fairly impressed with its ability to capture decent details in low light situations such as theaters, inside a bus at night ect'
p75
NsS'i highly recommend this camera to anybody looking for a compact camera that can take good quality pictures.'
p76
(dp77
S'pictures'
p78
S'+2'
p79
sS'camera'
p80
S'+3'
p81
ssS'Check this one out for yourself for sure!'
p82
NsS'When I went to put in the new SD Card I looked at the LCD Screen -- CRACKED-- and the fluid gave a Jackson Pollock type appearance to the screen, black and blue and purple blotches and streaks --useless.'
p83
(dp84
S'LCD'
p85
S'-1'
p86
ssS'These are some shaky ones I took just after delivery:'
p87
NsS'Placement of the buttons and software user interface is near perfect.'
p88
(dp89
S'buttons'
p90
S'+3'
p91
sS'user interface'
p92
S'+3'
p93
ssS"if you'll only read the whole manual, you'll find out even more cool features and you'll learn how to manipulate the quality you want to achieve and all those modes will make sense after reading"
p94
(dp95
S'features'
p96
S'+3'
p97
ssS'The instruction manuals and documentation are excellent so that the learning curve will be much less steep.'
p98
(dp99
S'instruction'
p100
S'+3'
p101
ssS'I love the camera.'
p102
(dp103
S'camera'
p104
S'+3'
p105
ssS"turn the camera on while pressing the button (or is it the menu button? i have to check again =)) and it'l show you the time and date."
p106
(dp107
S'camera'
p108
S'+1'
p109
ssS'Camera powers on and ready in about a second.'
p110
NsS'On the 60fps setting it seems like a regular video recorder!!'
p111
NsS"i connected my camera to the tv and played some video clips and for a digital camera to take such good quality clips, i give it 5/5 stars =) oh and btw, while you take video clips, you can zoom it too! (digital zoom only though)...but still...(my old one can't do that...you have to zoom it first if you want then take the video clip.)"
p112
(dp113
S'clips'
p114
S'+3'
p115
ssS'To limit lag time, turn off flash or if flash needed, turn off display.'
p116
NsS'In good light and low light the things a champ.'
p117
NsS"Once I have the time, I plan to explore all the high end features of the camera, but for now, I can't comment intelligently or fairly."
p118
NsS'Also as someone who at least knows a little bit about the technical work of taking a photo i really miss having manual controls.'
p119
(dp120
S'manual controls'
p121
S'-1'
p122
ssS"The battery life is not that of the Casio's but its good and your going to get better pictures in my opionion with the battery life youve got."
p123
(dp124
S'battery'
p125
S'+1'
p126
ssS'This is my third digital Elph and it is definitley the best ever.'
p127
NsS'$500 may not be a lot of money for some, but it is for me.'
p128
NsS'All in all, this is the camera for you if you can spare the extra cost in price.'
p129
(dp130
S'camera'
p131
S'+1'
p132
ssS'I post under JTL at dcresource...check out my images if you want to see what this camera can do.'
p133
NsS'I love the rounded edges now, fits so much better in a pocket, jeans or suit.'
p134
(dp135
S'edges'
p136
S'+2'
p137
ssS'So i figured i would "compromise" and get the camera that i could, and would, take everywhere.'
p138
NsS'All were generally favorable but i still had my doubts just because their review is based largely on the kind of photography that they do.'
p139
NsS'Wrong, except that my problems are different.'
p140
NsS'Good color and very little needed to correct photos on Paintshop Pro.'
p141
(dp142
S'color'
p143
S'+3'
p144
ssS'This is a common problem with all ultra compacts, but I think I will probably go out and buy an external flash at some point.'
p145
NsS"(i can't help but play with the camera always)"
p146
NsS'It appears that actual owners of this camera all rate it at a 9 or 10 except for those others who are certainly entitled to their opinions.'
p147
NsS'This camera is perfect for the person who wants a compact camera that produces excellent photos in just about any situation.'
p148
(dp149
S'compact'
p150
S'+2'
p151
sS'photo'
p152
S'+3'
p153
ssS'that u missed in the mirror!'
p154
NsS'Perfect size! Beats the competition by leaps and bounds.'
p155
(dp156
S'size'
p157
S'+3'
p158
ssS'I took it out one day and the LCD was not working.'
p159
(dp160
S'LCD'
p161
S'-2'
p162
ssS'Highly recommended.'
p163
NsS' I went out and got the Canon today.'
p164
(dp165
S'Canon'
p166
S'+2'
p167
ssS'You will not be dissapointed!'
p168
NsS'Check out the other professional reviews for this camera on the web.'
p169
NsS'If you want one you better hurry up - supply is low and demand is high which means prices may go way up!'
p170
NsS'After 57 pictures total the LCD went black except for the icons showing the settings.'
p171
(dp172
S'LCD'
p173
S'-2'
p174
ssS'This camera is truely superb.'
p175
(dp176
S'camera'
p177
S'+3'
p178
ssS"I also tend to like the sliding cover/on switch found on many compact PS cameras since it's much faster and easier to power on if you need to take that instant shot."
p179
(dp180
S'switch'
p181
S'+3'
p182
ssS"it's such a great camera! i think it really was worth the investment =)"
p183
(dp184
S'camera'
p185
S'+1'
p186
ssS'The flash is surprisingly good and even the video quality is excellent.'
p187
(dp188
S'flash'
p189
S'+2'
p190
ssS'I thought given all the "10" reviews about this camera that I would buy it in spite of being a bit pricey.'
p191
(dp192
S'pricey'
p193
S'-1'
p194
ssS"I Was hesitant to rate it a 10 just because it seems so extreme, however I really can't find anything wrong with it."
p195
NsS'After reading reviews of LCD problems, cracked, black blobs etc, I figured that it was probably a very limited problem.'
p196
(dp197
S'LCD'
p198
S'-1'
p199
ssS'However, this ultracompact allows the photographer to personalize his or her shooting preferences through a variety of preset and user definable modes.'
p200
(dp201
S'preset'
p202
S'+3'
p203
sS'user definable'
p204
S'+3'
p205
ssS'Some more manual control would have been nice.'
p206
(dp207
S'manual control'
p208
S'-1'
p209
ssS'if you are looking for a small camera to throw in your pocket, take great pics and video, get the SD500.'
p210
(dp211
S'small'
p212
S'+3'
p213
sS'pics'
p214
S'+3'
p215
ssS'I highly recommend this camera! I can shoot continuous 640x480 60 fps video until my 1gig SD card fills up!'
p216
NsS'totally love this feature...very useful since i love taking pics of my 7-month old baby =)'
p217
NsS'Only downside is when taking pictures in low-light conditions without the flash.'
p218
(dp219
S'low-light conditions'
p220
S'-1'
p221
ssS'Treating my cameras, past and present, with utmost care ensures my investment.'
p222
NsS'The pictures are tack sharp, colors are vivid, and at 7 mega pixels the quality is plenty high to manipulate and crop images to your hearts desire.'
p223
(dp224
S'pictures'
p225
S'+2'
p226
ssS'The Fujifilm F10 is probably the best compact camera for low light (ISO 400 with not much noise, even ISO 800 is relative good).'
p227
NsS'The camera was sitting on my home desk waiting for the new digital card and the weekend for the first round of serious shooting.'
p228
NsS'great video clip quality for a digital camera - so much better than my old one (Canon A60(?)...the 2.0 megapixel one).'
p229
(dp230
S'zoom'
p231
S'+1'
p232
ssS'The CNET review does not give this camera the review it deserves.'
p233
NsS'All the good reviews for the SD500 are true.'
p234
(dp235
S'SD500'
p236
S'+3'
p237
ssS'Fits comfortably in my inside jacket pocket or in my pants pocket.'
p238
(dp239
S'Fits'
p240
S'+2'
p241
ssS'Camera has been treated with kid gloves since day one.'
p242
NsS'Sharper pictures.'
p243
(dp244
S'pictures'
p245
S'+2'
p246
ssS'The only knock I have is that the flash is underpowered.'
p247
(dp248
S'flash'
p249
S'-2'
p250
ssS'Buy it, you will love it.....'
p251
NsS'Never abused.'
p252
NsS'I had G600(6MP) before this one and I noticed big difference in picture quality and performance using SD500.'
p253
NsS'Camera is a paper weight.'
p254
(dp255
S'weight'
p256
S'+2'
p257
ssS'All had the same results.'
p258
NsS'It seems you have to double click some of the time, but not all of the time.'
p259
NsS'Who knows\x85 maybe the service center did a sloppy job in fixing the camera the first time, that it is easily broken.'
p260
NsS' am so glad I bought this camera.'
p261
(dp262
S'camera'
p263
S'+3'
p264
ssS'I did see the review here and other places about a cracked LCD screen.'
p265
(dp266
S'LCD'
p267
S'-1'
p268
ssS'change the orientation to vertical and it will automatically change the time and date orientation too.'
p269
NsS'Otherwise, I would have changed my one-liner to "useless" instead of "flimsy".'
p270
NsS'The controls are hard to manipulate, especially in the dark.'
p271
(dp272
S'controls'
p273
S'-1'
p274
ssS'big lcd screen - at least for me, 2" is enough'
p275
(dp276
S'lcd'
p277
S'+1'
p278
ssS'I Was wrong.'
p279
NsS'I received the SD500 on Monday, charged the battery and inserted the SD card that came with it, took a few pictures and waited until Thursday when the 2 GB SD card came that I had ordered.'
p280
NsS'I did not conduct a rigorous test, but just took some identical shots in identical lighting with both cameras, and the Canon won hands down.'
p281
(dp282
S'Canon'
p283
S'+3'
p284
ssS"This is overall the best point and shoot camera I've used."
p285
(dp286
S'camera'
p287
S'+1'
p288
ssS'The view finder shows crystal clear pictures that will look even better when you get them to the computer.'
p289
(dp290
S'view finder'
p291
S'+3'
p292
ssS'As much as I am happy about this great little camera, it is overshadowed by the fact that the LCD is easily spoilt.'
p293
(dp294
S'LCD'
p295
S'-2'
p296
sS'camera'
p297
S'+3'
p298
ssS"If you want a sharp looking, fast digital camera and you don't need or want manual controls, then this is the camera for you!"
p299
(dp300
S'looking'
p301
S'+2'
p302
sS'fast'
p303
S'+3'
p304
ssS"photo stitch (merge pictures to create a panoramic one..even my old one can do this and it's really cool to have it now still)"
p305
(dp306
S'merge pictures'
p307
S'+1'
p308
ssS'I take a lot of pictures and this camera is my first choice.'
p309
(dp310
S'camera'
p311
S'+3'
p312
ssS'I have called Cannon they are sending me an RFA-- I will let you know if they treat me well or otherwise.'
p313
NsS"If you don't care about manual controls then its for you!"
p314
NsS'I found best results in most situation with manual/center auto focus, manual mode, ISO 100 (shorter aperture-time, so more often sharper images as with ISO 50), auto white balance (auto white balance is better than of the other canon cameras I have and they already do very-well).'
p315
(dp316
S'focus'
p317
S'+1'
p318
ssS'This camera is an excellent choice for an ultracompact, take anywhere device and boasts an outstanding movie mode to boot.'
p319
(dp320
S'camera'
p321
S'+2'
p322
sS'movie mode'
p323
S'+3'
p324
ssS"if you haven't noticed, they designed it so that you can also take vertical pictures when you do the self-timer."
p325
(dp326
S'designed'
p327
S'+2'
p328
ssS'Flash works well for a compact, red eye is a minor problem.'
p329
NsS'Also ensure that the low light focusing LED is pointing at the point you want in focus - and use the focus lock (something the cnet reviewer was obviously not familiar with).'
p330
NsS'Great for 1st time digital camera owners who are learning the "digital" way of the photo taking force (like me) or for the experienced digital photographer who wants a powerful, easy to keep with you at all times camera.'
p331
NsS'We really enjoyed shooting with the Canon PowerShot SD500.'
p332
(dp333
S'SD500'
p334
S'+2'
p335
ssS'I tell you now, after lot of shooting in many different situations, this camera is amazing.'
p336
(dp337
S'camera'
p338
S'+2'
p339
ssS'All I have to say is that the pics I get with my SD500 are both rich and color and high in detail, the user interface is awesome, the battery charger is tiny and super light and SD cards are relatively cheap and getting cheaper all the time.'
p340
(dp341
S'user interface'
p342
S'+2'
p343
sS'battery charger'
p344
S'+2'
p345
sS'pics'
p346
S'+2'
p347
ssS'I have not been this happy about a purchase I have made in a long time.'
p348
NsS'Good image quality.'
p349
(dp350
S'image'
p351
S'+2'
p352
ssS'Some adjustments in the settings could help make it better.'
p353
(dp354
S'settings'
p355
S'-1'
p356
ssS'And it fits right in my pocket much easier than my old S30.'
p357
(dp358
S'fits'
p359
S'+3'
p360
ssS'Although the SD500 takes great quality photos, the sensitivity of the LCD compromises the quality overall.'
p361
(dp362
S'LCD'
p363
S'-2'
p364
ssS'The included software removes any red eye easily.'
p365
(dp366
S'software'
p367
S'+3'
p368
ssS'The disadvantages of this camera is it has been having some trouble with its autofocus on a few occasional pictures, especially quick candid shots where you start up and shot as quick as you can.'
p369
(dp370
S'autofocus'
p371
S'-2'
p372
ssS"But believe me, it's well worth it."
p373
NsS'you can take pictures seconds after you turn the camera on...literally!'
p374
(dp375
S'pictures'
p376
S'+1'
p377
ssS"digital zoom is clear too...say you used all 3x optical zoom, try to do digital zoom then...just try not to shake the camera at all and you'll still get a clear good quality picture"
p378
(dp379
S'zoom'
p380
S'+1'
p381
ssS'This camera takes amazing pictures and its size cannot be beat.'
p382
(dp383
S'pictures'
p384
S'+3'
p385
sS'size'
p386
S'+3'
p387
ssS'As any digital camera owner knows is that when you go to take a picture of a moving object to expect some blurring but with some preliminary testing we had somone move there hands back and forth under the lense and another person take the picture and suprisingly a crystal clear image apeared on the decently sized screen.'
p388
(dp389
S'image'
p390
S'+2'
p391
ssS'Very fast powerup and great speed when taking multiple pictures.'
p392
(dp393
S'powerup'
p394
S'+2'
p395
sS'multiple pictures'
p396
S'+3'
p397
ssS"as a whole, i say, it's way more than what i expected."
p398
NsS"I bought this camera two days ago, and I'm very pleased to say that it has been worth the money."
p399
(dp400
S'camera'
p401
S'+2'
p402
ssS'The SD500 software install was seamless and the product documentation is very detailed.'
p403
(dp404
S'documentatio'
p405
S'+2'
p406
sS'software'
p407
S'+1'
p408
ssS'Stored in a padded case.'
p409
NsS"I like to take pictures when I Go out at night and perhaps some people would complain that noise levels are high at higher iso's but I don't really care that much, i think it gives the pictures a certain real-life quality."
p410
(dp411
S'pictures'
p412
S'+2'
p413
ssS"i don't know if i just got used to my A60 or it's just really not that loud."
p414
NsS"It has an exterior design that combines form and function more elegantly than any point-and-shoot we've ever tested."
p415
(dp416
S'design'
p417
S'+2'
p418
ssS'The pictures tend to get blurry due to longer exposure, but his can be disabled in the manual settings.'
p419
NsS'I am impressed with this camera inside and out.'
p420
(dp421
S'camera'
p422
S'+1'
p423
ssS'start up is so quick \x96'
p424
(dp425
S'start up'
p426
S'+3'
p427
ssS"The only problem I have with the buttons is that the power button and print/share button don't have a nice click."
p428
(dp429
S'power button'
p430
S'-1'
p431
ssS'Almost no lag between button activation and shutter.'
p432
NsS'I can accept a little purple fringing on the ocassional difficult shot.'
p433
NsS'My SD500 focuses flawlessly, does not "whine" during video, and my pictures are razor sharp.'
p434
(dp435
S'focuses'
p436
S'+2'
p437
ssS" battery life is not long enough IF and ONLY IF you take a lot of video clips and play it back on the camera a lot of times...the camera/battery gets a little bit warm too when you use it for a long time but it's normal."
p438
(dp439
S'battery'
p440
S'-1'
p441
ssS'The photo quality is amazing.'
p442
(dp443
S'photo'
p444
S'+3'
p445
ssS'I have showed the pictures I have taken to many of my colleagues, alot of whom have expensive dslrs.'
p446
NsS'I use "get ready" and "here it comes".'
p447
NsS'When I was initially looking for a camera I thought that picture quality was my number one priority, however picture quality aint worth nothin if you leave the camera at home.'
p448
NsS"I'd be happy to talk to anyone about this camera."
p449
(dp450
S'camera'
p451
S'+1'
p452
ssS'I have a Canon A 70 , and now this SD500, its amazing, how this little camera produces, such great pics, it even brings out ur pimples on the face.'
p453
(dp454
S'pics'
p455
S'+1'
p456
ssS'I have had the SD500 for less than one week.'
p457
NsS'I still have my s70 because I like the wider lens sometimes, but in general, if you are looking for a small camera with the whole package, the sd500 is the only one you should buy.'
p458
(dp459
S'sd500'
p460
S'+3'
p461
ssS'Also, multiple picture feature is very, very fast.'
p462
(dp463
S'multiple picture'
p464
S'+3'
p465
ssS"they made the other end of the camera flat so you can put the camera upright on a flat surface if you don't like to take the usual horizontal pictures using the self-timer."
p466
(dp467
S'made'
p468
S'+2'
p469
ssS'The first time, I paid $165 (excluding shipping) to have it fixed by Canon Service Center.'
p470
NsS'the sound is not loud enough when i play back the video clips on the camera.'
p471
(dp472
S'sound'
p473
S'-1'
p474
ssS'and even after the warning i had enough juice left to finish the evening with.'
p475
NsS'Having the Digic II chip helps a lot.'
p476
(dp477
S'Digic II chip'
p478
S'+3'
p479
ssS"I can't comment on most of the manual features of the camera because I've been shooting in auto mode, but based on my experience so far, manual adjustment, while available, won't be needed for most of the shots I will be taking."
p480
NsS"it's fast, feels great in your hand and looks great too."
p481
(dp482
S'feels'
p483
S'+3'
p484
sS'looks'
p485
S'+3'
p486
ssS"I've printed several photos and the prints look as good as the screen views."
p487
(dp488
S'prints'
p489
S'+3'
p490
ssS'If you on the other hand always use automatic settings (and not manual) you should be just fine, as the camera features some of the best automatic settings I have ever seen.'
p491
(dp492
S'automatic settings'
p493
S'+2'
p494
ssS'you can set the optical zoom before shooting and than while shooting video adjust a digital zoom in and out however due to the cameras light weight Camera shake is a problem to contend with.'
p495
(dp496
S'Camera shake'
p497
S'-2'
p498
ssS'This camera is bulletproof.'
p499
(dp500
S'camera'
p501
S'+2'
p502
ssS'There were many times when I clicked the automatic shutter and nothing happens.'
p503
(dp504
S'automatic shutter'
p505
S'-3'
p506
ssS'Get the Ultra SD card which allows very quick turnaround on shots.'
p507
NsS'The manual is excellent.'
p508
(dp509
S'manual'
p510
S'+3'
p511
ssS'If you want something resembling a REAL and professional review before plunking down your $500.00, I suggest going to dpreview or dcresource and reading the reviews there.'
p512
NsS'More detail. More natural color.'
p513
NsS'They say that they are the best pictures they have ever see from a compact.'
p514
(dp515
S'pictures'
p516
S'+3'
p517
ssS'I figured that the few people who reported that the LCD screen cracked on them was episodic and it would never happen to me.'
p518
NsS'I upgraded from a very small 3.2 mpxl camera to this camera with great results.'
p519
(dp520
S'camera'
p521
S'+1'
p522
ssS"but it's good enough since i upload them to the computer anyway (and sound is good too once you view it on the computer/tv)."
p523
NsS"And shooters in low light should either select the iso manually and/or make sure that they don't shake much, as the camera's chip goes for detail over smoothness."
p524
NsS'The camera responce is VERY quick.'
p525
(dp526
S'responce'
p527
S'+3'
p528
ssS"I sincerely question the CNET reviewer's ability and/or their bias."
p529
NsS'Powerup is quick, and you can even set your favorite image to display for a second or so as it turns on.'
p530
(dp531
S'Powerup'
p532
S'+2'
p533
ssS"I've had it for about a month and it is simply the best point-and-shoot your money can buy."
p534
NsS'I also own a Canon Digital Rebel and I agree that the advanced controls on the SD500 are not as robust, but overall picture quality goes head-to-head with the Digital Rebel.'
p535
(dp536
S'advanced controls'
p537
S'-1'
p538
ssS'I have see impressive pictures of this camera but also some who are not as detailed as of the Ixus SD500.'
p539
NsS'As it turns out, this is an awesome camera!'
p540
(dp541
S'camera'
p542
S'+2'
p543
ssS'when you learn how to change some settings, you can make the quality even better'
p544
(dp545
S'quality'
p546
S'+2'
p547
ssS'If you like to take a look at some pictures shot with this camera by a mediocre photographer please feel fee to check out my picture page at http://community.webshots.com/user/mbs60099'
p548
NsS'Neat feature for self-timer allows you to record two different warnings.'
p549
(dp550
S'Picture'
p551
S'+1'
p552
ssS"I don't know why CNET says there is a problem with focus, I have all my pictures sharp and high quality."
p553
(dp554
S'pictures'
p555
S'+2'
p556
ssS"i forgot to mention about the camera's design."
p557
NsS'CNET unfortunately is greatly underrating this camera in its editorial review.'
p558
NsS'The buttons are rather stiff.'
p559
(dp560
S'buttons'
p561
S'-2'
p562
ssS'And the video quality is amazing.'
p563
(dp564
S'video'
p565
S'+3'
p566
ssS'In low light with flash I found it clear better then the sony P200 (too much red, colours overall not as natural but fewer red-eyes).'
p567
(dp568
S'flash'
p569
S'+3'
p570
ssS'But if you want a pocket camera to use when you cant take your Digital SLR with you that will capture quality images this is your choice of camera.'
p571
NsS'Tried multiple cards both fast and slow speeds and different batteries.'
p572
NsS'Bottom line, this camera will give you a lot of bang for the buck!'
p573
(dp574
S'camera'
p575
S'+1'
p576
ssS'I have especially enjoyed the 640x480 mode, while not a replacement for a dedicated video camera, its quality easily surpasses that of my old Hi-8 camera and is perfect for quick clips of things that still images just dont describe (max 8 mins at 640 30fps on a one gig card).'
p577
(dp578
S'640x480 mode'
p579
S'+2'
p580
sS'quality'
p581
S'+2'
p582
ssS"It powers up quickly, so you won't miss that quick shot."
p583
(dp584
S'powers up'
p585
S'+3'
p586
ssS"I've taken about hundred shot with the Canon, in varying lighting situations, all in auto mode, and not one blurry picture!!!"
p587
(dp588
S'picture'
p589
S'+3'
p590
ssS'I thought this camera was awful and I did tons of research on CNET and other sites.'
p591
(dp592
S'camera'
p593
S'-1'
p594
ssS'The quality, detail and clarity is much better than the Sony in my opinion.'
p595
(dp596
S'Sony'
p597
S'-2'
p598
sS'quality'
p599
S'+2'
p600
ssS'Could be better to be a perfect camera (and some competitors do some of this better): purple fringing, details in high-light area, noise over ISO100, red-eyes, (few)processing artefacts, (few)loss of some details especially of the hairs of peoples in low light, automatic autofocus, whizing while video-playback, better video comression (smaler viedo-files), more manual controls, longer lasting battery, indicator for battery, better protection of the LCD, less weight.'
p601
(dp602
S'camera'
p603
S'+1'
p604
ssS'The LCD screen is too small since there are so many cameras that have larger ones.'
p605
(dp606
S'LCD'
p607
S'-2'
p608
ssS'Also make sure you pick up a good high speed SD card like the SanDisk Ultra 2.'
p609
NsS'CNET told you not to look for advanced controls.'
p610
NsS"I don't miss the high speed program, nor the manual overide, since I had read numerous reviews and specs. before I ordered."
p611
NsS'When the overall image quality (especially natural colours, details, natural looking of the pictures) is the most important thing, then this camera ist top notch and very impressive.'
p612
(dp613
S'image'
p614
S'+1'
p615
sS'camera'
p616
S'+2'
p617
ssS'WOW! Big difference!'
p618
NsS'Glad to see the Ed. revised the previous statements regarding image quality.'
p619
(dp620
S'image'
p621
S'+2'
p622
ssS'I expected more from a 7MP sensor and a Digic II processor.'
p623
NsS'It was NOT dropped or sat on or subjected to any other trauma -- it just sat on my desk in my home office \x96 where no one goes but me.'
p624
NsS'Huh? I missed out on lots of photos and lots and lots came back blurry.'
p625
NsS'The size of the camera is perfect.'
p626
(dp627
S'size'
p628
S'+2'
p629
ssS'Sometimes indoor with poor light you can notice small noise.'
p630
NsS'An A++!!!'
p631
NsS'I would imagine this is a problem with any camera of a compact nature.'
p632
(dp633
S'compact'
p634
S'-1'
p635
ssS'I have been very impressed with my purchase of the SD500 I bought it at the beginning of the month as the ultimate pocket camera and have shot 300 images so far with it.'
p636
(dp637
S'SD500'
p638
S'+3'
p639
ssS'The SD500 has only been in my possession for a little over 3 months, and the LCD has been broken twice.'
p640
(dp641
S'LCD'
p642
S'-2'
p643
ssS'The Canon is very small, definitely pocket size, but still easy to hold firmly.'
p644
(dp645
S'size'
p646
S'+3'
p647
ssS'Audio is mono and fairly acceptable, quiet also with little distortions.'
p648
(dp649
S'Audio'
p650
S'+1'
p651
ss.