(dp0
S"I just went on a quick photo shoot in NYC's  Central Park today, and what a bunch of beautiful photos I took, if I do  say so myself (and I do!)"
p1
(dp2
S'photos'
p3
S'+2'
p4
ssS'3- USB kicks!'
p5
NsS'Exposure compensation in 1/3 stop increments (I leave it set on +1/3 stop to brighten up the default exposure, which goes a bit dark for my taste).'
p6
(dp7
S'Exposure'
p8
S'+1'
p9
ssS'However, in dark settings you must use the viewfinder.'
p10
NsS"It's so small and light, even with a spare battery, you really can take it anywhere."
p11
(dp12
S'small'
p13
S'+3][u'
p14
sS'light'
p15
S'+3][u'
p16
ssS'Thank you Santa!'
p17
NsS'Hate to wait between shots'
p18
(dp19
S'wait'
p20
S'+2'
p21
ssS'However, I do have a few things to complain about...'
p22
NsS'This camera uses a lithium battery, I find lithium batteries to be highly inconvenient; because what if you are on vacation, where the nearest place to buy batteries is just a gas station--there is no way that you are going to find lithium batteries there.'
p23
(dp24
S'battery'
p25
S'-2'
p26
ssS"When taking pictures of people, however, it shows EVERY flaw in the subject's skin."
p27
(dp28
S'pictures of people'
p29
S'-3'
p30
ssS'Well wait no more!'
p31
NsS"It's still one of the smallest 2MP digital cameras on the market, and absolutely one of the best-built most stylish cameras ever."
p32
(dp33
S'smallest'
p34
S'+3'
p35
sS'best-built'
p36
S'+3'
p37
ssS'I put a 128MB CF card in it.'
p38
NsS'This is the only camera with all these capabilities.'
p39
NsS'The camera is solid, performs well, takes good pictures, and the battery lasts pretty long if you disable the LCD viewfinder.'
p40
(dp41
S'battery'
p42
S'+1'
p43
sS'picture'
p44
S'+2'
p45
sS'camera'
p46
S'+1'
p47
sS'performs'
p48
S'+1'
p49
ssS"In practice, we've been VERY happy with the results."
p50
NsS'It is hot enough to be annoying.'
p51
(dp52
S'hot'
p53
S'-2'
p54
ssS"I've had this camera just over 2 years and it takes pretty good pictures."
p55
(dp56
S'pictures'
p57
S'+2'
p58
ssS'I had been waiting for the prices of digital cameras to come down before  taking the plunge.'
p59
NsS'While this might seem pricy, I have been spending $27 for 25 APS images, with prints and a CD, so this camera will pay for itself in a year.'
p60
NsS'Positives:'
p61
NsS"I'm still  learning about file sizes (and how large is too large to email), and I did  erase one photo I wanted to keep as I was getting used to the menu system."
p62
NsS'The size is tiny, which I love.'
p63
(dp64
S'size'
p65
S'+3'
p66
ssS'Even with the waterproof housing it is small.'
p67
(dp68
S'small'
p69
S'+2'
p70
ssS'We bought extra memory and a backup battery (so we can use one while the other is charging).'
p71
NsS"My only complaint and the reason I gave it 4 stars instead of 5 is that the on-camera controls aren't as intuitive as they should be."
p72
(dp73
S'on-camera controls'
p74
S'-1'
p75
ssS'I discovered that the camera has a manual mode that gives you total control over exposure, white balance, flash (red eye, person against bright background, flash on, flash off, flash automatic).'
p76
(dp77
S'manual mode'
p78
S'+3'
p79
ssS'These are all the flaws I found in the camera,'
p80
NsS"I was looking for something that wasn't too complicated to use and to help the pics I post on Ebay show more detial."
p81
(dp82
S'picture detail'
p83
S'+2][u'
p84
sS'ease of use'
p85
S'+2][u'
p86
ssS'The pictures are a little dark sometimes.'
p87
(dp88
S'pictures'
p89
S'-1'
p90
ssS'I have been absolutely, completely satisfied with the product and its capabilities.'
p91
(dp92
S'product'
p93
S'+3'
p94
ssS"Really dissapointing. If you are inside, you can't be any farther away then 10 feet in a lit room."
p95
NsS'The Apple was actually better in two repects: it turned-on quickly and it showed you what you just shot right after you shot it.'
p96
NsS'All the features are incredibly intuitive, even for a novice like me.'
p97
(dp98
S'features'
p99
S'+3'
p100
ssS'The white-LED backlit LCD is very bright and crisp, even in sunlight, and relatively easy on the battery.'
p101
(dp102
S'LCD'
p103
S'+1'
p104
ssS"I was a little skeptical about what people had said about this camera, because it's just so small."
p105
NsS"It's overkill for simple snapshots, unless you've got way too much money to blow."
p106
(dp107
S'snapshots'
p108
S'+1][cc'
p109
ssS'I had a regular Canon Elph (APS), as well as a JVC digital camera.'
p110
NsS'Another problem I had with this camera was the zoom function.'
p111
(dp112
S'zoom'
p113
S'-2'
p114
ssS'8- Buttons are little, but If you have steady fingers and dealed with a casio wirst calculator watch, you can deal with almost anything.'
p115
(dp116
S'buttons'
p117
S'-1'
p118
ssS"I'd give it  5 stars if the automatic modes were better and if there were true manual focus and exposure modes."
p119
(dp120
S'automatic modes'
p121
S'-1'
p122
ssS'The PhotoStitch software is very cool if you want to do any 360 degree panorama shots.'
p123
(dp124
S'software'
p125
S'+2'
p126
ssS'It fits in your pocket.'
p127
(dp128
S'fits'
p129
S'+2'
p130
ssS'The zoom function on this camera is so loud that sometimes you will be unable to use it if you find yourself in a situation where you must be quiet.'
p131
(dp132
S'zoom'
p133
S'-2'
p134
ssS'Sometimes the pictures are onthe dark side, but I\'m able to fix that using the Photoshop 6.0 "adjust levels" function ... not sure how a person would do that without Photoshop, though.'
p135
(dp136
S'pictures'
p137
S'-1'
p138
ssS'I am no computer expert, and this is my first (and probably last) digital camera.'
p139
NsS'The auto color balance is often fooled by dense clouds.'
p140
(dp141
S'auto color balance'
p142
S'-1'
p143
ssS'6- Small but very clear TFT screen.'
p144
(dp145
S'TFT screen'
p146
S'+1'
p147
ssS'I, as many others, have waited for many years for the convergence of price, features, size and ease of use to hit that happy center point.'
p148
(dp149
S'price'
p150
S'+2'
p151
sS'ease of use'
p152
S'+2'
p153
sS'features'
p154
S'+2'
p155
sS'size'
p156
S'+2'
p157
ssS'I researched digital cameras for a month before purchasing the s100...'
p158
NsS'But otherwise I am thrilled to have taken the plunge into digital  photography.'
p159
NsS"Canon says it's normal."
p160
NsS'1600x1200 means really good, cropped 5x7 prints and acceptable 8x10s.'
p161
NsS"And there are two more advantages to digital photography  which I hadn't anticipated, beyond the lack of film and developing."
p162
NsS"So, why the small Digital Elph, rather than one of the other cameras with better resolution or picture quality? size[+2]##because, unless it's small, I won't cary it around."
p163
(dp164
S'size'
p165
S'+1'
p166
ssS'I have come across many other beginner cameras that I prefer over this camera, but the thing you have to keep in mind about this camera is the size.'
p167
(dp168
S'size'
p169
S'+2'
p170
ssS'Take quick pictures with excelent resolution'
p171
(dp172
S'pictures'
p173
S'+2'
p174
ssS'But it takes gorgeous pictures for a 2.1 MP camera.'
p175
(dp176
S'pictures'
p177
S'+3'
p178
ssS'The manual modes give you a lot of control over exposure and white balance (but there is no manual focus or manual exposure).'
p179
(dp180
S'manual modes'
p181
S'+1'
p182
ssS'My last digital camera was the Canon Powershot A5 Zoom, which I liked  quite a bit.'
p183
NsS"I would recommend getting a larger Compact Flash card, because once you start taking pictures, you won't want to stop."
p184
NsS"This camera is great if you're used to a high-end SLR."
p185
(dp186
S'camera'
p187
S'+2][cc'
p188
ssS'I give this product five stars for its usability,performance, expandability, and definitely looks!'
p189
(dp190
S'performance'
p191
S'+2'
p192
sS'expandability'
p193
S'+2'
p194
sS'looks'
p195
S'+3'
p196
sS'usability'
p197
S'+2'
p198
ssS'The movie mode can only record a max of 30 seconds at 160X120 per clip and a max of 4 seconds at 640X480.'
p199
(dp200
S'movie mode'
p201
S'-1'
p202
ssS'This IS the best camera you can have for digital images if you want to:'
p203
(dp204
S'camera'
p205
S'+3'
p206
ssS'The digital zoom is crap.'
p207
(dp208
S'zoom'
p209
S'-3'
p210
ssS'One of my friends was going on and on about his camera and how fancy it was.'
p211
NsS"it's not my first choice in cameras,"
p212
(dp213
S'cameras'
p214
S'-1][cc'
p215
ssS'With the camera I also bought a 128MB compact flash card, an extra battery, and a carrying case.'
p216
NsS'A 64mb card stores approximately 100 pictures at default resolution (ie between 500k and 1.5mb per picture).'
p217
NsS'Even just turning the camera on will move the lens a little, resulting in a noisy start-up.'
p218
(dp219
S'start-up'
p220
S'-2'
p221
ssS"The picture quality of this camera is outstanding (taking its' size and price into consideration)."
p222
(dp223
S'picture'
p224
S'+3'
p225
ssS'If battery life were that big a deal, one could purchase a second battery and rotate.'
p226
NsS'Really like them,  they work well and the macro function of the 2500 really helps my Ebay biz.'
p227
NsS'The price is $... more.'
p228
(dp229
S'price'
p230
S'-1][cs'
p231
ssS'At any rate, if you have been interested in  digital photography but the price and confusion have held you back,  consider the Canon S100 Digital Elph.'
p232
(dp233
S'S100'
p234
S'+2'
p235
ssS'The results are superb...  both in print and over the computer.'
p236
NsS" the only thing I don't like about it is that You have to buy a larger memory card, first thing!"
p237
(dp238
S'memory'
p239
S'-2][s'
p240
ssS"The only thing I don't like is the small size (8 MEG) memory card that comes with it."
p241
(dp242
S'memory'
p243
S'-2'
p244
ssS'It has one more resolution of 1024X768 and a "Normal" compression mode.  And, it has the 3X zoom.'
p245
(dp246
S'mode'
p247
S'+2][cs'
p248
ssS'The  ELPH will do the latter but you must hold down the shutter button to view  it.'
p249
NsS'The optical and digital zooms combine to give an effective 4x zoom.'
p250
(dp251
S'zoom'
p252
S'+1'
p253
ssS'It really is the perfect travel  camera, plus it offers the convenience of digital photography.'
p254
(dp255
S'camera'
p256
S'+2'
p257
ssS'3) The lack of an intermediate resolution setting, as other reviewers have suggested, is a problem, but that problem is meaningless with a larger CompactFlash memory card'
p258
(dp259
S'resolution setting'
p260
S'-1'
p261
ssS'I have 2 batteries and a 128 mb card.'
p262
NsS'1) It is perhaps too small.'
p263
(dp264
S'small'
p265
S'-1'
p266
ssS'I said, can your fancy camera do that?'
p267
NsS"I bought this camera for the same reason many of you are considering it, or have already bought it--it's size."
p268
(dp269
S'size'
p270
S'+2'
p271
ssS'I got this camera for an unbelievably low price at amazon.'
p272
(dp273
S'camera'
p274
S'+3'
p275
ssS'The camera does a great job with exposure and prints made with my professional printer looks great (not as good as prints from my pro digital camera, but still VERY good).'
p276
(dp277
S'prints'
p278
S'+2][cc'
p279
sS'exposure'
p280
S'+2'
p281
ssS'The good:  Small size; durable-seeming metal case; easy to use; visually distinctive; good picture quality; fast USB connection; mostly intuitive operation; really cool PhotoStitch software that knits pictures together to give wide panoramas.'
p282
(dp283
S'use'
p284
S'+2'
p285
sS'software'
p286
S'+2'
p287
sS'metal case'
p288
S'+1'
p289
sS'picture quality'
p290
S'+1'
p291
sS'size'
p292
S'+2'
p293
ssS'First off, the battery.'
p294
(dp295
S'battery'
p296
S'-2'
p297
ssS'4- Looks great.'
p298
(dp299
S'Looks'
p300
S'+1][u'
p301
ssS"I'm in high school, and this camera is perfect for what I use it for, carrying it around in my pocket so I can take pictures whenever I want to, of my friends and of funny things that happen."
p302
(dp303
S'camera'
p304
S'+3'
p305
sS'size'
p306
S'+2'
p307
ssS'Buttons size is OK for me, my wife, but not my grany.'
p308
(dp309
S'buttons'
p310
S'-1'
p311
ssS'I started shooting even before reading the manual (not recommended at all).'
p312
NsS'What else can I say?'
p313
NsS'I take my camera everywhere.'
p314
NsS"I purchased this camera before it went on sale, and while I wouldn't have minded keeping the extra $$$, it was definitely worth it."
p315
(dp316
S'camera'
p317
S'+3'
p318
ssS"I must say, I think this is the coolest camera I've ever  owned!"
p319
(dp320
S'camera'
p321
S'+3'
p322
ssS'I have found it gets less warm with the LCD off.'
p323
NsS'This wonderfully small digital camera produces fantastically good pictures printed on any decent photo-quality printer (with photo quality paper).'
p324
(dp325
S'small'
p326
S'+3'
p327
sS'pictures'
p328
S'+3'
p329
ssS'You willdefinitly appreciate the small size.'
p330
(dp331
S'size'
p332
S'+3'
p333
ssS"It's a little jewel."
p334
NsS'Another is the ability to upload images from your PC to a memory  card in the camera.'
p335
NsS'I especially like the way that ZoomBrowser EX lets you look at a virtual filmstrip of your pictures.'
p336
NsS'I have found however that you can just buy a card reader to solve this problem.'
p337
NsS"I've got a couple of digital cameras."
p338
NsS'This is a great product, and Canon has done an excellent job.'
p339
(dp340
S'product'
p341
S'+3'
p342
ssS'First, it really is tiny; the size of a pack of cigarettes, maybe  a scooch deeper.'
p343
(dp344
S'size'
p345
S'+3'
p346
ssS'You need to use the manual exposure adjustment in backlight or bright light conditions such as with snow in the background.'
p347
NsS"It's the same body as the popular ELP2 APS camera (take a look at a standard credit card from your wallet and you'll have an idea of the front profile!)."
p348
(dp349
S'body'
p350
S'+2][cs'
p351
ssS"This isn't uncommon in cameras, though, just as long as you bring your charger and spare batteries, you should be fine."
p352
(dp353
S'batteries'
p354
S'-1'
p355
ssS'I was looking for a compact, rugged (I carry it hiking, skiing, boating, etc) camera which is easy to use.'
p356
(dp357
S'compact'
p358
S'+1][u'
p359
sS'use'
p360
S'+1'
p361
sS'rugged'
p362
S'+1'
p363
ssS'The flash is very weak.'
p364
(dp365
S'flash'
p366
S'-2'
p367
ssS'price[-1][u]I bought it new, when it was cutting edge and very expensive.'
p368
NsS'(I got a 64 meg card for $... and it holds 105 pics at 1600 x 1200 res).'
p369
NsS'I purchased the Elph s100 mainly because I thought it was cool.'
p370
(dp371
S'Elph s100'
p372
S'+2'
p373
ssS'I have used this camera for about 3 weeks so far, taking over 500 pictures.'
p374
NsS'Good quality and fun!'
p375
NsS"The software has been installed on Windows 95, 98, 2000 and XP and I haven't had any problems with it."
p376
(dp377
S'software'
p378
S'+2'
p379
ssS'i researched and researched between getting the canon s20 or the canon s100, and of course i got the latter!'
p380
(dp381
S'canon s100'
p382
S'1][cc'
p383
ssS"Very easy to use for someone like me who's just hopping on the digital camera bandwagon."
p384
(dp385
S'ease of use'
p386
S'+3'
p387
ssS'I wrote another review and this is the update.'
p388
NsS'The viewfinder does not accurately represent the pucture being taken.'
p389
(dp390
S'viewfinder'
p391
S'-2'
p392
ssS'The two-times optical zoom operates smoothly  and quietly, and lo and behold, a two-piece shutter-like cap automatically  slides closed over the lens when you turn the camera off.'
p393
(dp394
S'optical zoom'
p395
S'+2'
p396
sS'cap'
p397
S'+1'
p398
ssS'This is a great source of personal entertainment for  travelers, if you catch my drift, and you can zoom in on the LCD images!'
p399
NsS'Before you give up on digital cameras, though, ask yourself a few questions:'
p400
NsS'5- Excelent software package.'
p401
(dp402
S'software'
p403
S'+3'
p404
ssS'But this DOES work even if you turn off the LCD viewing -- great  battery saver.'
p405
(dp406
S'battery'
p407
S'+2'
p408
ssS"I don't believe this camera is still available. But if you can find one, you might like to get it."
p409
(dp410
S'camera'
p411
S'+1'
p412
ssS'I have a 35mm camera outfit that cost quite a bit of money a few years ago.'
p413
NsS'The pictures are beautiful, and the camera is so small you can carry it anywhere.'
p414
(dp415
S'pictures'
p416
S'+3'
p417
sS'size'
p418
S'+3'
p419
ssS"The zoom range is a little narrow (35-70mm in 35mm film equivalent), but given that the camera is the same as my wallet, I can't think of any real complaint."
p420
(dp421
S'zoom range'
p422
S'-1'
p423
sS'small'
p424
S'+2'
p425
ssS'Definitely a good investment.'
p426
NsS'The dynamic range seems not quite as good as the Kodak DC260.'
p427
(dp428
S'dynamic range'
p429
S'-1][cc'
p430
ssS'End of story.'
p431
NsS'I love this camera.'
p432
(dp433
S'camera'
p434
S'+3'
p435
ssS"This camera is so light and tiny that I literally carry it everywhere with me, which is great considering I'm an artist and like to capture interesting items for future painting."
p436
(dp437
S'light'
p438
S'+3][u'
p439
sS'tiny'
p440
S'+3][u'
p441
ssS"I'd suggest that you not only buy this camera, but the case for it and an extra battery pack."
p442
NsS'The pictures are uniformly excellent and color rendering is perfect.'
p443
(dp444
S'pictures'
p445
S'+3'
p446
sS'color rendering'
p447
S'+3'
p448
ssS'Have a great and easy to use bundled software'
p449
(dp450
S'bundled software'
p451
S'+2'
p452
ssS'I love this camera!'
p453
(dp454
S'camera'
p455
S'+3'
p456
ssS'This camera is great, wonderfully small, and has attactive hi-tech casing.'
p457
(dp458
S'casing'
p459
S'+2'
p460
sS'size'
p461
S'+3][u'
p462
ssS'I wanted standard memory expansion (CF cards), macro mode, and if possible, a waterproof housing (for kayaking).'
p463
(dp464
S'memory expansion'
p465
S'+1'
p466
sS'housing'
p467
S'+1'
p468
sS'macro mode'
p469
S'+1'
p470
ssS'The Adobe software also was wonderful in 98 but it will not let you print correctly with XP so you are forced to create your document then either print it from Windows or export it to another application.'
p471
(dp472
S'software'
p473
S'-2'
p474
ssS'I want to start off saying that this camera is small for a reason.'
p475
(dp476
S'small'
p477
S'+1'
p478
ssS"The lens retracts and has its own metal cover so you don't need to fuss with a lens cap."
p479
(dp480
S'lens'
p481
S'+1'
p482
ssS'My last digital camera was an Apple QuickTake 200, which shot 640x480 pixel images.'
p483
NsS'The front even has a zipper for an extra battery and your wallet stuff.'
p484
NsS"Other than that pictures taken in the dark are not as nice as I'd like them,"
p485
(dp486
S'pictures'
p487
S'-2'
p488
ssS"My first impression of Elph S100 was that there couldn't POSSIBLY be room in the thing for anything other than a battery and a memory card."
p489
NsS'The picture quality surprised me, when I first saw this camera I saw how small it was an instantly assumed that the picture quality would not be good--but I was wrong!'
p490
(dp491
S'small'
p492
S'+2'
p493
sS'picture'
p494
S'+3'
p495
ssS'I was looking for a blend of the two and so I bought this camera.'
p496
NsS'9- Cons? Not a single one after 5 months.'
p497
NsS'I bought this little guy a few weeks back, and I have to saythat I never had so much fun with a new toy as this.'
p498
(dp499
S'fun'
p500
S'+3'
p501
ssS'If compact size is your highest priority in a 2-megapixel camera, the Canon PowerShot S100 Digital Elph is a standout choice and aptly named for its diminutive design.'
p502
(dp503
S'S100'
p504
S'+1'
p505
sS'size'
p506
S'+3'
p507
ssS'I just took it out of the box, charged the battery, and started taking pictures.'
p508
NsS'I find it a bit difficult to manage the very tiny buttons and impossible to read the icons without my reading glasses on.'
p509
(dp510
S'buttons'
p511
S'-2'
p512
sS'read'
p513
S'-2'
p514
ssS"While he was talking, I took my S100 out of the front pocket of my Levi's and took his picture."
p515
NsS"FYI, Battery doesn't die if you don't use LCD"
p516
(dp517
S'Battery'
p518
S'+1'
p519
ssS'The software that comes with the Digital Elph is very nice and intuitive.'
p520
(dp521
S'software'
p522
S'+2'
p523
ssS"All the camera's functionality is only available (or selectable) when the screen is functional."
p524
(dp525
S'functionality'
p526
S'-2'
p527
ssS'Turn-on to ready-to-shoot is about 3 seconds.'
p528
NsS"BUT they are big cameras,  they have to reside in a large case,  they need all kinds of batteries,  in short they're a pain to lug around."
p529
NsS'It requires extensive Photoshopping to fix the flaws.'
p530
NsS'Recently I was at dinner with some friends, and we were debating the merits of one digital camera vs. another.'
p531
NsS'But I was ready to upgrade and when I discovered that Canon  was going to come out with an even smaller digital camera with a higher  resolution, I had to have the S100.'
p532
(dp533
S'smaller'
p534
S'+1'
p535
sS'resolution'
p536
S'+1'
p537
ssS"I've been taking near 100 pictures per month since I got mine."
p538
NsS"I've had a lot of cameras, but this one is ACTUALLY being used, and not stored in a desk: it's allways in my shist pocket."
p539
(dp540
S'cameras'
p541
S'+2][cc'
p542
ssS'The panorama setting is unbelieveable !'
p543
(dp544
S'panorama setting'
p545
S'+3'
p546
ssS'This is due to the unusually slow autofocus system.'
p547
(dp548
S'autofocus'
p549
S'-2'
p550
ssS'You can take it anywhere withyou, unlike other bulky cameras, and capture every moment of yourlife.'
p551
NsS'I then realized a major design flaw.'
p552
(dp553
S'design'
p554
S'-2'
p555
ssS'This year, with a cruise to Nova Scotia coming in  August, I decided the time was right and just purchased a Canon S100  Digital Elph.'
p556
NsS'1- Small.'
p557
(dp558
S'Small'
p559
S'+1'
p560
ssS"I'm going to buy a real Single-Lens Reflex (SLR) to take baby pictures, but I'll keep this as a travel camera."
p561
NsS'Other cameras taking pics of the same subjects turn out looking much better.'
p562
(dp563
S'pics'
p564
S'-2][cc'
p565
ssS'An Olympus 2500 and an Olympus 620.'
p566
NsS'Turn it off.'
p567
NsS'The closest competitor is the SONY DSC-P1 (3.3mp).'
p568
NsS'But that camera is a little larger and you defeat the whole purpose of having a truly portable camera.'
p569
NsS'On a battery charge, the camera takes approximately 70 pictures, where the camera is opened and closed between pictures.'
p570
NsS'A 2X optical zoom (you can pretty much ignore any time a  manufacturer refers to "digital zoom")'
p571
NsS'Really like it, easy to use, great images, very intuitive, fits in my jacket pocket.'
p572
(dp573
S'images'
p574
S'+2'
p575
sS'fits'
p576
S'+1][u'
p577
sS'use'
p578
S'+2'
p579
ssS'Somehow, the engineers at Canon did it, and the results are nothing less than astounding.'
p580
NsS'This is enough capacity and capability to do a complete household inventory, for example.'
p581
(dp582
S'capacity'
p583
S'+2'
p584
ssS'Slow-syncro flash, macro/infinity mode, etc.'
p585
(dp586
S'flash'
p587
S'+2'
p588
sS' mode'
p589
S'+2'
p590
ssS'Other than that, I love this camera.'
p591
(dp592
S'camera'
p593
S'+2'
p594
ssS'As other reviews have noted, you will  definitely want one or more additional memory cards.'
p595
NsS'The Canon S100 destroys this problem.'
p596
NsS"If I won't cary it around, I won't use it, and if I won't use it, what's the point?"
p597
NsS'I have used many digital cameras.'
p598
NsS"Why did I wait so long?  detail[-1],color rendition[-1][cc]##If you're looking for a digital camera to replace your big Nikon or Canon SLR, forget it - film is still king when exquisite detail and fine color rendition are critical."
p599
NsS'2) The delay from the time you fully depress the shutter to the time the picture is taken is too long and may yield some fuzzy shots.'
p600
(dp601
S'delay'
p602
S'-2'
p603
sS'shots'
p604
S'-2'
p605
ssS'The SS body is wonderful, feels high-quality.'
p606
(dp607
S'body'
p608
S'+2'
p609
ssS'High-res photos take 1-1.5 MBytes each so you want a CF card sized accordingly.'
p610
NsS'They are razor sharp, the color balance is perfect, and the focus is great.'
p611
(dp612
S'sharp'
p613
S'+3'
p614
sS'color balance'
p615
S'+3'
p616
sS'focus'
p617
S'+2'
p618
ssS'It has given me zero problems, and the more I use it, the better I become at taking advantage of its strengths.'
p619
(dp620
S'camera'
p621
S'+2'
p622
ssS"After getting one for Christmas from Amazon, I'm now a believer:  The Digital Elph is truly the world's smallest digital camera that shoots great pictures."
p623
(dp624
S'pictures'
p625
S'+2'
p626
sS'size'
p627
S'+1][u'
p628
ssS'I take it with me everywhere,literally,'
p629
NsS'Travel with it without knowing you have it in your pocket'
p630
(dp631
S'size'
p632
S'+2'
p633
ssS'got this as it flew off the shelves.'
p634
NsS'4) The camera gets really hot when you are busy snapping away.'
p635
(dp636
S'hot'
p637
S'-2'
p638
ssS"Buy at least two batteries and you'll never run out in the field."
p639
NsS'The last problem I found with this camera was the macro function.'
p640
(dp641
S'macro'
p642
S'-2'
p643
ssS"I've been incredibly happy with this camera."
p644
(dp645
S'camera'
p646
S'+3'
p647
ssS"I've been using this camera for a few months now."
p648
NsS'Scratches, oil, freckles are magnified and come out looking horrific.'
p649
NsS"When the screen stops working, you're out of luck !"
p650
(dp651
S'screen'
p652
S'-2'
p653
ssS"I love not having to go to Walgreen's to get my pictures develpoed anymore!"
p654
NsS'Second, it is  incredibly easy to use.'
p655
(dp656
S'use'
p657
S'+3'
p658
ssS'First, I have to say that I have NEVER had the slightest problem with this camera or the software.'
p659
(dp660
S'camera'
p661
S'+2'
p662
sS'software'
p663
S'+2'
p664
ssS"I  would also recommend Canon's soft case for the camera, which has a slot to  attach to your belt along with a second nicely finished compartment to hold  an extra battery or memory card."
p665
NsS'Silver metal case -NOT PLASTIC.'
p666
(dp667
S'case'
p668
S'+1'
p669
ssS"It's best to list the pros and cons of this camera:"
p670
NsS"It will not replace your high-end 35mm SLR but it's a great toy to keep near you at all times for snapshots."
p671
(dp672
S'snapshots'
p673
S'+1][cc'
p674
ssS'I would recommend this camera unequivocally!'
p675
(dp676
S'camera'
p677
S'+3'
p678
ssS"The macro mode works well, although it takes some practice since the camera doesn't clearly indicate when it can't focus."
p679
(dp680
S'macro mode'
p681
S'+1'
p682
ssS'VERY smal.'
p683
(dp684
S'smal'
p685
S'+2'
p686
ssS'You have the option to have the flash automatic or off.'
p687
(dp688
S'flash'
p689
S'+1'
p690
ssS'The auto-focus on the camera seems to have trouble focusing on the subject.'
p691
(dp692
S'auto-focus'
p693
S'-2'
p694
ssS'Not only is it inconvenient, but also the battery life span is short.'
p695
(dp696
S'battery'
p697
S'-2'
p698
ssS"I have to move pictures off of it every day so I have room for more pictures the next, and I don't have enough money to buy the 256 MEG card that I've had my eye on for a while."
p699
(dp700
S'room'
p701
S'-2'
p702
ssS"The S100's image quality rates in the middle of its class, but it can still be a reasonable choice for students, families, or small businesses looking for an ultra-portable camera that weighs less than half a pound with media and battery pack."
p703
(dp704
S'image quality'
p705
S'+1'
p706
sS'weighs'
p707
S'+2'
p708
ssS'Its size makes holding it steady for long a bit of a challenge (not enough camera body to grip with more than your finger tips).'
p709
(dp710
S'size'
p711
S'-2'
p712
ssS"I also recently bought Viking's IntelliFlash Memory Reader."
p713
NsS'The LCD should be used.'
p714
NsS"it is so small that I am able to keep it in my pocket, and I don't have to fear that it will get ruined in my pocket because it is so durable."
p715
(dp716
S'small'
p717
S'+3'
p718
sS'durable'
p719
S'+2'
p720
ssS"I've struggled for years with supposedly high-quality point and shoot 35mm cameras delivering astonishingly inconsistent results."
p721
NsS"This is my second digital camera, but I'm much more impressed with the Canon S100 Digital Elph than I EVER was with my Kodak DC240."
p722
(dp723
S'S100'
p724
S'+3][cc'
p725
ssS"I've probably taken upwards of 5000 pictures with it, it's been all over the country."
p726
NsS'OK, not quite everything...but this camera is so compact that you will have it by your side when you need it.'
p727
(dp728
S'compact'
p729
S'+2'
p730
ssS'There is also a small covering for the lens, so you need not worry that the lens will get scratched.'
p731
(dp732
S'covering'
p733
S'+2'
p734
ssS'The controls are easy to understand and big enough that they are easy to see and use.'
p735
(dp736
S'controls'
p737
S'+2'
p738
sS'ease of use'
p739
S'+2][u'
p740
ssS'All that said, I am a little disappointed with the quality of the pictures from the camera.'
p741
(dp742
S'pictures'
p743
S'-1'
p744
ssS'Here are some useful facts:-'
p745
NsS'I left the camera in my car in Maine (not a very hot place) and the LCD screen cracked !'
p746
(dp747
S'lcd'
p748
S'-3'
p749
ssS'The new Canon s300 is 33% larger and 26% heavier than the S100.'
p750
(dp751
S'S100'
p752
S'+2'
p753
ssS"By the time the shot's taken, something (especially a squirmy child or a sports play) has invariably moved and it's not the exact picture you wanted."
p754
NsS'I have had this little gem for four months now.'
p755
NsS"For example, in auto mode you can't use the flash redeye reduction, you must be in manual mode for that."
p756
(dp757
S'auto mode'
p758
S'-1'
p759
ssS'I received this little jewel as a gift and I can honestly say Iabsolutely love it.'
p760
(dp761
S'jewel'
p762
S'+3][u'
p763
ssS'A larger memory card and extra battery are good things to buy.'
p764
(dp765
S'battery'
p766
S'-1'
p767
sS'memory'
p768
S'-1][s'
p769
ssS"Take shots at angles you thought you wouldn't."
p770
NsS'You take around 12 pictures in a circle, stitch them together and voila; you have a perfect memory of where you were standing !'
p771
NsS'OK so I bookmarked pages about this camera on our home computer, in a place I was sure my wife would see, and loh and behold, what did I get.'
p772
NsS'I also had no  problems installing or running the camera software on my PC.'
p773
(dp774
S'software'
p775
S'+2'
p776
ssS"One is  the lack of censorship of your photos -- time for some, uh, fashion  photography of your wife or girlfriend, if that's something you both would  enjoy!"
p777
NsS"I've had this camera for roughly 3 weeks now and I've taken approximately 250 pictures."
p778
NsS"It is amazingly small, it's hard to believe all that has been packed into this camera."
p779
(dp780
S'small'
p781
S'+3'
p782
ssS"I'll share some observations that may differ a bit from what other reviewers have noted."
p783
NsS"I've often struggled to get something to work the way I want it, and hate to have to carry the manual with me all the time!"
p784
(dp785
S'work'
p786
S'-1][u'
p787
ssS"I'd say that this camera is perfect."
p788
(dp789
S'camera'
p790
S'+3'
p791
ssS"You'll carry it with you every day."
p792
NsS'Now I can take over 300 1600 x 1280 shots (or for the webshot fanatic, 1,141 pictures at 640 x 480).'
p793
NsS'This camera is so easy to use!'
p794
(dp795
S'ease of use'
p796
S'+3][u'
p797
ssS'Tamrac makes a tiny pouch that is best for the camera.'
p798
NsS"A great camera, but here are some points which I don't notice in most of the reviews here, which may be of concern especially to the more advanced amatuer:"
p799
(dp800
S'camera'
p801
S'+2'
p802
ssS'Fool proof.'
p803
NsS'I would recommend spending a little money and this will be the perfect digital camera.'
p804
NsS"Don't care about sunlight: it's TFT."
p805
(dp806
S'TFT'
p807
S'+1'
p808
ssS'I added a second battery (about $69, recharges in about two hours) and a large (192Mb for less than $400) CF module.'
p809
NsS"I've found I can get  from nine to twelve compressed 1600 X 1200 photos on one 8MB card, or 28  images uploaded from my PC."
p810
NsS'7- 360\x1a panoramic pictures are a very big deal.'
p811
(dp812
S'panorama mode'
p813
S'+2'
p814
ssS'The focus is great, though, if you are not taking a macro shot.'
p815
(dp816
S'focus'
p817
S'+2'
p818
ssS"No, because he doesn't (can't) always carry his with him."
p819
NsS'I am very pleased with my purchase.'
p820
(dp821
S'purchase'
p822
S'+2'
p823
ssS'I will also say that it takes a very long moment for the camera to do its digital image processing between the time you press the button and when the camera actually takes the picture.'
p824
(dp825
S'processing'
p826
S'-1'
p827
ssS"I've owned a few 35mm cameras over the years, including one SLR and two point & shoots."
p828
NsS'I originally gave this camera 5 stars. When I had Windows 98 it was wonderful but I got a new computer last November with XP the usb software is Sooo... not compatible with XP'
p829
(dp830
S'software'
p831
S'-3'
p832
ssS'I\'ve been very reluctant to join the digital camera communitysince I\'ve been an avid "legacy" photographer for most of mylife.'
p833
NsS"I'm a professional photographer using pro digital equipment and I was looking for something to have around the house so that my wife could capture candid moments with my kids."
p834
NsS'The panorama modes are wonderful.'
p835
(dp836
S'panorama modes'
p837
S'+2'
p838
ssS'In auto mode anyone can use it as a point and shoot camera.'
p839
(dp840
S'auto mode'
p841
S'+1'
p842
ssS'Such a small zoom length that you would think that the zoom would be silent since it hardly zooms in...wrong!'
p843
(dp844
S'zooms'
p845
S'-2'
p846
ssS'I bought this camera at the end of August.'
p847
NsS'There are better cameras but none anywhere near as light and compact.'
p848
(dp849
S'compact'
p850
S'+1'
p851
sS'light'
p852
S'+1'
p853
ssS'after considering my needs further and researching the marketplace, I decided on the s100.'
p854
(dp855
S's100'
p856
S'+2'
p857
ssS'The metal housing seems very rugged.'
p858
(dp859
S'housing'
p860
S'+1'
p861
ssS'Very wrong.'
p862
NsS"The longest I've had it work was about 1 hour and 45 minutes."
p863
NsS'If you are just looking for something to keep with you at all times, then this is a great camera choice.'
p864
(dp865
S'camera'
p866
S'+2'
p867
ssS'2- Excellent picture quality and so simple to use!!!'
p868
(dp869
S'use'
p870
S'+2][u'
p871
sS'picture quality'
p872
S'+3'
p873
ssS'Download it fast to your computer'
p874
(dp875
S'Download'
p876
S'+2'
p877
ssS"I've had this camera for three years."
p878
NsS"Some people, in their reviews, complain about its small size, and how it doesn't compare with larger cameras."
p879
NsS"The new drivers on cannon's site do not help at all but try them if you want they have made me have to use the backup software."
p880
(dp881
S'drivers'
p882
S'-1'
p883
ssS'The included battery charger is larger!'
p884
NsS'To make matters work, there is no manual override to overcome this problem.'
p885
(dp886
S'work'
p887
S'-2'
p888
ssS"The color and light I captured with this camera on a 12-day trip to Turkey (gorgeous vividly colored ceramic tiles inside darkened mosques) were far superior to anything I've ever gotten with a traditional 35-mm film camera."
p889
(dp890
S'color and light'
p891
S'+3'
p892
ssS'The camera is as easy to use as a point and  shoot, and with instant review on the LCD screen, you can retake any  flubbed shots on the spot.'
p893
(dp894
S'use'
p895
S'+2][cc'
p896
ssS"and i'm glad i did!"
p897
NsS"I'm a writer and new to digital photography."
p898
NsS'I bought my camera based on recommendations from my other friends who own it.'
p899
NsS'2 secs to download a 600KB 1600x1200 picture!'
p900
Ns.