(dp0
S'WRONG!'
p1
NsS"No one has ever come to my house and noticed 'diaper odor.'"
p2
(dp3
S'odor'
p4
S'+2'
p5
ssS'You can save your bags from your shopping trip and insert them into the Champ.'
p6
NsS'There is also no trick to it.'
p7
NsS'There is no odor and extremely easy to use.'
p8
(dp9
S'use'
p10
S'+3'
p11
ssS'So, I took it to the tub, scrub it down with disinfectant.'
p12
NsS'I just knew all along what products I would not use, but was undecided on the actual one I wanted.'
p13
NsS'We purchased it based on the reviews, and it really lived up to our expectations.'
p14
NsS'The other pail I used started to smell after 2 weeks of use.'
p15
(dp16
S'other pail'
p17
S'-2][cc'
p18
ssS'I use the regular kitchen trash bags and it is so easy to empty.'
p19
(dp20
S'empty'
p21
S'+3'
p22
ssS'For my first I had a diaper genie which was not only costly with the refills but it was also very stinky.'
p23
(dp24
S'diaper genie'
p25
S'-2][cs'
p26
ssS"And it's the largest diaper pail I've seen without taking up more floor space."
p27
(dp28
S'diaper pail'
p29
S'+3'
p30
sS'space'
p31
S'+2'
p32
ssS"Don't buy the diaper champ."
p33
(dp34
S'diaper champ'
p35
S'-3'
p36
ssS'This is a GREAT product!'
p37
(dp38
S'product'
p39
S'+3'
p40
ssS'Well, I suppose this is better than an open pail, but to have a nursery in which there is no unpleasant smell is quite impossible no matter what you use.'
p41
NsS'At first I had a problem with some smell, then I realized if you flip the lid back and always keep the same side facing in - then there is no smell at all!'
p42
(dp43
S'smell'
p44
S'+2'
p45
ssS'The only problem i have is with the handle you use to open the top compartment.'
p46
(dp47
S'open'
p48
S'-1'
p49
ssS'I bought this diaper pail when my son was just a few days old and I absolutely LOVE it!'
p50
(dp51
S'diaper pail'
p52
S'+2'
p53
ssS'Also, diapers tend to stay in the middle, causing the pail to get backed up.'
p54
(dp55
S'diapers'
p56
S'-2'
p57
ssS'Let the Champ win you over!'
p58
(dp59
S'Champ'
p60
S'+3'
p61
ssS'This is a great diaper pail.'
p62
(dp63
S'diaper pail'
p64
S'+3'
p65
ssS"My second child I didn't get any."
p66
NsS'With the Champ all you had to do was drop the dirty diaper into the opening and flip the lid.'
p67
(dp68
S'Champ'
p69
S'+2][u'
p70
ssS'I am wondering how some of these reviewers are able to stand having kids?'
p71
NsS'First 4 months it was in our bedroom and we did not even smell any odor.'
p72
(dp73
S'odor'
p74
S'+1][u'
p75
ssS'Even when empty!'
p76
NsS"I don't know how this product would hold up to either of these situations."
p77
NsS'It keeps smells out of your nursery or toddler room!'
p78
NsS'We resorted to using small plastic bags to store the dirty diapers and dumping them in a trash can and using the Diaper Champ for wet diapers only.'
p79
(dp80
S'Diaper Champ'
p81
S'-2'
p82
ssS' We used this diaper pail from the day we brought our son home, until about 13 months.'
p83
NsS"Here's the catch for us- our daughter never drank formula, which is what gives baby waste a foul smell, and when she was eating solids we followed the American Pediatric Association recommendation to flush solid products instead of disposing of them."
p84
NsS"Wow - was that disappointing and we didn't even have it 6 months before it broke."
p85
(dp86
S'diaper pail'
p87
S'+1][cc][p'
p88
ssS'Having one of these helps from needing to take out the trash daily for the guys!'
p89
NsS"If you have a really sensitive nose, I can suggest buying some scented kitchen trash bags to use with the Diaper Champ- since the odor is contained in the Champ, once you have to open it to empty out the full bag, you're quite often greeted with a rather unpleasant blast of odor, and scented bags help with that."
p90
NsS'Now for our third child I saw the Diaper Champ and figured why not register for it and try it out.'
p91
NsS'The reviews were definitely right.'
p92
NsS'look at the size of it!'
p93
(dp94
S'size'
p95
S'+1'
p96
ssS'I only noticed an odor one time and that was because I did not close thelid when I changed out the bag.'
p97
NsS'Just unlock the top, and remove the plastic bag.'
p98
NsS'Regardless to this fact, I believe the Champ is the best way to go.'
p99
(dp100
S'Champ'
p101
S'+3'
p102
ssS'Highly recommended!!!'
p103
NsS'We use the cheap $1.99 13 gallon vanilla scented bags from the grocery store but you can use any bag you have laying around.'
p104
(dp105
S'bag'
p106
S'+2'
p107
ssS'We all hated it.'
p108
NsS'I use the same store-brand tall kitchen trash bags I already use in the kitchen for it -- no special "diaper" trash bags necessary.'
p109
(dp110
S'trash bags'
p111
S'+3'
p112
ssS'Even with newborn diapers it filled way too fast.'
p113
(dp114
S'size'
p115
S'-2][u'
p116
ssS'But now that she is eating solids the odor is escaping out and we are constantly using airfreshner.'
p117
(dp118
S'odor'
p119
S'-2'
p120
ssS'We liked it because:'
p121
NsS"No smell, easy to use with one hand free, and best of all it uses regular tall kitchen garbage bags so you don't get suckered in to using only the bags made for the pail that are imposible to find!"
p122
(dp123
S'garbage bags'
p124
S'+3][u'
p125
sS'smell'
p126
S'+3'
p127
sS'ease of use'
p128
S'+3'
p129
ssS'We decided we had to have something so we started researching.'
p130
NsS'This is really a nice diaper pail.'
p131
(dp132
S'diaper pail'
p133
S'+2'
p134
ssS'The "new" design still needs lots of improvement!'
p135
NsS'I wash ours out with lysol each time I empty it, and that helps, but when its hot out- well, just be prepared.'
p136
(dp137
S'pail'
p138
S'-2'
p139
ssS'And it does an excellent job of keeping the odor contained, which the diaper genie never did!'
p140
(dp141
S'odor'
p142
S'+3][cs'
p143
ssS'I am SO thankful I got that advice when I did because I had the Diaper Genie on my registry aforementioned to her warning.'
p144
NsS'I did dump a little deoderizer tablet in it.'
p145
NsS'Diaper Champ is by far the best diaper pail!'
p146
(dp147
S'Diaper Champ'
p148
S'+3'
p149
ssS'There are no specail bags to deal with or buy!'
p150
(dp151
S'bags'
p152
S'+2'
p153
ssS"We read the reviews on and saw that people liked it much better then the Diaper Genie, but I'm not 100% sure."
p154
NsS'*holds the odor in nicely!'
p155
(dp156
S'odor'
p157
S'+3'
p158
ssS'THIS ITEM IS EXCEPTIONAL I like the ease of use and it held the odor in great.'
p159
(dp160
S'ITEM'
p161
S'+3'
p162
sS'use'
p163
S'+2'
p164
sS'odor'
p165
S'+3'
p166
ssS'I still like it a lot and am not changing it for another, but it is sort of stinky.'
p167
(dp168
S'diaper pail'
p169
S'-2][u'
p170
ssS'It was such a pain to use.'
p171
NsS'The one thing that sets this product apart from the diaper genie is that this product can use regular garbage bags.'
p172
NsS"The latch isn't terribly difficult, and I wouldn't want it to be too easy since it sits in my son's room."
p173
NsS"I use the scented bags and even if I don't no smell!"
p174
(dp175
S'smell'
p176
S'+3'
p177
ssS'Even though I never ventured into the cloth land, I was very impressed by how well this works at keeping diapers and their accompanying odor in the pail and out of our life!'
p178
(dp179
S'odor'
p180
S'+3][u'
p181
sS'pail'
p182
S'+3'
p183
ssS'My daughter is now 2 and 1/2, and I am still enjoying this product.'
p184
NsS"Makes life easier and keeps baby's room smelling like baby, not dirty diapers!"
p185
NsS'However, for the previous 13 months-this is what I encountered - PROS -'
p186
NsS'We opted to purchase this diaper pail even though my SIL gave us her used diaper pail (the other popular pail. one that uses its own brand of bags) for free--and we are VERY glad we did.'
p187
NsS'Save your money invest in plastic bags and dispose of diapers by sealing them in the bags and placing them in the regular garbage.'
p188
NsS'2) The Champ uses regular store bags.'
p189
(dp190
S'store bags'
p191
S'+3][u'
p192
ssS'With them, you have to put your baby on the floor or someplace else safe just to put the diaper in the pail.'
p193
NsS"I love the diaper champ, it is really easy to use and since you can use regular garbage bags it doesn't cost an arm and a leg for refills."
p194
(dp195
S'refills'
p196
S'+1'
p197
sS'use'
p198
S'+2'
p199
sS'diaper champ'
p200
S'+3'
p201
ssS"The hole to put the diaper in needs to be larger as I am now using medium diapers (I have a 3 month old) and they're on the brink of being too large to fit no matter how compact I make then and how un-soiled they are."
p202
(dp203
S'hole'
p204
S'-2'
p205
ssS'The height is a more convenient reach than others, where you have to hunch over.'
p206
(dp207
S'height'
p208
S'+2'
p209
ssS'Originally with my son we had a Diaper Genie.'
p210
NsS"But, sometimes, if the Champ is too full, the flip handle won't function."
p211
(dp212
S'function'
p213
S'-1][u'
p214
ssS'I bought the Diaper Champ and have been very happy for the following reasons.'
p215
(dp216
S'Diaper Champ'
p217
S'+2'
p218
ssS'2.  It can be operated with one hand - Leaving a hand on your baby on the changing table.'
p219
(dp220
S'operated'
p221
S'+2'
p222
ssS"Can't complain at all!"
p223
NsS'Diaper falls into bag inside the Champ.'
p224
NsS"But just to let you know that I've been breastfeeding and the poop doesn't stink as much as formula poop."
p225
NsS'So much safer than the others that require a two handed operation!'
p226
(dp227
S'safer'
p228
S'+2][cc'
p229
ssS'(we wrap them nice and tight) *we use our regular kitchen trash bags--cheap!'
p230
(dp231
S'trash bags'
p232
S'+3'
p233
ssS'I got the diaper champ because of the great reviews as well as the fact that you can use regular garbage bags.'
p234
(dp235
S'diaper champ'
p236
S'+1'
p237
ssS"It holds almost a week's worth of diapers, and you don't need expensive refills - any kitchen bags work."
p238
(dp239
S'refills'
p240
S'+3'
p241
sS'diapers'
p242
S'+3'
p243
ssS'unlike the Diaper Genie!'
p244
NsS'That seemed to work -- for about 3 days.'
p245
NsS'Go for the Champ.'
p246
(dp247
S'Champ'
p248
S'+3'
p249
ssS'We have been using the Diaper Genie for the past 17 months and are very happy with it.'
p250
NsS'We have both a Diaper Champ and a Diaper Genie.'
p251
NsS'Only problem.'
p252
NsS'We lysol the champ every time we change the bag out and have not had any problems.'
p253
(dp254
S'change'
p255
S'+2'
p256
ssS"So far (3 weeks), we've had no problems with the Diaper Champ at all."
p257
(dp258
S'Diaper Champ'
p259
S'+2'
p260
ssS"It doesn't stink, ever (like some have assumed since it doesn't wrap each diaper into its own neat little cocoon)."
p261
(dp262
S'Diaper Champ'
p263
S'+3][u'
p264
ssS' Too costly and not efficient if you ask me!'
p265
(dp266
S'costly'
p267
S'-2][u][cc'
p268
ssS"It's easy to use (just a flip of the lid, and the diaper is gone!)."
p269
(dp270
S'use'
p271
S'+3'
p272
ssS'I have to say that I am very happy with it so far.'
p273
(dp274
S'Diaper Champ'
p275
S'+1][p'
p276
ssS'I would not recommend buying that one.'
p277
NsS'The Champ also has hinges for you to place a new bag.'
p278
NsS'Personally, I am VERY pleased with the Diaper Champ.'
p279
(dp280
S'Diaper Champ'
p281
S'+3'
p282
ssS"In fact, people who have been present while I changed my almost 3 month old son's diaper have been amazed at how the very 'potent' smell of the dirty diaper seems to disappear once I dispose of the diaper in the Diaper Champ."
p283
(dp284
S'Diaper Champ'
p285
S'+2'
p286
ssS'Even the old pail hardly smelled bad to me, I think after you have changed diapers for 4 years, you get somewhat immune to it.'
p287
NsS'Not only can they be a pain to install, but who needs one extra thing to watch a supply of?'
p288
NsS"Update I knew that I loved the champ, and useing the diaper genie at a friend's house REALLY reinforced that!"
p289
(dp290
S'champ'
p291
S'+3][cs'
p292
ssS'My daughter is only 4 months old and we do notice an odor.'
p293
(dp294
S'odor'
p295
S'-2'
p296
ssS'I have tried other pails, but none have compared positively to the Champ.'
p297
(dp298
S'Champ'
p299
S'+3'
p300
ssS'I love this pail!'
p301
(dp302
S'pail'
p303
S'+3'
p304
ssS'This is easy to work and easy to dispose of the dirty diapers.'
p305
(dp306
S'work'
p307
S'+3'
p308
ssS"A couple of tips to having a clean-smelling nursery even with the Champ: Double bagging- Get those diaper sacks you would use to dispose of diapers if you're in a place where you don't want to dump a dirty diaper, like in your friend's wastebasket or kitchen garbage."
p309
NsS'We use regular kitchen sized garbage bags.'
p310
(dp311
S'garbage bags'
p312
S'+1'
p313
ssS"I'm beginning to think that the main reason Genie's so popular is their cutesy name."
p314
NsS'I used to work in a daycare and we had a diaper genie.'
p315
NsS'Also, it takes any kitchen sized trash bag, so there is no special bag to stock.'
p316
(dp317
S'trash bag'
p318
S'+2'
p319
ssS"(every now and then I spray down the inside of the pail with Lysol) *easy one-hand use *impossible for my inquisitive child to get the dirty diapers OUT of the pail Every now and then odors do escape the pail, but that is rare--and it usually just means that we've crammed too much in there and need to change the bag."
p320
(dp321
S'use'
p322
S'+3'
p323
ssS"Solid food poop is VERY STINKY and this diaper pail doesn't really contain the smell."
p324
(dp325
S'diaper pail'
p326
S'-2'
p327
ssS'We also had a problem with diaper wipes getting caught when the top was flipped.'
p328
(dp329
S'diaper wipes'
p330
S'-2'
p331
ssS'The Diaper Champ is so simple that my toddler loves to put his own diapers in the diaper champ and flip over the handle.'
p332
(dp333
S'Diaper Champ'
p334
S'+2'
p335
ssS"I don't know if we'll run into trouble down the road with odors, but so far I have no complaints and I'm very happy not to have to buy those refills."
p336
(dp337
S'refills'
p338
S'+2'
p339
sS'odors'
p340
S'+2'
p341
ssS"So I can't tell you if Diaper Champ will be as good at containing the formula generated poop smell, but it's excellent at containing the smell of poop of my breastfed baby!"
p342
(dp343
S'Diaper Champ'
p344
S'+3'
p345
ssS'We just use the Glad tall kitchen trash can bags with odor shield from Target and they work wonderfully.'
p346
(dp347
S'work'
p348
S'+2'
p349
ssS"2. You can dump regular trash into it and not feel as though you've wasted plastic."
p350
NsS'The thought of not having to buy refills and just using regular bags is awesome!'
p351
(dp352
S'refills'
p353
S'+3'
p354
ssS'All in all, this product is definitely one I would recommend and certainly worth the very reasonable price.'
p355
(dp356
S'product'
p357
S'+2'
p358
sS'price'
p359
S'+2'
p360
ssS"Its stable, so a curious toddler can't easily tip it over."
p361
(dp362
S'stable'
p363
S'+2'
p364
ssS'For even better odor control we would put a plug ins in the outlet closest to it.'
p365
NsS"I mean, with babies it's already far too easy to run out of diapers or formula."
p366
NsS"I can't tell you how many times i've chipped a nail or hurt my fingertips because of the force needed to open it."
p367
(dp368
S'open'
p369
S'-2'
p370
ssS'We received this diaper pail as a gift while expecting our second child.'
p371
NsS'Plus, the fact that it used regular trash bags is great.'
p372
(dp373
S'trash bags'
p374
S'+3][u'
p375
ssS"The opening could be a little wider, I suppose, but I haven't really seen anything else that could be improved."
p376
(dp377
S'opening'
p378
S'-1'
p379
ssS'Also much less stinky.'
p380
(dp381
S'stinky'
p382
S'-1'
p383
ssS'Bottom line if you buy this for your newborn, it is fine.'
p384
NsS'Works great!!!!'
p385
(dp386
S'Works'
p387
S'+3'
p388
ssS'I change mine about 1 or 2 times a week.'
p389
NsS'(I never know when the Champ is full as there is no way too tell.  Even though not particularly aesthetic, how about making the Champ clear and see-through?) So, I lift the lid and find a wad of diaper, which I must remove, usually stuck inside the lid itself because the bag is too full.'
p390
(dp391
S'diaper'
p392
S'-2'
p393
ssS"It's far better than all others on the market."
p394
(dp395
S'Diaper Champ'
p396
S'+3][p][cc'
p397
ssS'I had to go and pull the crumpled foam out just so we could turn the lid.'
p398
NsS'3)The Champ is Odor Free for at least 15 months.'
p399
(dp400
S'Champ'
p401
S'+3'
p402
ssS'When my wife and I got the Diaper Champ, we thought that it would work perfectly.'
p403
NsS'If you are looking for a user-friendly diaper pail that actually does keep the odor contained, than the diaper champ is the one for you!'
p404
(dp405
S'diaper champ'
p406
S'+2'
p407
ssS'I HAVE NEVER HAD AN ODOR PROBLEM!'
p408
(dp409
S'ODOR'
p410
S'+3'
p411
ssS'This eventually ruined the foam pad that is applied to the flip top to keep odors in.'
p412
NsS"I'm concerned that as she gets older the #2 diapers will only get worse."
p413
NsS'Being a very economical person, I appreciate the fact that any plastic bag can be used with this system- I never did like the prospect of buying special Diaper Genie refills.'
p414
(dp415
S'refills'
p416
S'+3'
p417
ssS'And best of all, no wasting money on special refill bags---this takes ordinary garbage bags!'
p418
(dp419
S'garbage bags'
p420
S'+3'
p421
ssS'For diaper disposal, you had to push a button and the lid would or would not pop open.'
p422
NsS'We just had a baby and were debating getting either this product or the Diaper genie and this is what sold us on this product'
p423
NsS"I have heard that it will eventually become my sons favorite place to put his toys when he becomes a toddler, but I've got 2 years to worry about that and I'm sure I'll figure out preventative measures like any other mom."
p424
NsS'THIS PRODUCT IS A LIFESAVER!!'
p425
(dp426
S'PRODUCT'
p427
S'+3'
p428
ssS'FANTASTIC!'
p429
NsS'My toddler thought rotating the  top was fun-he always wanted to play with it'
p430
NsS'So then I used straight bleach.'
p431
NsS'It takes all of 2 minutes, if that.  4.'
p432
NsS'5.  The price is right.'
p433
(dp434
S'price'
p435
S'+2'
p436
ssS"Gets stinky after a few months, the seal on the piston doesn't seal anymore."
p437
(dp438
S'seal'
p439
S'-2'
p440
ssS"I decided to go with the Diaper Champ rather than the more popular Diaper Genie, because I didn't like the idea of having to buy special bags."
p441
(dp442
S'Diaper Champ'
p443
S'+2][cc'
p444
ssS'No need to pay for the special refills that the other brands require!'
p445
(dp446
S'refills'
p447
S'+3'
p448
ssS'and we still LOVE it!'
p449
(dp450
S'product'
p451
S'+3][p'
p452
ssS"Don't Caregivers need more simplicity in their lives?"
p453
NsS'This will never be a problem with the Champ.'
p454
NsS"Diapers can get stuck when turned around if you don't tightly wrap them first."
p455
(dp456
S'Diapers'
p457
S'-2'
p458
ssS'Also, diapers and wipes get stuck in the grove below the piston.'
p459
(dp460
S'wipes'
p461
S'-2'
p462
ssS'For one thing, The diapers always get jammed in it.'
p463
(dp464
S'diapers'
p465
S'-2'
p466
ssS'Bag the diaper in this small clean-smelling bag and then chuck it in the Champ.'
p467
NsS'Large diapers have to be wrapped tightly.'
p468
NsS'It lives up to its name.'
p469
NsS'I had never liked the idea of the Diaper Genie because of the refills.'
p470
(dp471
S'Diapers'
p472
S'-1][cc'
p473
ssS'It is much easier to fill and unload than the Diaper Genie, plus, why buy refills when you can use trash bags from the Dollar Store?'
p474
(dp475
S' unload'
p476
S'+2'
p477
sS'fill'
p478
S'+2'
p479
ssS"This pail doesn't really keep in odors anymore and we'll probably have to get a new one, but since you can use regular garbage bags (we actually use the bags we get our groceries in because they hang perfectly) its still probably a better deal than the genie."
p480
(dp481
S'odors'
p482
S'-2'
p483
sS'deal'
p484
S'+1'
p485
ssS'If you have only one child the Champ may last you until the child is out of diapers.'
p486
NsS'I couldn\'t picture myself yelling to hubby, "Honey, I know you have sixty other things to get...can you also pick up refills for the diaper pail?"'
p487
NsS'It holds quite a few diapers, and pops them in quickly and easily.'
p488
(dp489
S'holds'
p490
S'+3'
p491
ssS'There is no odor and it is very easy to use.'
p492
(dp493
S'use'
p494
S'+3'
p495
ssS"In addition, I don't believe that it is odorless."
p496
(dp497
S'Diaper Champ'
p498
S'-2'
p499
ssS'Once your child goes on to solid foods BEWARE!'
p500
NsS'She said her sister had the Diaper Champ and that it took regular garbage bags and worked just as well.'
p501
NsS'For those who are experiencing odor problems, here are some suggestions which should solve the problem:'
p502
NsS'All in all, the Diaper Champ serves its purpose, but it does not live up to its good reviews.'
p503
(dp504
S'Diaper Champ'
p505
S'-1'
p506
ssS'It sits in the corner of our bathroom and we have never had any problems with odors at all (and we live in the damp and humid South, where odors of all kinds are generally rife).'
p507
(dp508
S'odors'
p509
S'+2'
p510
ssS'OK.'
p511
NsS"That's when it went from Oderless, to ODEROUS!"
p512
(dp513
S'ODEROUS'
p514
S'-3'
p515
ssS'Also, making sure that the tape on the diapers is secure will prevent that from happening as well.'
p516
NsS"It's much better than putting diapers in a downstairs trashcan."
p517
NsS'We have been using our Diaper Champ for almost 14 months now and we are very happy with it.'
p518
(dp519
S'Diaper Champ'
p520
S'+2'
p521
ssS"I think it's great."
p522
(dp523
S'diaper pail'
p524
S'+3][p'
p525
ssS'I generally put kitchen size bags in it, but you can use just about any size if you are in a pinch.'
p526
NsS'It was easy to assemble, and the diapers fit perfectly into the little nook before they make their way into the pail portion.'
p527
(dp528
S'assemble'
p529
S'+2'
p530
sS' fit'
p531
S'+2'
p532
ssS'To eliminate any smells we simple stuck a Stick Up room deodorizer inside the lid.'
p533
(dp534
S'smells'
p535
S'-1][s'
p536
ssS'dirty diapes and soaked diapers.'
p537
NsS'If I had to do it over again, even with the cost savings of using any type of bag, I would go w/ the Diaper Genie.'
p538
(dp539
S'Diaper Genie'
p540
S'+2][cs'
p541
ssS'It is also to wipe clean if you do get the chute a bit dirty.'
p542
NsS"We just recently had to buy another roll of bags. SO $6.00 for a year of bags- can't beat that!!"
p543
(dp544
S'bags'
p545
S'+3'
p546
ssS'As a first-time mom, I got the great idea that cloth would be better, and this was the only diaper disposal that advertised compatibility with cloth diapers.'
p547
NsS'The diaper champ is the best!'
p548
(dp549
S'diaper champ'
p550
S'+3'
p551
ssS'And it is very easy to clean.'
p552
(dp553
S'clean'
p554
S'+3'
p555
ssS'CONS - Difficult to open to change bag-twice my bags caught on a sharp edge inside and snagged as I was pulling out-leaving dirty diapers all over the floor.'
p556
(dp557
S'open'
p558
S'-2'
p559
ssS" (Being a diaper pail, I'd prefer he not be enticed by something so unsanitary.)"
p560
NsS'I recommend it to both parents of infants and toddlers.'
p561
(dp562
S'diaper pail'
p563
S'+2'
p564
ssS"It's also easy to empty out."
p565
(dp566
S'empty'
p567
S'+3'
p568
ssS'This holds alot and does not take up alot of space.'
p569
(dp570
S'space'
p571
S'+3][u'
p572
ssS'1. It uses regular garbage bags instead of brand refills.'
p573
(dp574
S'garbage bags'
p575
S'+2'
p576
ssS'I cannot speak to the accuracy of its odor containing capabilities due to it was working overtime with 2 childrens diapers.'
p577
NsS'With the enormous numbers of diapers that you go through with a newborn, it was great how easy it was to dispose of the dirty ones.'
p578
(dp579
S'dispose'
p580
S'+3'
p581
ssS'4 months later.'
p582
NsS'I could probably use a trash can and be ok at this point, but this prduct seems to work very well so far.'
p583
(dp584
S'product'
p585
S'+2'
p586
ssS'It was a PAIN.'
p587
NsS'Excellent diaper disposal unit.'
p588
(dp589
S'unit'
p590
S'+3'
p591
ssS"I have noticed an odor (one the I expected!) when unloading the Diaper Champ but at least you don't smell anything every time you use it."
p592
(dp593
S'odor'
p594
S'-1'
p595
ssS'Whether you are using disposable or cloth diapers, this is the truly the only diaper pail to get!'
p596
(dp597
S'diaper pail'
p598
S'+3'
p599
ssS'*holds a LOT of diapers--a full week of toddler diapers!'
p600
(dp601
S'holds'
p602
S'+3'
p603
ssS"It is far better than just a trash can or the Diaper Genie and it's fairly inexpensive as baby products go!"
p604
(dp605
S'product'
p606
S'+3'
p607
ssS'and we definitely prefer our Champ!'
p608
(dp609
S'Champ'
p610
S'+3][cc'
p611
ssS'It takes regular trash bags.'
p612
NsS'As she entered into toddlerhood we started having some bad diapers just becasue of her cutting teeth and diet changes.'
p613
NsS'The Champ gives you peace of mind and wallet.'
p614
NsS'A MUST HAVE!'
p615
NsS'Everytime I tried to unload it the sausage links(as I call them) would unravel and I think the odor control was only so so.'
p616
NsS'We empty ours every day and we have never had an odors from it!'
p617
(dp618
S'diaper'
p619
S'+2'
p620
ssS'No need for deodorizers.'
p621
(dp622
S'odor'
p623
S'+3'
p624
ssS'Then it started to smell whether there were diapers in it or not.'
p625
(dp626
S'smell'
p627
S'-2'
p628
ssS'I second that you just need to fold up the diaper (with wipes inside) neatly, but that is not a big deal.'
p629
NsS'A wise investment for the pocketbook & for the nose!!!'
p630
(dp631
S'investment'
p632
S'+2'
p633
ssS'I also sprinkled baking soda in the bottom of the Diaper Champ to help absorb odors - every once in awhile I just empty the old baking soda out and replace it.'
p634
NsS'It still smelled.'
p635
(dp636
S'semelled'
p637
S'-2'
p638
ssS'Yes, you may get a whiff of a smell when you flip the handle, but then it is gone.'
p639
(dp640
S'smell'
p641
S'-1'
p642
ssS'Not only is it much more cost effective (you can use regular trash bags rather than Refills at $5 a pop), it is easier to use and clean, and has a larger capacity.'
p643
(dp644
S'use'
p645
S'+3'
p646
sS'capacity'
p647
S'+3][cs'
p648
sS'cost effective'
p649
S'+3'
p650
ssS'You do not have to waste money or time trying to purchase special bags for the Champ.'
p651
(dp652
S'Champ'
p653
S'+3'
p654
ssS"I had no problem with stuck diapers and if I did it wasn't often but I can see how it would happen."
p655
NsS"Also, for those that complain that the Diaper Champ isn't as effective as time passes, keep the following in mind: AS BABIES GET OLDER, THEIR DIETS CHANGES (aka SOLID FOODS!) AND SO DOES THE SMELL OF THEIR DIAPERS!"
p656
(dp657
S'Diaper Champ'
p658
S'-1'
p659
ssS"I haven't noticed any seepage of smells."
p660
NsS'3. It never smelled - at all.'
p661
(dp662
S'product'
p663
S'+3][p'
p664
ssS'1. CHANGE BAGS FREQUENTLY!!'
p665
NsS"In fact, I liked it so much after using it with my son who is now 2 years old, that I bought one for our new baby's room."
p666
(dp667
S'diaper pail'
p668
S'+2'
p669
ssS'Great product, easy to use, economical, effective, absolutly fabulous.'
p670
(dp671
S'product'
p672
S'+3'
p673
sS'use'
p674
S'+3'
p675
sS'effective'
p676
S'+3][u'
p677
ssS'It works easily with one hand, which is important.'
p678
(dp679
S'works'
p680
S'+2'
p681
ssS"At $30 we put one in the nursery and one in our toddler's room."
p682
NsS'I was using the cheapie pail...and it worked ok until the opening device fell apart.'
p683
(dp684
S'worked'
p685
S'+2'
p686
sS'pail'
p687
S'+1'
p688
ssS"I wanted this product because i didn't have to buy special bags for it and it also came highly recommended."
p689
(dp690
S'product'
p691
S'+2'
p692
ssS'I hesitated and wondered what I REALLY needed for the nursery.'
p693
NsS'It works great.'
p694
(dp695
S'works'
p696
S'+3'
p697
ssS"it's easier and much more convenient to use because it doesn't have CLUMSY and CONFUSING (not to mention expensive) refills."
p698
(dp699
S'refills'
p700
S'+2'
p701
sS'convenient'
p702
S'+2'
p703
ssS'Using your own bags is much cheaper and convenient.'
p704
(dp705
S'bags'
p706
S'+2'
p707
ssS'This one is really great.'
p708
(dp709
S'pail.'
p710
S'+3'
p711
ssS'This is a really great buy, for yourself or as a shower gift.'
p712
(dp713
S'gift'
p714
S'+3][p'
p715
ssS"And the biggest plus is that you don't have to buy any expensive refills."
p716
(dp717
S'refills'
p718
S'+3'
p719
ssS'It is a bit difficult to get the unit open (the advice to take it slowly is sound), but now that our son is walking and exploring, I consider this a positive attribute!'
p720
(dp721
S'open'
p722
S'+1'
p723
ssS'And after about two months it just sat there in the corner of her room and was never used.'
p724
NsS'Having used it with 2 children 13 months apart.'
p725
NsS"There probably isn't a pail out on the market that doesn't get smelly after a while."
p726
NsS'So far so good.'
p727
NsS'SIMPLE AND IT WORKS!'
p728
(dp729
S'WORKS'
p730
S'+2'
p731
ssS"But from my experience, by the time it gets to that point, the bag is really heavy, so I think this is kind of helpful- it's a built-in way of keeping the bag manageable upon emptying."
p732
(dp733
S'emptying'
p734
S'+1'
p735
ssS"1.  The Diaper Champ doesn't require special refills that are expensive and hard to find!"
p736
(dp737
S'refills'
p738
S'+2'
p739
ssS'I actually took a friends word on it and went with this Champ when registering and I am glad I did.'
p740
(dp741
S'Champ'
p742
S'+2'
p743
ssS'We have never had any problems with anything like loose wipes getting stuck (we always wrap them in the dirty diaper).'
p744
(dp745
S'wipes'
p746
S'+1'
p747
ssS"In concept, it's a fabulous idea."
p748
NsS'2. YOU STILL HAVE TO CLEAN THE THING!!'
p749
(dp750
S'CLEAN'
p751
S'-1'
p752
ssS'Now it will start smelling if you leave it with diapers in it for an extended period but all of them will!'
p753
(dp754
S'smelling'
p755
S'-1'
p756
ssS'All I do is wipe it down with some antibacterial wipes (takes about 10 seconds!!) and then maybe spray some Lysol in it and let it air out for a minute or two.'
p757
NsS'Hello, it does house dirty diapers!!'
p758
NsS'Works great, no odor, and uses regular bags.'
p759
(dp760
S'Works'
p761
S'+3'
p762
ssS'I just go to [the store] and purchase tall kitchen bags and use those for the Diaper Champ.'
p763
NsS'I used it in conjunction with Glad 3ply kitchen trash bags with odor control (scented).'
p764
NsS'It holds a lot of diapers, not to mention the odor!'
p765
(dp766
S'holds'
p767
S'+3'
p768
ssS"We don't have to worry about running out of refills with this diaper pail!"
p769
(dp770
S'refills'
p771
S'+2'
p772
ssS'We just buy the smaller bags that come like 250 to a roll and are sented and they are like $6.00 and they work great.'
p773
(dp774
S'work'
p775
S'+2'
p776
ssS"it wasn't much different than putting the diaper in a shopping back and putting it in the regular trash."
p777
NsS"I find the major problem with this item is that if you have a very messy diaper and can't tightly bundle it without a mess, the mess gets all over the module that dumps the diaper and the stink is OUTSIDE of the diaper pail."
p778
(dp779
S'item'
p780
S'-2][u'
p781
ssS'I gave up and got a diaper Dekor.'
p782
(dp783
S'diaper Dekor'
p784
S'-1][cc'
p785
ssS'The pluger gets stuck & you have to manually extract the mess.'
p786
(dp787
S'pluger'
p788
S'-2'
p789
ssS'As one other reviewer pointed out, it does occasionally take a little effort to push down the "plunger" to get the diapers in the pail, even though upon inspection the bag doesn\'t really look full.'
p790
(dp791
S'plunger'
p792
S'-1'
p793
ssS'It definitely keeps the smell out.'
p794
(dp795
S'diaper pail'
p796
S'+2'
p797
ssS"The diaper champ couldn't be easier to use."
p798
(dp799
S'use'
p800
S'+3'
p801
ssS'It was so easy my toddler would dispose of her on diapers.'
p802
(dp803
S'dispose'
p804
S'+2'
p805
ssS"My main complaints are that it should be deeper or wider as it doesn't even fit a smaller sized garbage bag."
p806
(dp807
S'fit'
p808
S'-2'
p809
ssS'ANY Garbage bags will fit.'
p810
NsS'For those who complain that the pail gets stuck, that is probably a good indication that the BAG IS GETTING TOO FULL!!'
p811
NsS'Opening the Champ to empty out the bag is a little tricky- I pinched my thumb a few times before I got the hang of it.'
p812
(dp813
S'Opening'
p814
S'-1'
p815
ssS'Spraying down the inside of the container (and letting it air out) periodically definitely helps.'
p816
NsS"We graduated to real underwear last week in our house, and I'm passing this on instead of retiring it- it's too good to sit unused in the basement or dump."
p817
NsS'We started with the Diaper Genie as most new parents do.'
p818
NsS"But like I stated, its better then a trash can, but I'm not sure if its better then the Diaper Genie."
p819
(dp820
S'Diaper Champ'
p821
S'+1][cs'
p822
ssS'even did while daughter sleep and no noise!'
p823
(dp824
S'noise'
p825
S'+3'
p826
ssS'It takes garage bags that we use elsewhere in the abode.'
p827
NsS"She never wore even one- the hospital started me on Huggies, and I never turned back (as a side note- if you do have the patience for cloth diapers, pay the extra $ and go for Kushies; they're beautifully made and work very well from what I've heard)."
p828
NsS"Well the Champ has survived it's first year with our son and it is great!!"
p829
(dp830
S'Champ'
p831
S'+3'
p832
ssS"It's certainly not worth the money or the upkeep."
p833
NsS"I am happy with the fact that I can use any bag in there and dont' have to pay out the nose for replacements."
p834
(dp835
S'replacement'
p836
S'+2'
p837
ssS'The bags never fit right and then it never spun right.'
p838
NsS'It also holds a lot more diapers.'
p839
(dp840
S'diaper'
p841
S'+3'
p842
ssS'While the perfect ordor free diaper pail has yet to be invented, the Diaper Champ is a good as it gets.'
p843
(dp844
S'Diaper Champ'
p845
S'+2'
p846
ssS'Remember, it does hold dirty diapers!'
p847
NsS'The Champ works great.'
p848
(dp849
S'works'
p850
S'+2'
p851
ssS'Special bags are expensive, hard to find, and you never have enough.'
p852
NsS'I ended up buying one for upstairs and one for downstairs because it works so well and because I change him so often downstairs.'
p853
(dp854
S'works'
p855
S'+2'
p856
ssS'The diaper champ turns the smelly diaper into "what diaper smell" in less time than that.'
p857
(dp858
S'diaper champ'
p859
S'+3][u'
p860
ssS'Diaper Champ is great.'
p861
(dp862
S'Diaper Champ'
p863
S'+3'
p864
ssS'Pop the lid, fold it back on its hinge, pull the trash bag through the ring, and take out the dirty diapers.'
p865
NsS'The way you have to shove your fingers under it and pull is just too tight.'
p866
(dp867
S'pull'
p868
S'-1'
p869
ssS'We just bought another for baby boy number two coming next month.'
p870
NsS"Here's what we love about this pail."
p871
NsS'He thinks it is magic when the diaper "disappears".'
p872
NsS'I just know it really worked for us.'
p873
NsS'In talking with other parents, I get the same feedback - as babies get older and become toddlers, ALL DIAPER PAILS become gradually less and less effective until they are just no longer useful.'
p874
NsS'We found that when you put a dirty diaper into the top loader, there was a tendency to get streaks which would then get on the plunger which would then have to get cleaned each time it was used.'
p875
(dp876
S'top loader'
p877
S'-2'
p878
ssS'I can keep one hand on my baby and dump the diaper at the same time, it is that simple.'
p879
(dp880
S'diaper'
p881
S'+3'
p882
ssS'Another tip is to wash out the Champ frequently and spray the inside and lid with Lysol after every full bag is removed.'
p883
NsS'This is a MUST HAVE product for all new moms!'
p884
(dp885
S'product'
p886
S'+3][u'
p887
ssS'The champ, the baby bjorn, fluerville diaper bag, and graco pack and play bassinet all vie for the best baby purchase.'
p888
NsS'3.  Bags are easy to change.'
p889
(dp890
S'change'
p891
S'+2'
p892
ssS"The Diaper Genie needs it's own refill bags in order to work and that's just more money that you don't have to spend."
p893
(dp894
S'Diaper Genie'
p895
S'-2][cs'
p896
ssS'It is easy to install and change the ordinary trash bags, easy to clean, and most important, easy to use one handed - just insert folded dirty diaper and flip the handle.'
p897
(dp898
S'clean'
p899
S'+2'
p900
sS'use'
p901
S'+3'
p902
sS'change'
p903
S'+1'
p904
sS'install'
p905
S'+2'
p906
ssS'The only downside to this is that it can get pretty stinky long before the pail is full.'
p907
(dp908
S'pail'
p909
S'-2'
p910
ssS'The positives outway the negatives.'
p911
NsS"Now that our son's diapers are a little larger, they take up more space, and we empty twice a week."
p912
NsS'Much more hands off and takes any size diapers.'
p913
NsS"Don't listen to the bad reviews!"
p914
NsS"I have no issues w/ odor but baby poop doesn't start to smell really bad till they start on soilid so odor will not be a problem no matter what till then and that's many many months down the road."
p915
NsS'Any diaper pail, if you leave it for long enough, is going to smell.'
p916
NsS'As the bag fills, you may need to flip twice to ensure that the weighted cylinder has completely pushed the diaper into the bag.'
p917
NsS"It's also so easy to use and holds a great deal of diapers."
p918
(dp919
S'use'
p920
S'+3'
p921
ssS"We've never experienced odor from the pail."
p922
(dp923
S'odor'
p924
S'+2'
p925
ssS'Now when you flip the handle you get the Stick Up smell instead.'
p926
NsS'One pail that I used was so difficult to change the bag and insert the dirty diaper.'
p927
NsS'You had to remove the entire lid and lay it on the floor (which led to my toddler running away with it which is gross) while trying to fit the bag correctly into the slot.'
p928
NsS"We keep the Diaper Champ in our daughter's nursery and her room definitely does NOT smell like dirty diapers."
p929
(dp930
S'Diaper Champ'
p931
S'+3][u'
p932
ssS'I am very pleased with our choice.'
p933
NsS'and what a Godsend!'
p934
NsS'The bags attach inside the Champ easily and all one has to do is cram the diaper down and flip the handle.'
p935
(dp936
S'Champ'
p937
S'+3'
p938
ssS'it can be frustrating and messy when you put that last diaper in before realizing the unit is full.'
p939
(dp940
S'unit'
p941
S'-2'
p942
ssS'The Diaper Champ is the best we found!'
p943
(dp944
S'Diaper Champ'
p945
S'+3'
p946
ssS'Just flip the handle and the diaper is gone!'
p947
NsS"It contains the smell from our baby's diapers and we can use just about any kind of bag inside."
p948
(dp949
S'diapers'
p950
S'+2'
p951
ssS"I love that you don't have to purchase expensive refills."
p952
(dp953
S'refills'
p954
S'+3'
p955
ssS'The Champ did not start letting a little odor through until well over a year.'
p956
(dp957
S'Champ'
p958
S'+2'
p959
ssS"There is no comparison, the chanp is easy and smell free, the genie was difficult to use one handed (which is absolutly vital if you have a little one on a changing pad) and there was a deffinite odor eminating from the genie plus we found that the quick tie garbage bags where the ties are integrated into the bag work really well because there isn't any added bulk around the sealing edge of the champ."
p960
(dp961
S'odor'
p962
S'+3][cs'
p963
sS'champ'
p964
S'+3'
p965
ssS'Again, this is because as their diet changes, so does the consistency and odor of their stool, in other words, it gets stinkier!!!'
p966
NsS'I can honestly speak to its worth!'
p967
NsS'It works with a minimum of fuss.'
p968
(dp969
S'works'
p970
S'+2'
p971
ssS'Presto!'
p972
NsS'I also love that you can flip the device with one hand...'
p973
(dp974
S'filp'
p975
S'+2'
p976
ssS'Friends told me that the Diaper Genie did not work very well, so bought the Diaper Champ based on on-line reviews and I have been happy with it.'
p977
(dp978
S'Diaper Champ'
p979
S'+2][cc'
p980
ssS'That would be my only complaint.'
p981
NsS'I originally put this item on my baby registry because friends of mine highly recommended the use of a diaper pail.'
p982
NsS'(You can do it one handed while still hanging on to the baby.) Also, we like using regular trash bags instead of having to worry about buying refills (like with the Diaper Genie).'
p983
(dp984
S'refills'
p985
S'+3'
p986
ssS'Update (March 2005): My son has been out of diapers for almost 2 years now, but the Diaper Champ hung in there till the very end - easy to use, no problems with odors, and one of the best bargains among all of the paraphernalia required for the modern baby :-)'
p987
(dp988
S'use'
p989
S'+2'
p990
sS'odors'
p991
S'+2'
p992
sS'bargins'
p993
S'+2'
p994
ssS'I highly recommend this!'
p995
(dp996
S'diaper'
p997
S'+3'
p998
ssS'My biggest concern was would this truly control the odor and yes it did.'
p999
NsS"I still like it but don't think it rates the 5 stars I gave it but can't change that."
p1000
NsS'You will be sorry after a few months.'
p1001
NsS'Every time!'
p1002
NsS"I can't smell anything (and believe me, this is quite something with my baby)."
p1003
(dp1004
S'smell'
p1005
S'+3'
p1006
ssS'Would reccommend to anyone and everyone!!'
p1007
NsS"I just wished that it didn't fill up so fast!"
p1008
(dp1009
S'diaper pail'
p1010
S'-2'
p1011
ssS'It seemed as if we were empting the pail everyday and it was in no way odorless.'
p1012
(dp1013
S'odor'
p1014
S'-2][u'
p1015
sS'size'
p1016
S'-2'
p1017
ssS'I am soooo pleased with this product!!!'
p1018
(dp1019
S'product'
p1020
S'+3'
p1021
ssS"My husband and I bought this instead of the Diaper Genie since we didn't want to be bothered with buying refills for the Genie."
p1022
NsS'The cons, at times the diaper wipes get stuck in the disposal area making it hard to turn the handle back and forth.'
p1023
(dp1024
S'diaper wipes'
p1025
S'-2'
p1026
ssS'I registered for this item because of the good reviews it got, however I was not impressed.'
p1027
(dp1028
S'item'
p1029
S'-1'
p1030
ssS'My original purpose in buying the Diaper Champ instead of the Genie was to use it with cloth diapers.'
p1031
NsS"The container is hard to open, which is exactly what you want when your baby becomes a toddler, and you do have to flip the handle carefully (which has saved more than a few of her toys,too.) I don't consider these difficulties but features for the older baby."
p1032
(dp1033
S'container'
p1034
S'+2'
p1035
ssS'We hated that thing!'
p1036
NsS'This is one of the best purchases we made.'
p1037
(dp1038
S'purchases'
p1039
S'+3'
p1040
ssS'No spinning it or anyhting!'
p1041
NsS'It is mindless to operate.'
p1042
(dp1043
S'operate'
p1044
S'+3][u'
p1045
ssS'But be prepared to buy something else (diaper genie ?) which can trap the odor better.'
p1046
(dp1047
S'odor'
p1048
S'-1'
p1049
ssS"I'd abhor having to drive all the way to a baby superstore to purchase bags her dirty diapers are just going to get thrown away in."
p1050
NsS'For the first 9 months or so, we only needed to empty this once a week.'
p1051
NsS'To replace the bag simply open it up and feed the top of the bag through ring, fold it over the sides of the ring, and close.'
p1052
NsS'The product also leaves a faint smell in the room.'
p1053
(dp1054
S'product'
p1055
S'-2'
p1056
ssS'Let me just say this... After being a nanny for almost 10 years I have tried them all.'
p1057
NsS'1) The champ is easy to use.'
p1058
(dp1059
S'use'
p1060
S'+3'
p1061
ssS'I love this product!'
p1062
(dp1063
S'product'
p1064
S'+3][u'
p1065
ss.