(lp0
((lp1
S'Works'
p2
aS'great,'
p3
aS'no'
p4
aS'odor,'
p5
aS'and'
p6
aS'uses'
p7
aS'regular'
p8
aS'bags.'
p9
aS'pos'
p10
tp11
a((lp12
S"Can't"
p13
aS'complain'
p14
aS'at'
p15
aS'all!'
p16
aS'neutral'
p17
tp18
a((lp19
S'So'
p20
aS'far'
p21
aS'(3'
p22
aS'weeks),'
p23
aS"we've"
p24
aS'had'
p25
aS'no'
p26
aS'problems'
p27
aS'with'
p28
aS'the'
p29
aS'Diaper'
p30
aS'Champ'
p31
aS'at'
p32
aS'all.'
p33
ag10
tp34
a((lp35
S'It'
p36
aS'contains'
p37
aS'the'
p38
aS'smell'
p39
aS'from'
p40
aS'our'
p41
aS"baby's"
p42
aS'diapers'
p43
aS'and'
p44
aS'we'
p45
aS'can'
p46
aS'use'
p47
aS'just'
p48
aS'about'
p49
aS'any'
p50
aS'kind'
p51
aS'of'
p52
aS'bag'
p53
aS'inside.'
p54
ag10
tp55
a((lp56
S'I'
p57
aS'also'
p58
aS'sprinkled'
p59
aS'baking'
p60
aS'soda'
p61
aS'in'
p62
aS'the'
p63
aS'bottom'
p64
aS'of'
p65
aS'the'
p66
aS'Diaper'
p67
aS'Champ'
p68
aS'to'
p69
aS'help'
p70
aS'absorb'
p71
aS'odors'
p72
aS'-'
p73
aS'every'
p74
aS'once'
p75
aS'in'
p76
aS'awhile'
p77
ag57
aS'just'
p78
aS'empty'
p79
aS'the'
p80
aS'old'
p81
aS'baking'
p82
aS'soda'
p83
aS'out'
p84
aS'and'
p85
aS'replace'
p86
aS'it.'
p87
ag17
tp88
a((lp89
g57
aS"don't"
p90
aS'know'
p91
aS'if'
p92
aS"we'll"
p93
aS'run'
p94
aS'into'
p95
aS'trouble'
p96
aS'down'
p97
aS'the'
p98
aS'road'
p99
aS'with'
p100
aS'odors,'
p101
aS'but'
p102
aS'so'
p103
aS'far'
p104
ag57
aS'have'
p105
aS'no'
p106
aS'complaints'
p107
aS'and'
p108
aS"I'm"
p109
aS'very'
p110
aS'happy'
p111
aS'not'
p112
aS'to'
p113
aS'have'
p114
aS'to'
p115
aS'buy'
p116
aS'those'
p117
aS'refills.'
p118
ag10
tp119
a((lp120
S'We'
p121
aS'started'
p122
aS'with'
p123
aS'the'
p124
aS'Diaper'
p125
aS'Genie'
p126
aS'as'
p127
aS'most'
p128
aS'new'
p129
aS'parents'
p130
aS'do.'
p131
ag17
tp132
a((lp133
S'We'
p134
aS'hated'
p135
aS'that'
p136
aS'thing!'
p137
ag17
tp138
a((lp139
S'The'
p140
aS'"new"'
p141
aS'design'
p142
aS'still'
p143
aS'needs'
p144
aS'lots'
p145
aS'of'
p146
aS'improvement!'
p147
ag17
tp148
a((lp149
S'The'
p150
aS'bags'
p151
aS'never'
p152
aS'fit'
p153
aS'right'
p154
aS'and'
p155
aS'then'
p156
aS'it'
p157
aS'never'
p158
aS'spun'
p159
aS'right.'
p160
ag17
tp161
a((lp162
S'And'
p163
aS'after'
p164
aS'about'
p165
aS'two'
p166
aS'months'
p167
aS'it'
p168
aS'just'
p169
aS'sat'
p170
aS'there'
p171
aS'in'
p172
aS'the'
p173
aS'corner'
p174
aS'of'
p175
aS'her'
p176
aS'room'
p177
aS'and'
p178
aS'was'
p179
aS'never'
p180
aS'used.'
p181
ag17
tp182
a((lp183
S'As'
p184
aS'she'
p185
aS'entered'
p186
aS'into'
p187
aS'toddlerhood'
p188
aS'we'
p189
aS'started'
p190
aS'having'
p191
aS'some'
p192
aS'bad'
p193
aS'diapers'
p194
aS'just'
p195
aS'becasue'
p196
aS'of'
p197
aS'her'
p198
aS'cutting'
p199
aS'teeth'
p200
aS'and'
p201
aS'diet'
p202
aS'changes.'
p203
ag17
tp204
a((lp205
S'We'
p206
aS'decided'
p207
aS'we'
p208
aS'had'
p209
aS'to'
p210
aS'have'
p211
aS'something'
p212
aS'so'
p213
aS'we'
p214
aS'started'
p215
aS'researching.'
p216
ag17
tp217
a((lp218
S'The'
p219
aS'Diaper'
p220
aS'Champ'
p221
aS'is'
p222
aS'the'
p223
aS'best'
p224
aS'we'
p225
aS'found!'
p226
ag10
tp227
a((lp228
S'There'
p229
aS'are'
p230
aS'no'
p231
aS'specail'
p232
aS'bags'
p233
aS'to'
p234
aS'deal'
p235
aS'with'
p236
aS'or'
p237
aS'buy!'
p238
ag10
tp239
a((lp240
S'We'
p241
aS'use'
p242
aS'the'
p243
aS'cheap'
p244
aS'$1.99'
p245
aS'13'
p246
aS'gallon'
p247
aS'vanilla'
p248
aS'scented'
p249
aS'bags'
p250
aS'from'
p251
aS'the'
p252
aS'grocery'
p253
aS'store'
p254
aS'but'
p255
aS'you'
p256
aS'can'
p257
aS'use'
p258
aS'any'
p259
aS'bag'
p260
aS'you'
p261
aS'have'
p262
aS'laying'
p263
aS'around.'
p264
ag10
tp265
a((lp266
S'There'
p267
aS'is'
p268
aS'also'
p269
aS'no'
p270
aS'trick'
p271
aS'to'
p272
aS'it.'
p273
ag17
tp274
a((lp275
S'No'
p276
aS'spinning'
p277
aS'it'
p278
aS'or'
p279
aS'anyhting!'
p280
ag17
tp281
a((lp282
S'Just'
p283
aS'flip'
p284
aS'the'
p285
aS'handle'
p286
aS'and'
p287
aS'the'
p288
aS'diaper'
p289
aS'is'
p290
aS'gone!'
p291
ag17
tp292
a((lp293
S'Now'
p294
aS'it'
p295
aS'will'
p296
aS'start'
p297
aS'smelling'
p298
aS'if'
p299
aS'you'
p300
aS'leave'
p301
aS'it'
p302
aS'with'
p303
aS'diapers'
p304
aS'in'
p305
aS'it'
p306
aS'for'
p307
aS'an'
p308
aS'extended'
p309
aS'period'
p310
aS'but'
p311
aS'all'
p312
aS'of'
p313
aS'them'
p314
aS'will!'
p315
aS'neg'
p316
tp317
a((lp318
S'We'
p319
aS'empty'
p320
aS'ours'
p321
aS'every'
p322
aS'day'
p323
aS'and'
p324
aS'we'
p325
aS'have'
p326
aS'never'
p327
aS'had'
p328
aS'an'
p329
aS'odors'
p330
aS'from'
p331
aS'it!'
p332
ag10
tp333
a((lp334
S'It'
p335
aS'is'
p336
aS'far'
p337
aS'better'
p338
aS'than'
p339
aS'just'
p340
aS'a'
p341
aS'trash'
p342
aS'can'
p343
aS'or'
p344
aS'the'
p345
aS'Diaper'
p346
aS'Genie'
p347
aS'and'
p348
aS"it's"
p349
aS'fairly'
p350
aS'inexpensive'
p351
aS'as'
p352
aS'baby'
p353
aS'products'
p354
aS'go!'
p355
ag10
tp356
a((lp357
S'In'
p358
aS'concept,'
p359
aS"it's"
p360
ag341
aS'fabulous'
p361
aS'idea.'
p362
ag17
tp363
a((lp364
g57
aS'love'
p365
aS'that'
p366
aS'you'
p367
aS"don't"
p368
aS'have'
p369
aS'to'
p370
aS'purchase'
p371
aS'expensive'
p372
aS'refills.'
p373
ag10
tp374
a((lp375
g57
aS'just'
p376
aS'go'
p377
aS'to'
p378
aS'[the'
p379
aS'store]'
p380
aS'and'
p381
aS'purchase'
p382
aS'tall'
p383
aS'kitchen'
p384
aS'bags'
p385
aS'and'
p386
aS'use'
p387
aS'those'
p388
aS'for'
p389
aS'the'
p390
aS'Diaper'
p391
aS'Champ.'
p392
ag17
tp393
a((lp394
S'The'
p395
aS'cons,'
p396
aS'at'
p397
aS'times'
p398
aS'the'
p399
aS'diaper'
p400
aS'wipes'
p401
aS'get'
p402
aS'stuck'
p403
aS'in'
p404
aS'the'
p405
aS'disposal'
p406
aS'area'
p407
aS'making'
p408
aS'it'
p409
aS'hard'
p410
aS'to'
p411
aS'turn'
p412
aS'the'
p413
aS'handle'
p414
aS'back'
p415
aS'and'
p416
aS'forth.'
p417
ag316
tp418
a((lp419
S'In'
p420
aS'addition,'
p421
ag57
aS"don't"
p422
aS'believe'
p423
aS'that'
p424
aS'it'
p425
aS'is'
p426
aS'odorless.'
p427
ag316
tp428
a((lp429
S'My'
p430
aS'daughter'
p431
aS'is'
p432
aS'only'
p433
aS'4'
p434
aS'months'
p435
aS'old'
p436
aS'and'
p437
aS'we'
p438
aS'do'
p439
aS'notice'
p440
aS'an'
p441
aS'odor.'
p442
ag316
tp443
a((lp444
S"I'm"
p445
aS'concerned'
p446
aS'that'
p447
aS'as'
p448
aS'she'
p449
aS'gets'
p450
aS'older'
p451
aS'the'
p452
aS'#2'
p453
aS'diapers'
p454
aS'will'
p455
aS'only'
p456
aS'get'
p457
aS'worse.'
p458
ag17
tp459
a((lp460
S'If'
p461
ag57
aS'had'
p462
aS'to'
p463
aS'do'
p464
aS'it'
p465
aS'over'
p466
aS'again,'
p467
aS'even'
p468
aS'with'
p469
aS'the'
p470
aS'cost'
p471
aS'savings'
p472
aS'of'
p473
aS'using'
p474
aS'any'
p475
aS'type'
p476
aS'of'
p477
aS'bag,'
p478
ag57
aS'would'
p479
aS'go'
p480
aS'w/'
p481
aS'the'
p482
aS'Diaper'
p483
aS'Genie.'
p484
ag10
tp485
a((lp486
S"It's"
p487
aS'far'
p488
aS'better'
p489
aS'than'
p490
aS'all'
p491
aS'others'
p492
aS'on'
p493
aS'the'
p494
aS'market.'
p495
ag10
tp496
a((lp497
S"it's"
p498
aS'easier'
p499
aS'and'
p500
aS'much'
p501
aS'more'
p502
aS'convenient'
p503
aS'to'
p504
aS'use'
p505
aS'because'
p506
aS'it'
p507
aS"doesn't"
p508
aS'have'
p509
aS'CLUMSY'
p510
aS'and'
p511
aS'CONFUSING'
p512
aS'(not'
p513
aS'to'
p514
aS'mention'
p515
aS'expensive)'
p516
aS'refills.'
p517
ag10
tp518
a((lp519
S'There'
p520
aS'is'
p521
aS'no'
p522
aS'odor'
p523
aS'and'
p524
aS'extremely'
p525
aS'easy'
p526
aS'to'
p527
aS'use.'
p528
ag10
tp529
a((lp530
S'Having'
p531
aS'one'
p532
aS'of'
p533
aS'these'
p534
aS'helps'
p535
aS'from'
p536
aS'needing'
p537
aS'to'
p538
aS'take'
p539
aS'out'
p540
aS'the'
p541
aS'trash'
p542
aS'daily'
p543
aS'for'
p544
aS'the'
p545
aS'guys!'
p546
ag17
tp547
a((lp548
S'My'
p549
aS'daughter'
p550
aS'is'
p551
aS'now'
p552
aS'2'
p553
aS'and'
p554
aS'1/2,'
p555
aS'and'
p556
ag57
aS'am'
p557
aS'still'
p558
aS'enjoying'
p559
aS'this'
p560
aS'product.'
p561
ag17
tp562
a((lp563
S'We'
p564
aS'purchased'
p565
aS'it'
p566
aS'based'
p567
aS'on'
p568
aS'the'
p569
aS'reviews,'
p570
aS'and'
p571
aS'it'
p572
aS'really'
p573
aS'lived'
p574
aS'up'
p575
aS'to'
p576
aS'our'
p577
aS'expectations.'
p578
ag17
tp579
a((lp580
S'We'
p581
aS'liked'
p582
aS'it'
p583
aS'because:'
p584
ag17
tp585
a((lp586
S'1.'
p587
aS'It'
p588
aS'uses'
p589
aS'regular'
p590
aS'garbage'
p591
aS'bags'
p592
aS'instead'
p593
aS'of'
p594
aS'brand'
p595
aS'refills.'
p596
ag10
tp597
a((lp598
S'2.'
p599
aS'You'
p600
aS'can'
p601
aS'dump'
p602
aS'regular'
p603
aS'trash'
p604
aS'into'
p605
aS'it'
p606
aS'and'
p607
aS'not'
p608
aS'feel'
p609
aS'as'
p610
aS'though'
p611
aS"you've"
p612
aS'wasted'
p613
aS'plastic.'
p614
ag17
tp615
a((lp616
S'3.'
p617
aS'It'
p618
aS'never'
p619
aS'smelled'
p620
ag73
aS'at'
p621
aS'all.'
p622
ag10
tp623
a((lp624
S"Here's"
p625
aS'the'
p626
aS'catch'
p627
aS'for'
p628
aS'us-'
p629
aS'our'
p630
aS'daughter'
p631
aS'never'
p632
aS'drank'
p633
aS'formula,'
p634
aS'which'
p635
aS'is'
p636
aS'what'
p637
aS'gives'
p638
aS'baby'
p639
aS'waste'
p640
ag341
aS'foul'
p641
aS'smell,'
p642
aS'and'
p643
aS'when'
p644
aS'she'
p645
aS'was'
p646
aS'eating'
p647
aS'solids'
p648
aS'we'
p649
aS'followed'
p650
aS'the'
p651
aS'American'
p652
aS'Pediatric'
p653
aS'Association'
p654
aS'recommendation'
p655
aS'to'
p656
aS'flush'
p657
aS'solid'
p658
aS'products'
p659
aS'instead'
p660
aS'of'
p661
aS'disposing'
p662
aS'of'
p663
aS'them.'
p664
ag17
tp665
a((lp666
g57
aS"don't"
p667
aS'know'
p668
aS'how'
p669
aS'this'
p670
aS'product'
p671
aS'would'
p672
aS'hold'
p673
aS'up'
p674
aS'to'
p675
aS'either'
p676
aS'of'
p677
aS'these'
p678
aS'situations.'
p679
ag17
tp680
a((lp681
g57
aS'just'
p682
aS'know'
p683
aS'it'
p684
aS'really'
p685
aS'worked'
p686
aS'for'
p687
aS'us.'
p688
ag17
tp689
a((lp690
S'The'
p691
aS'container'
p692
aS'is'
p693
aS'hard'
p694
aS'to'
p695
aS'open,'
p696
aS'which'
p697
aS'is'
p698
aS'exactly'
p699
aS'what'
p700
aS'you'
p701
aS'want'
p702
aS'when'
p703
aS'your'
p704
aS'baby'
p705
aS'becomes'
p706
ag341
aS'toddler,'
p707
aS'and'
p708
aS'you'
p709
aS'do'
p710
aS'have'
p711
aS'to'
p712
aS'flip'
p713
aS'the'
p714
aS'handle'
p715
aS'carefully'
p716
aS'(which'
p717
aS'has'
p718
aS'saved'
p719
aS'more'
p720
aS'than'
p721
ag341
aS'few'
p722
aS'of'
p723
aS'her'
p724
aS'toys,too.)'
p725
ag57
aS"don't"
p726
aS'consider'
p727
aS'these'
p728
aS'difficulties'
p729
aS'but'
p730
aS'features'
p731
aS'for'
p732
aS'the'
p733
aS'older'
p734
aS'baby.'
p735
ag10
tp736
a((lp737
S'We'
p738
aS'graduated'
p739
aS'to'
p740
aS'real'
p741
aS'underwear'
p742
aS'last'
p743
aS'week'
p744
aS'in'
p745
aS'our'
p746
aS'house,'
p747
aS'and'
p748
aS"I'm"
p749
aS'passing'
p750
aS'this'
p751
aS'on'
p752
aS'instead'
p753
aS'of'
p754
aS'retiring'
p755
aS'it-'
p756
aS"it's"
p757
aS'too'
p758
aS'good'
p759
aS'to'
p760
aS'sit'
p761
aS'unused'
p762
aS'in'
p763
aS'the'
p764
aS'basement'
p765
aS'or'
p766
aS'dump.'
p767
ag17
tp768
a((lp769
S'WRONG!'
p770
ag17
tp771
a((lp772
S'Even'
p773
aS'with'
p774
aS'newborn'
p775
aS'diapers'
p776
aS'it'
p777
aS'filled'
p778
aS'way'
p779
aS'too'
p780
aS'fast.'
p781
ag316
tp782
a((lp783
S'It'
p784
aS'seemed'
p785
aS'as'
p786
aS'if'
p787
aS'we'
p788
aS'were'
p789
aS'empting'
p790
aS'the'
p791
aS'pail'
p792
aS'everyday'
p793
aS'and'
p794
aS'it'
p795
aS'was'
p796
aS'in'
p797
aS'no'
p798
aS'way'
p799
aS'odorless.'
p800
ag316
tp801
a((lp802
S'Save'
p803
aS'your'
p804
aS'money'
p805
aS'invest'
p806
aS'in'
p807
aS'plastic'
p808
aS'bags'
p809
aS'and'
p810
aS'dispose'
p811
aS'of'
p812
aS'diapers'
p813
aS'by'
p814
aS'sealing'
p815
aS'them'
p816
aS'in'
p817
aS'the'
p818
aS'bags'
p819
aS'and'
p820
aS'placing'
p821
aS'them'
p822
aS'in'
p823
aS'the'
p824
aS'regular'
p825
aS'garbage.'
p826
ag17
tp827
a((lp828
S'A'
p829
aS'MUST'
p830
aS'HAVE!'
p831
ag17
tp832
a((lp833
S'This'
p834
aS'is'
p835
ag341
aS'MUST'
p836
aS'HAVE'
p837
aS'product'
p838
aS'for'
p839
aS'all'
p840
aS'new'
p841
aS'moms!'
p842
ag10
tp843
a((lp844
S'The'
p845
aS'one'
p846
aS'thing'
p847
aS'that'
p848
aS'sets'
p849
aS'this'
p850
aS'product'
p851
aS'apart'
p852
aS'from'
p853
aS'the'
p854
aS'diaper'
p855
aS'genie'
p856
aS'is'
p857
aS'that'
p858
aS'this'
p859
aS'product'
p860
aS'can'
p861
aS'use'
p862
aS'regular'
p863
aS'garbage'
p864
aS'bags.'
p865
ag17
tp866
a((lp867
S'ANY'
p868
aS'Garbage'
p869
aS'bags'
p870
aS'will'
p871
aS'fit.'
p872
ag17
tp873
a((lp874
S'The'
p875
aS'Diaper'
p876
aS'Genie'
p877
aS'needs'
p878
aS"it's"
p879
aS'own'
p880
aS'refill'
p881
aS'bags'
p882
aS'in'
p883
aS'order'
p884
aS'to'
p885
aS'work'
p886
aS'and'
p887
aS"that's"
p888
aS'just'
p889
aS'more'
p890
aS'money'
p891
aS'that'
p892
aS'you'
p893
aS"don't"
p894
aS'have'
p895
aS'to'
p896
aS'spend.'
p897
ag316
tp898
a((lp899
S'This'
p900
aS'is'
p901
aS'easy'
p902
aS'to'
p903
aS'work'
p904
aS'and'
p905
aS'easy'
p906
aS'to'
p907
aS'dispose'
p908
aS'of'
p909
aS'the'
p910
aS'dirty'
p911
aS'diapers.'
p912
ag10
tp913
a((lp914
S'FANTASTIC!'
p915
ag17
tp916
a((lp917
g57
aS'find'
p918
aS'the'
p919
aS'major'
p920
aS'problem'
p921
aS'with'
p922
aS'this'
p923
aS'item'
p924
aS'is'
p925
aS'that'
p926
aS'if'
p927
aS'you'
p928
aS'have'
p929
ag341
aS'very'
p930
aS'messy'
p931
aS'diaper'
p932
aS'and'
p933
aS"can't"
p934
aS'tightly'
p935
aS'bundle'
p936
aS'it'
p937
aS'without'
p938
ag341
aS'mess,'
p939
aS'the'
p940
aS'mess'
p941
aS'gets'
p942
aS'all'
p943
aS'over'
p944
aS'the'
p945
aS'module'
p946
aS'that'
p947
aS'dumps'
p948
aS'the'
p949
aS'diaper'
p950
aS'and'
p951
aS'the'
p952
aS'stink'
p953
aS'is'
p954
aS'OUTSIDE'
p955
aS'of'
p956
aS'the'
p957
aS'diaper'
p958
aS'pail.'
p959
ag316
tp960
a((lp961
S'My'
p962
aS'main'
p963
aS'complaints'
p964
aS'are'
p965
aS'that'
p966
aS'it'
p967
aS'should'
p968
aS'be'
p969
aS'deeper'
p970
aS'or'
p971
aS'wider'
p972
aS'as'
p973
aS'it'
p974
aS"doesn't"
p975
aS'even'
p976
aS'fit'
p977
ag341
aS'smaller'
p978
aS'sized'
p979
aS'garbage'
p980
aS'bag.'
p981
ag316
tp982
a((lp983
S'The'
p984
aS'hole'
p985
aS'to'
p986
aS'put'
p987
aS'the'
p988
aS'diaper'
p989
aS'in'
p990
aS'needs'
p991
aS'to'
p992
aS'be'
p993
aS'larger'
p994
aS'as'
p995
ag57
aS'am'
p996
aS'now'
p997
aS'using'
p998
aS'medium'
p999
aS'diapers'
p1000
aS'(I'
p1001
aS'have'
p1002
ag341
aS'3'
p1003
aS'month'
p1004
aS'old)'
p1005
aS'and'
p1006
aS"they're"
p1007
aS'on'
p1008
aS'the'
p1009
aS'brink'
p1010
aS'of'
p1011
aS'being'
p1012
aS'too'
p1013
aS'large'
p1014
aS'to'
p1015
aS'fit'
p1016
aS'no'
p1017
aS'matter'
p1018
aS'how'
p1019
aS'compact'
p1020
ag57
aS'make'
p1021
aS'then'
p1022
aS'and'
p1023
aS'how'
p1024
aS'un-soiled'
p1025
aS'they'
p1026
aS'are.'
p1027
ag316
tp1028
a((lp1029
g57
aS'have'
p1030
aS'no'
p1031
aS'issues'
p1032
aS'w/'
p1033
aS'odor'
p1034
aS'but'
p1035
aS'baby'
p1036
aS'poop'
p1037
aS"doesn't"
p1038
aS'start'
p1039
aS'to'
p1040
aS'smell'
p1041
aS'really'
p1042
aS'bad'
p1043
aS'till'
p1044
aS'they'
p1045
aS'start'
p1046
aS'on'
p1047
aS'soilid'
p1048
aS'so'
p1049
aS'odor'
p1050
aS'will'
p1051
aS'not'
p1052
aS'be'
p1053
ag341
aS'problem'
p1054
aS'no'
p1055
aS'matter'
p1056
aS'what'
p1057
aS'till'
p1058
aS'then'
p1059
aS'and'
p1060
aS"that's"
p1061
aS'many'
p1062
aS'many'
p1063
aS'months'
p1064
aS'down'
p1065
aS'the'
p1066
aS'road.'
p1067
ag17
tp1068
a((lp1069
S'This'
p1070
aS'pail'
p1071
aS"doesn't"
p1072
aS'really'
p1073
aS'keep'
p1074
aS'in'
p1075
aS'odors'
p1076
aS'anymore'
p1077
aS'and'
p1078
aS"we'll"
p1079
aS'probably'
p1080
aS'have'
p1081
aS'to'
p1082
aS'get'
p1083
ag341
aS'new'
p1084
aS'one,'
p1085
aS'but'
p1086
aS'since'
p1087
aS'you'
p1088
aS'can'
p1089
aS'use'
p1090
aS'regular'
p1091
aS'garbage'
p1092
aS'bags'
p1093
aS'(we'
p1094
aS'actually'
p1095
aS'use'
p1096
aS'the'
p1097
aS'bags'
p1098
aS'we'
p1099
aS'get'
p1100
aS'our'
p1101
aS'groceries'
p1102
aS'in'
p1103
aS'because'
p1104
aS'they'
p1105
aS'hang'
p1106
aS'perfectly)'
p1107
aS'its'
p1108
aS'still'
p1109
aS'probably'
p1110
ag341
aS'better'
p1111
aS'deal'
p1112
aS'than'
p1113
aS'the'
p1114
aS'genie.'
p1115
ag17
tp1116
a((lp1117
S'We'
p1118
aS'just'
p1119
aS'had'
p1120
ag341
aS'baby'
p1121
aS'and'
p1122
aS'were'
p1123
aS'debating'
p1124
aS'getting'
p1125
aS'either'
p1126
aS'this'
p1127
aS'product'
p1128
aS'or'
p1129
aS'the'
p1130
aS'Diaper'
p1131
aS'genie'
p1132
aS'and'
p1133
aS'this'
p1134
aS'is'
p1135
aS'what'
p1136
aS'sold'
p1137
aS'us'
p1138
aS'on'
p1139
aS'this'
p1140
aS'product'
p1141
ag17
tp1142
a((lp1143
S'We'
p1144
aS'received'
p1145
aS'this'
p1146
aS'diaper'
p1147
aS'pail'
p1148
aS'as'
p1149
ag341
aS'gift'
p1150
aS'while'
p1151
aS'expecting'
p1152
aS'our'
p1153
aS'second'
p1154
aS'child.'
p1155
ag17
tp1156
a((lp1157
S'and'
p1158
aS'what'
p1159
ag341
aS'Godsend!'
p1160
ag17
tp1161
a((lp1162
S'It'
p1163
aS'is'
p1164
aS'much'
p1165
aS'easier'
p1166
aS'to'
p1167
aS'fill'
p1168
aS'and'
p1169
aS'unload'
p1170
aS'than'
p1171
aS'the'
p1172
aS'Diaper'
p1173
aS'Genie,'
p1174
aS'plus,'
p1175
aS'why'
p1176
aS'buy'
p1177
aS'refills'
p1178
aS'when'
p1179
aS'you'
p1180
aS'can'
p1181
aS'use'
p1182
aS'trash'
p1183
aS'bags'
p1184
aS'from'
p1185
aS'the'
p1186
aS'Dollar'
p1187
aS'Store?'
p1188
ag10
tp1189
a((lp1190
S'It'
p1191
aS'also'
p1192
aS'holds'
p1193
ag341
aS'lot'
p1194
aS'more'
p1195
aS'diapers.'
p1196
ag10
tp1197
a((lp1198
S'look'
p1199
aS'at'
p1200
aS'the'
p1201
aS'size'
p1202
aS'of'
p1203
aS'it!'
p1204
ag10
tp1205
a((lp1206
S'Any'
p1207
aS'diaper'
p1208
aS'pail,'
p1209
aS'if'
p1210
aS'you'
p1211
aS'leave'
p1212
aS'it'
p1213
aS'for'
p1214
aS'long'
p1215
aS'enough,'
p1216
aS'is'
p1217
aS'going'
p1218
aS'to'
p1219
aS'smell.'
p1220
ag17
tp1221
a((lp1222
g57
aS'have'
p1223
aS'noticed'
p1224
aS'an'
p1225
aS'odor'
p1226
aS'(one'
p1227
aS'the'
p1228
ag57
aS'expected!)'
p1229
aS'when'
p1230
aS'unloading'
p1231
aS'the'
p1232
aS'Diaper'
p1233
aS'Champ'
p1234
aS'but'
p1235
aS'at'
p1236
aS'least'
p1237
aS'you'
p1238
aS"don't"
p1239
aS'smell'
p1240
aS'anything'
p1241
aS'every'
p1242
aS'time'
p1243
aS'you'
p1244
aS'use'
p1245
aS'it.'
p1246
ag316
tp1247
a((lp1248
S'unlike'
p1249
aS'the'
p1250
aS'Diaper'
p1251
aS'Genie!'
p1252
ag17
tp1253
a((lp1254
g57
aS'highly'
p1255
aS'recommend'
p1256
aS'this!'
p1257
ag10
tp1258
a((lp1259
S'For'
p1260
aS'my'
p1261
aS'first'
p1262
ag57
aS'had'
p1263
ag341
aS'diaper'
p1264
aS'genie'
p1265
aS'which'
p1266
aS'was'
p1267
aS'not'
p1268
aS'only'
p1269
aS'costly'
p1270
aS'with'
p1271
aS'the'
p1272
aS'refills'
p1273
aS'but'
p1274
aS'it'
p1275
aS'was'
p1276
aS'also'
p1277
aS'very'
p1278
aS'stinky.'
p1279
ag316
tp1280
a((lp1281
g57
aS'would'
p1282
aS'not'
p1283
aS'recommend'
p1284
aS'buying'
p1285
aS'that'
p1286
aS'one.'
p1287
ag17
tp1288
a((lp1289
S'My'
p1290
aS'second'
p1291
aS'child'
p1292
ag57
aS"didn't"
p1293
aS'get'
p1294
aS'any.'
p1295
ag17
tp1296
a((lp1297
S'Now'
p1298
aS'for'
p1299
aS'our'
p1300
aS'third'
p1301
aS'child'
p1302
ag57
aS'saw'
p1303
aS'the'
p1304
aS'Diaper'
p1305
aS'Champ'
p1306
aS'and'
p1307
aS'figured'
p1308
aS'why'
p1309
aS'not'
p1310
aS'register'
p1311
aS'for'
p1312
aS'it'
p1313
aS'and'
p1314
aS'try'
p1315
aS'it'
p1316
aS'out.'
p1317
ag17
tp1318
a((lp1319
g57
aS'have'
p1320
aS'to'
p1321
aS'say'
p1322
aS'that'
p1323
ag57
aS'am'
p1324
aS'very'
p1325
aS'happy'
p1326
aS'with'
p1327
aS'it'
p1328
aS'so'
p1329
aS'far.'
p1330
ag10
tp1331
a((lp1332
g57
aS'did'
p1333
aS'dump'
p1334
ag341
aS'little'
p1335
aS'deoderizer'
p1336
aS'tablet'
p1337
aS'in'
p1338
aS'it.'
p1339
ag17
tp1340
a((lp1341
g57
aS'am'
p1342
aS'happy'
p1343
aS'with'
p1344
aS'the'
p1345
aS'fact'
p1346
aS'that'
p1347
ag57
aS'can'
p1348
aS'use'
p1349
aS'any'
p1350
aS'bag'
p1351
aS'in'
p1352
aS'there'
p1353
aS'and'
p1354
aS"dont'"
p1355
aS'have'
p1356
aS'to'
p1357
aS'pay'
p1358
aS'out'
p1359
aS'the'
p1360
aS'nose'
p1361
aS'for'
p1362
aS'replacements.'
p1363
ag10
tp1364
a((lp1365
S"It's"
p1366
aS'also'
p1367
aS'so'
p1368
aS'easy'
p1369
aS'to'
p1370
aS'use'
p1371
aS'and'
p1372
aS'holds'
p1373
ag341
aS'great'
p1374
aS'deal'
p1375
aS'of'
p1376
aS'diapers.'
p1377
ag10
tp1378
a((lp1379
g57
aS"haven't"
p1380
aS'noticed'
p1381
aS'any'
p1382
aS'seepage'
p1383
aS'of'
p1384
aS'smells.'
p1385
ag17
tp1386
a((lp1387
S'My'
p1388
aS'husband'
p1389
aS'and'
p1390
ag57
aS'bought'
p1391
aS'this'
p1392
aS'instead'
p1393
aS'of'
p1394
aS'the'
p1395
aS'Diaper'
p1396
aS'Genie'
p1397
aS'since'
p1398
aS'we'
p1399
aS"didn't"
p1400
aS'want'
p1401
aS'to'
p1402
aS'be'
p1403
aS'bothered'
p1404
aS'with'
p1405
aS'buying'
p1406
aS'refills'
p1407
aS'for'
p1408
aS'the'
p1409
aS'Genie.'
p1410
ag17
tp1411
a((lp1412
S'Well,'
p1413
ag57
aS'suppose'
p1414
aS'this'
p1415
aS'is'
p1416
aS'better'
p1417
aS'than'
p1418
aS'an'
p1419
aS'open'
p1420
aS'pail,'
p1421
aS'but'
p1422
aS'to'
p1423
aS'have'
p1424
ag341
aS'nursery'
p1425
aS'in'
p1426
aS'which'
p1427
aS'there'
p1428
aS'is'
p1429
aS'no'
p1430
aS'unpleasant'
p1431
aS'smell'
p1432
aS'is'
p1433
aS'quite'
p1434
aS'impossible'
p1435
aS'no'
p1436
aS'matter'
p1437
aS'what'
p1438
aS'you'
p1439
aS'use.'
p1440
ag17
tp1441
a((lp1442
S'The'
p1443
aS'bags'
p1444
aS'attach'
p1445
aS'inside'
p1446
aS'the'
p1447
aS'Champ'
p1448
aS'easily'
p1449
aS'and'
p1450
aS'all'
p1451
aS'one'
p1452
aS'has'
p1453
aS'to'
p1454
aS'do'
p1455
aS'is'
p1456
aS'cram'
p1457
aS'the'
p1458
aS'diaper'
p1459
aS'down'
p1460
aS'and'
p1461
aS'flip'
p1462
aS'the'
p1463
aS'handle.'
p1464
ag10
tp1465
a((lp1466
S'Presto!'
p1467
ag17
tp1468
a((lp1469
S'Diaper'
p1470
aS'falls'
p1471
aS'into'
p1472
aS'bag'
p1473
aS'inside'
p1474
aS'the'
p1475
aS'Champ.'
p1476
ag17
tp1477
a((lp1478
S'But,'
p1479
aS'sometimes,'
p1480
aS'if'
p1481
aS'the'
p1482
aS'Champ'
p1483
aS'is'
p1484
aS'too'
p1485
aS'full,'
p1486
aS'the'
p1487
aS'flip'
p1488
aS'handle'
p1489
aS"won't"
p1490
aS'function.'
p1491
ag316
tp1492
a((lp1493
S'(I'
p1494
aS'never'
p1495
aS'know'
p1496
aS'when'
p1497
aS'the'
p1498
aS'Champ'
p1499
aS'is'
p1500
aS'full'
p1501
aS'as'
p1502
aS'there'
p1503
aS'is'
p1504
aS'no'
p1505
aS'way'
p1506
aS'too'
p1507
aS'tell.'
p1508
aS'Even'
p1509
aS'though'
p1510
aS'not'
p1511
aS'particularly'
p1512
aS'aesthetic,'
p1513
aS'how'
p1514
aS'about'
p1515
aS'making'
p1516
aS'the'
p1517
aS'Champ'
p1518
aS'clear'
p1519
aS'and'
p1520
aS'see-through?)'
p1521
aS'So,'
p1522
ag57
aS'lift'
p1523
aS'the'
p1524
aS'lid'
p1525
aS'and'
p1526
aS'find'
p1527
ag341
aS'wad'
p1528
aS'of'
p1529
aS'diaper,'
p1530
aS'which'
p1531
ag57
aS'must'
p1532
aS'remove,'
p1533
aS'usually'
p1534
aS'stuck'
p1535
aS'inside'
p1536
aS'the'
p1537
aS'lid'
p1538
aS'itself'
p1539
aS'because'
p1540
aS'the'
p1541
aS'bag'
p1542
aS'is'
p1543
aS'too'
p1544
aS'full.'
p1545
ag316
tp1546
a((lp1547
g829
aS'couple'
p1548
aS'of'
p1549
aS'tips'
p1550
aS'to'
p1551
aS'having'
p1552
ag341
aS'clean-smelling'
p1553
aS'nursery'
p1554
aS'even'
p1555
aS'with'
p1556
aS'the'
p1557
aS'Champ:'
p1558
aS'Double'
p1559
aS'bagging-'
p1560
aS'Get'
p1561
aS'those'
p1562
aS'diaper'
p1563
aS'sacks'
p1564
aS'you'
p1565
aS'would'
p1566
aS'use'
p1567
aS'to'
p1568
aS'dispose'
p1569
aS'of'
p1570
aS'diapers'
p1571
aS'if'
p1572
aS"you're"
p1573
aS'in'
p1574
ag341
aS'place'
p1575
aS'where'
p1576
aS'you'
p1577
aS"don't"
p1578
aS'want'
p1579
aS'to'
p1580
aS'dump'
p1581
ag341
aS'dirty'
p1582
aS'diaper,'
p1583
aS'like'
p1584
aS'in'
p1585
aS'your'
p1586
aS"friend's"
p1587
aS'wastebasket'
p1588
aS'or'
p1589
aS'kitchen'
p1590
aS'garbage.'
p1591
ag17
tp1592
a((lp1593
S'Bag'
p1594
aS'the'
p1595
aS'diaper'
p1596
aS'in'
p1597
aS'this'
p1598
aS'small'
p1599
aS'clean-smelling'
p1600
aS'bag'
p1601
aS'and'
p1602
aS'then'
p1603
aS'chuck'
p1604
aS'it'
p1605
aS'in'
p1606
aS'the'
p1607
aS'Champ.'
p1608
ag17
tp1609
a((lp1610
S'Another'
p1611
aS'tip'
p1612
aS'is'
p1613
aS'to'
p1614
aS'wash'
p1615
aS'out'
p1616
aS'the'
p1617
aS'Champ'
p1618
aS'frequently'
p1619
aS'and'
p1620
aS'spray'
p1621
aS'the'
p1622
aS'inside'
p1623
aS'and'
p1624
aS'lid'
p1625
aS'with'
p1626
aS'Lysol'
p1627
aS'after'
p1628
aS'every'
p1629
aS'full'
p1630
aS'bag'
p1631
aS'is'
p1632
aS'removed.'
p1633
ag17
tp1634
a((lp1635
g57
aS'bought'
p1636
aS'this'
p1637
aS'diaper'
p1638
aS'pail'
p1639
aS'when'
p1640
aS'my'
p1641
aS'son'
p1642
aS'was'
p1643
aS'just'
p1644
ag341
aS'few'
p1645
aS'days'
p1646
aS'old'
p1647
aS'and'
p1648
ag57
aS'absolutely'
p1649
aS'LOVE'
p1650
aS'it!'
p1651
ag10
tp1652
a((lp1653
g57
aS'used'
p1654
aS'to'
p1655
aS'work'
p1656
aS'in'
p1657
ag341
aS'daycare'
p1658
aS'and'
p1659
aS'we'
p1660
aS'had'
p1661
ag341
aS'diaper'
p1662
aS'genie.'
p1663
ag17
tp1664
a((lp1665
S'It'
p1666
aS'was'
p1667
aS'such'
p1668
ag341
aS'pain'
p1669
aS'to'
p1670
aS'use.'
p1671
ag17
tp1672
a((lp1673
S'We'
p1674
aS'all'
p1675
aS'hated'
p1676
aS'it.'
p1677
ag17
tp1678
a((lp1679
S'The'
p1680
aS'diaper'
p1681
aS'champ'
p1682
aS"couldn't"
p1683
aS'be'
p1684
aS'easier'
p1685
aS'to'
p1686
aS'use.'
p1687
ag10
tp1688
a((lp1689
S'And'
p1690
aS'the'
p1691
aS'biggest'
p1692
aS'plus'
p1693
aS'is'
p1694
aS'that'
p1695
aS'you'
p1696
aS"don't"
p1697
aS'have'
p1698
aS'to'
p1699
aS'buy'
p1700
aS'any'
p1701
aS'expensive'
p1702
aS'refills.'
p1703
ag10
tp1704
a((lp1705
S'It'
p1706
aS'takes'
p1707
aS'regular'
p1708
aS'trash'
p1709
aS'bags.'
p1710
ag17
tp1711
a((lp1712
g57
aS'generally'
p1713
aS'put'
p1714
aS'kitchen'
p1715
aS'size'
p1716
aS'bags'
p1717
aS'in'
p1718
aS'it,'
p1719
aS'but'
p1720
aS'you'
p1721
aS'can'
p1722
aS'use'
p1723
aS'just'
p1724
aS'about'
p1725
aS'any'
p1726
aS'size'
p1727
aS'if'
p1728
aS'you'
p1729
aS'are'
p1730
aS'in'
p1731
ag341
aS'pinch.'
p1732
ag17
tp1733
a((lp1734
S'And'
p1735
aS'it'
p1736
aS'does'
p1737
aS'an'
p1738
aS'excellent'
p1739
aS'job'
p1740
aS'of'
p1741
aS'keeping'
p1742
aS'the'
p1743
aS'odor'
p1744
aS'contained,'
p1745
aS'which'
p1746
aS'the'
p1747
aS'diaper'
p1748
aS'genie'
p1749
aS'never'
p1750
aS'did!'
p1751
ag10
tp1752
a((lp1753
S'If'
p1754
aS'you'
p1755
aS'are'
p1756
aS'looking'
p1757
aS'for'
p1758
ag341
aS'user-friendly'
p1759
aS'diaper'
p1760
aS'pail'
p1761
aS'that'
p1762
aS'actually'
p1763
aS'does'
p1764
aS'keep'
p1765
aS'the'
p1766
aS'odor'
p1767
aS'contained,'
p1768
aS'than'
p1769
aS'the'
p1770
aS'diaper'
p1771
aS'champ'
p1772
aS'is'
p1773
aS'the'
p1774
aS'one'
p1775
aS'for'
p1776
aS'you!'
p1777
ag10
tp1778
a((lp1779
S'It'
p1780
aS'was'
p1781
ag341
aS'PAIN.'
p1782
ag17
tp1783
a((lp1784
S'Everytime'
p1785
ag57
aS'tried'
p1786
aS'to'
p1787
aS'unload'
p1788
aS'it'
p1789
aS'the'
p1790
aS'sausage'
p1791
aS'links(as'
p1792
ag57
aS'call'
p1793
aS'them)'
p1794
aS'would'
p1795
aS'unravel'
p1796
aS'and'
p1797
ag57
aS'think'
p1798
aS'the'
p1799
aS'odor'
p1800
aS'control'
p1801
aS'was'
p1802
aS'only'
p1803
aS'so'
p1804
aS'so.'
p1805
ag17
tp1806
a((lp1807
S'it'
p1808
aS"wasn't"
p1809
aS'much'
p1810
aS'different'
p1811
aS'than'
p1812
aS'putting'
p1813
aS'the'
p1814
aS'diaper'
p1815
aS'in'
p1816
ag341
aS'shopping'
p1817
aS'back'
p1818
aS'and'
p1819
aS'putting'
p1820
aS'it'
p1821
aS'in'
p1822
aS'the'
p1823
aS'regular'
p1824
aS'trash.'
p1825
ag17
tp1826
a((lp1827
S'THIS'
p1828
aS'ITEM'
p1829
aS'IS'
p1830
aS'EXCEPTIONAL'
p1831
ag57
aS'like'
p1832
aS'the'
p1833
aS'ease'
p1834
aS'of'
p1835
aS'use'
p1836
aS'and'
p1837
aS'it'
p1838
aS'held'
p1839
aS'the'
p1840
aS'odor'
p1841
aS'in'
p1842
aS'great.'
p1843
ag10
tp1844
a((lp1845
S'For'
p1846
aS'even'
p1847
aS'better'
p1848
aS'odor'
p1849
aS'control'
p1850
aS'we'
p1851
aS'would'
p1852
aS'put'
p1853
ag341
aS'plug'
p1854
aS'ins'
p1855
aS'in'
p1856
aS'the'
p1857
aS'outlet'
p1858
aS'closest'
p1859
aS'to'
p1860
aS'it.'
p1861
ag17
tp1862
a((lp1863
g57
aS'had'
p1864
aS'no'
p1865
aS'problem'
p1866
aS'with'
p1867
aS'stuck'
p1868
aS'diapers'
p1869
aS'and'
p1870
aS'if'
p1871
ag57
aS'did'
p1872
aS'it'
p1873
aS"wasn't"
p1874
aS'often'
p1875
aS'but'
p1876
ag57
aS'can'
p1877
aS'see'
p1878
aS'how'
p1879
aS'it'
p1880
aS'would'
p1881
aS'happen.'
p1882
ag17
tp1883
a((lp1884
S'Diaper'
p1885
aS'Champ'
p1886
aS'is'
p1887
aS'by'
p1888
aS'far'
p1889
aS'the'
p1890
aS'best'
p1891
aS'diaper'
p1892
aS'pail!'
p1893
ag10
tp1894
a((lp1895
S'It'
p1896
aS'holds'
p1897
ag341
aS'lot'
p1898
aS'of'
p1899
aS'diapers,'
p1900
aS'not'
p1901
aS'to'
p1902
aS'mention'
p1903
aS'the'
p1904
aS'odor!'
p1905
ag10
tp1906
a((lp1907
S"It's"
p1908
aS'easy'
p1909
aS'to'
p1910
aS'use'
p1911
aS'(just'
p1912
ag341
aS'flip'
p1913
aS'of'
p1914
aS'the'
p1915
aS'lid,'
p1916
aS'and'
p1917
aS'the'
p1918
aS'diaper'
p1919
aS'is'
p1920
aS'gone!).'
p1921
ag10
tp1922
a((lp1923
S"It's"
p1924
aS'also'
p1925
aS'easy'
p1926
aS'to'
p1927
aS'empty'
p1928
aS'out.'
p1929
ag10
tp1930
a((lp1931
S'Just'
p1932
aS'unlock'
p1933
aS'the'
p1934
aS'top,'
p1935
aS'and'
p1936
aS'remove'
p1937
aS'the'
p1938
aS'plastic'
p1939
aS'bag.'
p1940
ag17
tp1941
a((lp1942
S'And'
p1943
aS'best'
p1944
aS'of'
p1945
aS'all,'
p1946
aS'no'
p1947
aS'wasting'
p1948
aS'money'
p1949
aS'on'
p1950
aS'special'
p1951
aS'refill'
p1952
aS'bags---this'
p1953
aS'takes'
p1954
aS'ordinary'
p1955
aS'garbage'
p1956
aS'bags!'
p1957
ag10
tp1958
a((lp1959
S'Whether'
p1960
aS'you'
p1961
aS'are'
p1962
aS'using'
p1963
aS'disposable'
p1964
aS'or'
p1965
aS'cloth'
p1966
aS'diapers,'
p1967
aS'this'
p1968
aS'is'
p1969
aS'the'
p1970
aS'truly'
p1971
aS'the'
p1972
aS'only'
p1973
aS'diaper'
p1974
aS'pail'
p1975
aS'to'
p1976
aS'get!'
p1977
ag10
tp1978
a((lp1979
S'My'
p1980
aS'original'
p1981
aS'purpose'
p1982
aS'in'
p1983
aS'buying'
p1984
aS'the'
p1985
aS'Diaper'
p1986
aS'Champ'
p1987
aS'instead'
p1988
aS'of'
p1989
aS'the'
p1990
aS'Genie'
p1991
aS'was'
p1992
aS'to'
p1993
aS'use'
p1994
aS'it'
p1995
aS'with'
p1996
aS'cloth'
p1997
aS'diapers.'
p1998
ag17
tp1999
a((lp2000
S'As'
p2001
ag341
aS'first-time'
p2002
aS'mom,'
p2003
ag57
aS'got'
p2004
aS'the'
p2005
aS'great'
p2006
aS'idea'
p2007
aS'that'
p2008
aS'cloth'
p2009
aS'would'
p2010
aS'be'
p2011
aS'better,'
p2012
aS'and'
p2013
aS'this'
p2014
aS'was'
p2015
aS'the'
p2016
aS'only'
p2017
aS'diaper'
p2018
aS'disposal'
p2019
aS'that'
p2020
aS'advertised'
p2021
aS'compatibility'
p2022
aS'with'
p2023
aS'cloth'
p2024
aS'diapers.'
p2025
ag17
tp2026
a((lp2027
S'She'
p2028
aS'never'
p2029
aS'wore'
p2030
aS'even'
p2031
aS'one-'
p2032
aS'the'
p2033
aS'hospital'
p2034
aS'started'
p2035
aS'me'
p2036
aS'on'
p2037
aS'Huggies,'
p2038
aS'and'
p2039
ag57
aS'never'
p2040
aS'turned'
p2041
aS'back'
p2042
aS'(as'
p2043
ag341
aS'side'
p2044
aS'note-'
p2045
aS'if'
p2046
aS'you'
p2047
aS'do'
p2048
aS'have'
p2049
aS'the'
p2050
aS'patience'
p2051
aS'for'
p2052
aS'cloth'
p2053
aS'diapers,'
p2054
aS'pay'
p2055
aS'the'
p2056
aS'extra'
p2057
aS'$'
p2058
aS'and'
p2059
aS'go'
p2060
aS'for'
p2061
aS'Kushies;'
p2062
aS"they're"
p2063
aS'beautifully'
p2064
aS'made'
p2065
aS'and'
p2066
aS'work'
p2067
aS'very'
p2068
aS'well'
p2069
aS'from'
p2070
aS'what'
p2071
aS"I've"
p2072
aS'heard).'
p2073
ag17
tp2074
a((lp2075
S'Even'
p2076
aS'though'
p2077
ag57
aS'never'
p2078
aS'ventured'
p2079
aS'into'
p2080
aS'the'
p2081
aS'cloth'
p2082
aS'land,'
p2083
ag57
aS'was'
p2084
aS'very'
p2085
aS'impressed'
p2086
aS'by'
p2087
aS'how'
p2088
aS'well'
p2089
aS'this'
p2090
aS'works'
p2091
aS'at'
p2092
aS'keeping'
p2093
aS'diapers'
p2094
aS'and'
p2095
aS'their'
p2096
aS'accompanying'
p2097
aS'odor'
p2098
aS'in'
p2099
aS'the'
p2100
aS'pail'
p2101
aS'and'
p2102
aS'out'
p2103
aS'of'
p2104
aS'our'
p2105
aS'life!'
p2106
ag10
tp2107
a((lp2108
S'Opening'
p2109
aS'the'
p2110
aS'Champ'
p2111
aS'to'
p2112
aS'empty'
p2113
aS'out'
p2114
aS'the'
p2115
aS'bag'
p2116
aS'is'
p2117
ag341
aS'little'
p2118
aS'tricky-'
p2119
ag57
aS'pinched'
p2120
aS'my'
p2121
aS'thumb'
p2122
ag341
aS'few'
p2123
aS'times'
p2124
aS'before'
p2125
ag57
aS'got'
p2126
aS'the'
p2127
aS'hang'
p2128
aS'of'
p2129
aS'it.'
p2130
ag316
tp2131
a((lp2132
S'Being'
p2133
ag341
aS'very'
p2134
aS'economical'
p2135
aS'person,'
p2136
ag57
aS'appreciate'
p2137
aS'the'
p2138
aS'fact'
p2139
aS'that'
p2140
aS'any'
p2141
aS'plastic'
p2142
aS'bag'
p2143
aS'can'
p2144
aS'be'
p2145
aS'used'
p2146
aS'with'
p2147
aS'this'
p2148
aS'system-'
p2149
ag57
aS'never'
p2150
aS'did'
p2151
aS'like'
p2152
aS'the'
p2153
aS'prospect'
p2154
aS'of'
p2155
aS'buying'
p2156
aS'special'
p2157
aS'Diaper'
p2158
aS'Genie'
p2159
aS'refills.'
p2160
ag10
tp2161
a((lp2162
S'If'
p2163
aS'you'
p2164
aS'have'
p2165
ag341
aS'really'
p2166
aS'sensitive'
p2167
aS'nose,'
p2168
ag57
aS'can'
p2169
aS'suggest'
p2170
aS'buying'
p2171
aS'some'
p2172
aS'scented'
p2173
aS'kitchen'
p2174
aS'trash'
p2175
aS'bags'
p2176
aS'to'
p2177
aS'use'
p2178
aS'with'
p2179
aS'the'
p2180
aS'Diaper'
p2181
aS'Champ-'
p2182
aS'since'
p2183
aS'the'
p2184
aS'odor'
p2185
aS'is'
p2186
aS'contained'
p2187
aS'in'
p2188
aS'the'
p2189
aS'Champ,'
p2190
aS'once'
p2191
aS'you'
p2192
aS'have'
p2193
aS'to'
p2194
aS'open'
p2195
aS'it'
p2196
aS'to'
p2197
aS'empty'
p2198
aS'out'
p2199
aS'the'
p2200
aS'full'
p2201
aS'bag,'
p2202
aS"you're"
p2203
aS'quite'
p2204
aS'often'
p2205
aS'greeted'
p2206
aS'with'
p2207
ag341
aS'rather'
p2208
aS'unpleasant'
p2209
aS'blast'
p2210
aS'of'
p2211
aS'odor,'
p2212
aS'and'
p2213
aS'scented'
p2214
aS'bags'
p2215
aS'help'
p2216
aS'with'
p2217
aS'that.'
p2218
ag17
tp2219
a((lp2220
S'As'
p2221
aS'one'
p2222
aS'other'
p2223
aS'reviewer'
p2224
aS'pointed'
p2225
aS'out,'
p2226
aS'it'
p2227
aS'does'
p2228
aS'occasionally'
p2229
aS'take'
p2230
ag341
aS'little'
p2231
aS'effort'
p2232
aS'to'
p2233
aS'push'
p2234
aS'down'
p2235
aS'the'
p2236
aS'"plunger"'
p2237
aS'to'
p2238
aS'get'
p2239
aS'the'
p2240
aS'diapers'
p2241
aS'in'
p2242
aS'the'
p2243
aS'pail,'
p2244
aS'even'
p2245
aS'though'
p2246
aS'upon'
p2247
aS'inspection'
p2248
aS'the'
p2249
aS'bag'
p2250
aS"doesn't"
p2251
aS'really'
p2252
aS'look'
p2253
aS'full.'
p2254
ag316
tp2255
a((lp2256
S'But'
p2257
aS'from'
p2258
aS'my'
p2259
aS'experience,'
p2260
aS'by'
p2261
aS'the'
p2262
aS'time'
p2263
aS'it'
p2264
aS'gets'
p2265
aS'to'
p2266
aS'that'
p2267
aS'point,'
p2268
aS'the'
p2269
aS'bag'
p2270
aS'is'
p2271
aS'really'
p2272
aS'heavy,'
p2273
aS'so'
p2274
ag57
aS'think'
p2275
aS'this'
p2276
aS'is'
p2277
aS'kind'
p2278
aS'of'
p2279
aS'helpful-'
p2280
aS"it's"
p2281
ag341
aS'built-in'
p2282
aS'way'
p2283
aS'of'
p2284
aS'keeping'
p2285
aS'the'
p2286
aS'bag'
p2287
aS'manageable'
p2288
aS'upon'
p2289
aS'emptying.'
p2290
ag10
tp2291
a((lp2292
S'This'
p2293
aS'is'
p2294
ag341
aS'really'
p2295
aS'great'
p2296
aS'buy,'
p2297
aS'for'
p2298
aS'yourself'
p2299
aS'or'
p2300
aS'as'
p2301
ag341
aS'shower'
p2302
aS'gift.'
p2303
ag10
tp2304
a((lp2305
S"I'm"
p2306
aS'beginning'
p2307
aS'to'
p2308
aS'think'
p2309
aS'that'
p2310
aS'the'
p2311
aS'main'
p2312
aS'reason'
p2313
aS"Genie's"
p2314
aS'so'
p2315
aS'popular'
p2316
aS'is'
p2317
aS'their'
p2318
aS'cutesy'
p2319
aS'name.'
p2320
ag17
tp2321
a((lp2322
S"It's"
p2323
aS'certainly'
p2324
aS'not'
p2325
aS'worth'
p2326
aS'the'
p2327
aS'money'
p2328
aS'or'
p2329
aS'the'
p2330
aS'upkeep.'
p2331
ag17
tp2332
a((lp2333
S'Go'
p2334
aS'for'
p2335
aS'the'
p2336
aS'Champ.'
p2337
ag10
tp2338
a((lp2339
S'It'
p2340
aS'lives'
p2341
aS'up'
p2342
aS'to'
p2343
aS'its'
p2344
aS'name.'
p2345
ag17
tp2346
a((lp2347
g57
aS'love'
p2348
aS'this'
p2349
aS'product!'
p2350
ag10
tp2351
a((lp2352
S'With'
p2353
aS'the'
p2354
aS'enormous'
p2355
aS'numbers'
p2356
aS'of'
p2357
aS'diapers'
p2358
aS'that'
p2359
aS'you'
p2360
aS'go'
p2361
aS'through'
p2362
aS'with'
p2363
ag341
aS'newborn,'
p2364
aS'it'
p2365
aS'was'
p2366
aS'great'
p2367
aS'how'
p2368
aS'easy'
p2369
aS'it'
p2370
aS'was'
p2371
aS'to'
p2372
aS'dispose'
p2373
aS'of'
p2374
aS'the'
p2375
aS'dirty'
p2376
aS'ones.'
p2377
ag10
tp2378
a((lp2379
S'Plus,'
p2380
aS'the'
p2381
aS'fact'
p2382
aS'that'
p2383
aS'it'
p2384
aS'used'
p2385
aS'regular'
p2386
aS'trash'
p2387
aS'bags'
p2388
aS'is'
p2389
aS'great.'
p2390
ag10
tp2391
a((lp2392
S'No'
p2393
aS'need'
p2394
aS'to'
p2395
aS'pay'
p2396
aS'for'
p2397
aS'the'
p2398
aS'special'
p2399
aS'refills'
p2400
aS'that'
p2401
aS'the'
p2402
aS'other'
p2403
aS'brands'
p2404
aS'require!'
p2405
ag10
tp2406
a((lp2407
S'and'
p2408
aS'we'
p2409
aS'still'
p2410
aS'LOVE'
p2411
aS'it!'
p2412
ag10
tp2413
a((lp2414
S'We'
p2415
aS'have'
p2416
aS'been'
p2417
aS'using'
p2418
aS'the'
p2419
aS'Diaper'
p2420
aS'Genie'
p2421
aS'for'
p2422
aS'the'
p2423
aS'past'
p2424
aS'17'
p2425
aS'months'
p2426
aS'and'
p2427
aS'are'
p2428
aS'very'
p2429
aS'happy'
p2430
aS'with'
p2431
aS'it.'
p2432
ag17
tp2433
a((lp2434
S'We'
p2435
aS'opted'
p2436
aS'to'
p2437
aS'purchase'
p2438
aS'this'
p2439
aS'diaper'
p2440
aS'pail'
p2441
aS'even'
p2442
aS'though'
p2443
aS'my'
p2444
aS'SIL'
p2445
aS'gave'
p2446
aS'us'
p2447
aS'her'
p2448
aS'used'
p2449
aS'diaper'
p2450
aS'pail'
p2451
aS'(the'
p2452
aS'other'
p2453
aS'popular'
p2454
aS'pail.'
p2455
aS'one'
p2456
aS'that'
p2457
aS'uses'
p2458
aS'its'
p2459
aS'own'
p2460
aS'brand'
p2461
aS'of'
p2462
aS'bags)'
p2463
aS'for'
p2464
aS'free--and'
p2465
aS'we'
p2466
aS'are'
p2467
aS'VERY'
p2468
aS'glad'
p2469
aS'we'
p2470
aS'did.'
p2471
ag17
tp2472
a((lp2473
S"Here's"
p2474
aS'what'
p2475
aS'we'
p2476
aS'love'
p2477
aS'about'
p2478
aS'this'
p2479
aS'pail.'
p2480
ag17
tp2481
a((lp2482
S'*holds'
p2483
ag341
aS'LOT'
p2484
aS'of'
p2485
aS'diapers--a'
p2486
aS'full'
p2487
aS'week'
p2488
aS'of'
p2489
aS'toddler'
p2490
aS'diapers!'
p2491
ag10
tp2492
a((lp2493
S'(we'
p2494
aS'wrap'
p2495
aS'them'
p2496
aS'nice'
p2497
aS'and'
p2498
aS'tight)'
p2499
aS'*we'
p2500
aS'use'
p2501
aS'our'
p2502
aS'regular'
p2503
aS'kitchen'
p2504
aS'trash'
p2505
aS'bags--cheap!'
p2506
ag10
tp2507
a((lp2508
S'*holds'
p2509
aS'the'
p2510
aS'odor'
p2511
aS'in'
p2512
aS'nicely!'
p2513
ag10
tp2514
a((lp2515
S'(every'
p2516
aS'now'
p2517
aS'and'
p2518
aS'then'
p2519
ag57
aS'spray'
p2520
aS'down'
p2521
aS'the'
p2522
aS'inside'
p2523
aS'of'
p2524
aS'the'
p2525
aS'pail'
p2526
aS'with'
p2527
aS'Lysol)'
p2528
aS'*easy'
p2529
aS'one-hand'
p2530
aS'use'
p2531
aS'*impossible'
p2532
aS'for'
p2533
aS'my'
p2534
aS'inquisitive'
p2535
aS'child'
p2536
aS'to'
p2537
aS'get'
p2538
aS'the'
p2539
aS'dirty'
p2540
aS'diapers'
p2541
aS'OUT'
p2542
aS'of'
p2543
aS'the'
p2544
aS'pail'
p2545
aS'Every'
p2546
aS'now'
p2547
aS'and'
p2548
aS'then'
p2549
aS'odors'
p2550
aS'do'
p2551
aS'escape'
p2552
aS'the'
p2553
aS'pail,'
p2554
aS'but'
p2555
aS'that'
p2556
aS'is'
p2557
aS'rare--and'
p2558
aS'it'
p2559
aS'usually'
p2560
aS'just'
p2561
aS'means'
p2562
aS'that'
p2563
aS"we've"
p2564
aS'crammed'
p2565
aS'too'
p2566
aS'much'
p2567
aS'in'
p2568
aS'there'
p2569
aS'and'
p2570
aS'need'
p2571
aS'to'
p2572
aS'change'
p2573
aS'the'
p2574
aS'bag.'
p2575
ag10
tp2576
a((lp2577
S'Spraying'
p2578
aS'down'
p2579
aS'the'
p2580
aS'inside'
p2581
aS'of'
p2582
aS'the'
p2583
aS'container'
p2584
aS'(and'
p2585
aS'letting'
p2586
aS'it'
p2587
aS'air'
p2588
aS'out)'
p2589
aS'periodically'
p2590
aS'definitely'
p2591
aS'helps.'
p2592
ag17
tp2593
a((lp2594
S'We'
p2595
aS'keep'
p2596
aS'the'
p2597
aS'Diaper'
p2598
aS'Champ'
p2599
aS'in'
p2600
aS'our'
p2601
aS"daughter's"
p2602
aS'nursery'
p2603
aS'and'
p2604
aS'her'
p2605
aS'room'
p2606
aS'definitely'
p2607
aS'does'
p2608
aS'NOT'
p2609
aS'smell'
p2610
aS'like'
p2611
aS'dirty'
p2612
aS'diapers.'
p2613
ag10
tp2614
a((lp2615
S'It'
p2616
aS'holds'
p2617
aS'quite'
p2618
ag341
aS'few'
p2619
aS'diapers,'
p2620
aS'and'
p2621
aS'pops'
p2622
aS'them'
p2623
aS'in'
p2624
aS'quickly'
p2625
aS'and'
p2626
aS'easily.'
p2627
ag10
tp2628
a((lp2629
g57
aS'use'
p2630
aS'the'
p2631
aS'same'
p2632
aS'store-brand'
p2633
aS'tall'
p2634
aS'kitchen'
p2635
aS'trash'
p2636
aS'bags'
p2637
ag57
aS'already'
p2638
aS'use'
p2639
aS'in'
p2640
aS'the'
p2641
aS'kitchen'
p2642
aS'for'
p2643
aS'it'
p2644
aS'--'
p2645
aS'no'
p2646
aS'special'
p2647
aS'"diaper"'
p2648
aS'trash'
p2649
aS'bags'
p2650
aS'necessary.'
p2651
ag10
tp2652
a((lp2653
S'The'
p2654
aS'opening'
p2655
aS'could'
p2656
aS'be'
p2657
ag341
aS'little'
p2658
aS'wider,'
p2659
ag57
aS'suppose,'
p2660
aS'but'
p2661
ag57
aS"haven't"
p2662
aS'really'
p2663
aS'seen'
p2664
aS'anything'
p2665
aS'else'
p2666
aS'that'
p2667
aS'could'
p2668
aS'be'
p2669
aS'improved.'
p2670
ag316
tp2671
a((lp2672
S'It'
p2673
aS'works'
p2674
aS'with'
p2675
ag341
aS'minimum'
p2676
aS'of'
p2677
aS'fuss.'
p2678
ag10
tp2679
a((lp2680
S'The'
p2681
aS'diaper'
p2682
aS'champ'
p2683
aS'turns'
p2684
aS'the'
p2685
aS'smelly'
p2686
aS'diaper'
p2687
aS'into'
p2688
aS'"what'
p2689
aS'diaper'
p2690
aS'smell"'
p2691
aS'in'
p2692
aS'less'
p2693
aS'time'
p2694
aS'than'
p2695
aS'that.'
p2696
ag10
tp2697
a((lp2698
g57
aS'hesitated'
p2699
aS'and'
p2700
aS'wondered'
p2701
aS'what'
p2702
ag57
aS'REALLY'
p2703
aS'needed'
p2704
aS'for'
p2705
aS'the'
p2706
aS'nursery.'
p2707
ag17
tp2708
a((lp2709
S'This'
p2710
aS'is'
p2711
aS'one'
p2712
aS'of'
p2713
aS'the'
p2714
aS'best'
p2715
aS'purchases'
p2716
aS'we'
p2717
aS'made.'
p2718
ag10
tp2719
a((lp2720
S'The'
p2721
aS'champ,'
p2722
aS'the'
p2723
aS'baby'
p2724
aS'bjorn,'
p2725
aS'fluerville'
p2726
aS'diaper'
p2727
aS'bag,'
p2728
aS'and'
p2729
aS'graco'
p2730
aS'pack'
p2731
aS'and'
p2732
aS'play'
p2733
aS'bassinet'
p2734
aS'all'
p2735
aS'vie'
p2736
aS'for'
p2737
aS'the'
p2738
aS'best'
p2739
aS'baby'
p2740
aS'purchase.'
p2741
ag17
tp2742
a((lp2743
S'Great'
p2744
aS'product,'
p2745
aS'easy'
p2746
aS'to'
p2747
aS'use,'
p2748
aS'economical,'
p2749
aS'effective,'
p2750
aS'absolutly'
p2751
aS'fabulous.'
p2752
ag10
tp2753
a((lp2754
S'Update'
p2755
ag57
aS'knew'
p2756
aS'that'
p2757
ag57
aS'loved'
p2758
aS'the'
p2759
aS'champ,'
p2760
aS'and'
p2761
aS'useing'
p2762
aS'the'
p2763
aS'diaper'
p2764
aS'genie'
p2765
aS'at'
p2766
ag341
aS"friend's"
p2767
aS'house'
p2768
aS'REALLY'
p2769
aS'reinforced'
p2770
aS'that!'
p2771
ag10
tp2772
a((lp2773
S'There'
p2774
aS'is'
p2775
aS'no'
p2776
aS'comparison,'
p2777
aS'the'
p2778
aS'chanp'
p2779
aS'is'
p2780
aS'easy'
p2781
aS'and'
p2782
aS'smell'
p2783
aS'free,'
p2784
aS'the'
p2785
aS'genie'
p2786
aS'was'
p2787
aS'difficult'
p2788
aS'to'
p2789
aS'use'
p2790
aS'one'
p2791
aS'handed'
p2792
aS'(which'
p2793
aS'is'
p2794
aS'absolutly'
p2795
aS'vital'
p2796
aS'if'
p2797
aS'you'
p2798
aS'have'
p2799
ag341
aS'little'
p2800
aS'one'
p2801
aS'on'
p2802
ag341
aS'changing'
p2803
aS'pad)'
p2804
aS'and'
p2805
aS'there'
p2806
aS'was'
p2807
ag341
aS'deffinite'
p2808
aS'odor'
p2809
aS'eminating'
p2810
aS'from'
p2811
aS'the'
p2812
aS'genie'
p2813
aS'plus'
p2814
aS'we'
p2815
aS'found'
p2816
aS'that'
p2817
aS'the'
p2818
aS'quick'
p2819
aS'tie'
p2820
aS'garbage'
p2821
aS'bags'
p2822
aS'where'
p2823
aS'the'
p2824
aS'ties'
p2825
aS'are'
p2826
aS'integrated'
p2827
aS'into'
p2828
aS'the'
p2829
aS'bag'
p2830
aS'work'
p2831
aS'really'
p2832
aS'well'
p2833
aS'because'
p2834
aS'there'
p2835
aS"isn't"
p2836
aS'any'
p2837
aS'added'
p2838
aS'bulk'
p2839
aS'around'
p2840
aS'the'
p2841
aS'sealing'
p2842
aS'edge'
p2843
aS'of'
p2844
aS'the'
p2845
aS'champ.'
p2846
ag10
tp2847
a((lp2848
g57
aS'love'
p2849
aS'this'
p2850
aS'pail!'
p2851
ag10
tp2852
a((lp2853
S'No'
p2854
aS'smell,'
p2855
aS'easy'
p2856
aS'to'
p2857
aS'use'
p2858
aS'with'
p2859
aS'one'
p2860
aS'hand'
p2861
aS'free,'
p2862
aS'and'
p2863
aS'best'
p2864
aS'of'
p2865
aS'all'
p2866
aS'it'
p2867
aS'uses'
p2868
aS'regular'
p2869
aS'tall'
p2870
aS'kitchen'
p2871
aS'garbage'
p2872
aS'bags'
p2873
aS'so'
p2874
aS'you'
p2875
aS"don't"
p2876
aS'get'
p2877
aS'suckered'
p2878
aS'in'
p2879
aS'to'
p2880
aS'using'
p2881
aS'only'
p2882
aS'the'
p2883
aS'bags'
p2884
aS'made'
p2885
aS'for'
p2886
aS'the'
p2887
aS'pail'
p2888
aS'that'
p2889
aS'are'
p2890
aS'imposible'
p2891
aS'to'
p2892
aS'find!'
p2893
ag10
tp2894
a((lp2895
g57
aS'have'
p2896
aS'heard'
p2897
aS'that'
p2898
aS'it'
p2899
aS'will'
p2900
aS'eventually'
p2901
aS'become'
p2902
aS'my'
p2903
aS'sons'
p2904
aS'favorite'
p2905
aS'place'
p2906
aS'to'
p2907
aS'put'
p2908
aS'his'
p2909
aS'toys'
p2910
aS'when'
p2911
aS'he'
p2912
aS'becomes'
p2913
ag341
aS'toddler,'
p2914
aS'but'
p2915
aS"I've"
p2916
aS'got'
p2917
ag553
aS'years'
p2918
aS'to'
p2919
aS'worry'
p2920
aS'about'
p2921
aS'that'
p2922
aS'and'
p2923
aS"I'm"
p2924
aS'sure'
p2925
aS"I'll"
p2926
aS'figure'
p2927
aS'out'
p2928
aS'preventative'
p2929
aS'measures'
p2930
aS'like'
p2931
aS'any'
p2932
aS'other'
p2933
aS'mom.'
p2934
ag17
tp2935
a((lp2936
g434
aS'months'
p2937
aS'later.'
p2938
ag17
tp2939
a((lp2940
S'OK.'
p2941
ag17
tp2942
a((lp2943
g57
aS'still'
p2944
aS'like'
p2945
aS'it'
p2946
aS'but'
p2947
aS"don't"
p2948
aS'think'
p2949
aS'it'
p2950
aS'rates'
p2951
aS'the'
p2952
aS'5'
p2953
aS'stars'
p2954
ag57
aS'gave'
p2955
aS'it'
p2956
aS'but'
p2957
aS"can't"
p2958
aS'change'
p2959
aS'that.'
p2960
ag17
tp2961
a((lp2962
S'Once'
p2963
aS'your'
p2964
aS'child'
p2965
aS'goes'
p2966
aS'on'
p2967
aS'to'
p2968
aS'solid'
p2969
aS'foods'
p2970
aS'BEWARE!'
p2971
ag17
tp2972
a((lp2973
S'Solid'
p2974
aS'food'
p2975
aS'poop'
p2976
aS'is'
p2977
aS'VERY'
p2978
aS'STINKY'
p2979
aS'and'
p2980
aS'this'
p2981
aS'diaper'
p2982
aS'pail'
p2983
aS"doesn't"
p2984
aS'really'
p2985
aS'contain'
p2986
aS'the'
p2987
aS'smell.'
p2988
ag316
tp2989
a((lp2990
g57
aS'still'
p2991
aS'like'
p2992
aS'it'
p2993
ag341
aS'lot'
p2994
aS'and'
p2995
aS'am'
p2996
aS'not'
p2997
aS'changing'
p2998
aS'it'
p2999
aS'for'
p3000
aS'another,'
p3001
aS'but'
p3002
aS'it'
p3003
aS'is'
p3004
aS'sort'
p3005
aS'of'
p3006
aS'stinky.'
p3007
ag316
tp3008
a((lp3009
g57
aS'think'
p3010
aS"it's"
p3011
aS'great.'
p3012
ag10
tp3013
a((lp3014
g57
aS'just'
p3015
aS'wished'
p3016
aS'that'
p3017
aS'it'
p3018
aS"didn't"
p3019
aS'fill'
p3020
aS'up'
p3021
aS'so'
p3022
aS'fast!'
p3023
ag316
tp3024
a((lp3025
S'It'
p3026
aS'definitely'
p3027
aS'keeps'
p3028
aS'the'
p3029
aS'smell'
p3030
aS'out.'
p3031
ag10
tp3032
a((lp3033
S'But'
p3034
aS'now'
p3035
aS'that'
p3036
aS'she'
p3037
aS'is'
p3038
aS'eating'
p3039
aS'solids'
p3040
aS'the'
p3041
aS'odor'
p3042
aS'is'
p3043
aS'escaping'
p3044
aS'out'
p3045
aS'and'
p3046
aS'we'
p3047
aS'are'
p3048
aS'constantly'
p3049
aS'using'
p3050
aS'airfreshner.'
p3051
ag316
tp3052
a((lp3053
S'First'
p3054
ag434
aS'months'
p3055
aS'it'
p3056
aS'was'
p3057
aS'in'
p3058
aS'our'
p3059
aS'bedroom'
p3060
aS'and'
p3061
aS'we'
p3062
aS'did'
p3063
aS'not'
p3064
aS'even'
p3065
aS'smell'
p3066
aS'any'
p3067
aS'odor.'
p3068
ag10
tp3069
a((lp3070
S'Bottom'
p3071
aS'line'
p3072
aS'if'
p3073
aS'you'
p3074
aS'buy'
p3075
aS'this'
p3076
aS'for'
p3077
aS'your'
p3078
aS'newborn,'
p3079
aS'it'
p3080
aS'is'
p3081
aS'fine.'
p3082
ag17
tp3083
a((lp3084
S'But'
p3085
aS'be'
p3086
aS'prepared'
p3087
aS'to'
p3088
aS'buy'
p3089
aS'something'
p3090
aS'else'
p3091
aS'(diaper'
p3092
aS'genie'
p3093
aS'?)'
p3094
aS'which'
p3095
aS'can'
p3096
aS'trap'
p3097
aS'the'
p3098
aS'odor'
p3099
aS'better.'
p3100
ag316
tp3101
a((lp3102
S'Every'
p3103
aS'time!'
p3104
ag17
tp3105
a((lp3106
S'The'
p3107
aS'diaper'
p3108
aS'champ'
p3109
aS'is'
p3110
aS'the'
p3111
aS'best!'
p3112
ag10
tp3113
a((lp3114
S'Having'
p3115
aS'used'
p3116
aS'it'
p3117
aS'with'
p3118
ag553
aS'children'
p3119
aS'13'
p3120
aS'months'
p3121
aS'apart.'
p3122
ag17
tp3123
a((lp3124
g57
aS'can'
p3125
aS'honestly'
p3126
aS'speak'
p3127
aS'to'
p3128
aS'its'
p3129
aS'worth!'
p3130
ag17
tp3131
a((lp3132
g57
aS'have'
p3133
aS'tried'
p3134
aS'other'
p3135
aS'pails,'
p3136
aS'but'
p3137
aS'none'
p3138
aS'have'
p3139
aS'compared'
p3140
aS'positively'
p3141
aS'to'
p3142
aS'the'
p3143
aS'Champ.'
p3144
ag10
tp3145
a((lp3146
S'1)'
p3147
aS'The'
p3148
aS'champ'
p3149
aS'is'
p3150
aS'easy'
p3151
aS'to'
p3152
aS'use.'
p3153
ag10
tp3154
a((lp3155
S'One'
p3156
aS'pail'
p3157
aS'that'
p3158
ag57
aS'used'
p3159
aS'was'
p3160
aS'so'
p3161
aS'difficult'
p3162
aS'to'
p3163
aS'change'
p3164
aS'the'
p3165
aS'bag'
p3166
aS'and'
p3167
aS'insert'
p3168
aS'the'
p3169
aS'dirty'
p3170
aS'diaper.'
p3171
ag17
tp3172
a((lp3173
S'You'
p3174
aS'had'
p3175
aS'to'
p3176
aS'remove'
p3177
aS'the'
p3178
aS'entire'
p3179
aS'lid'
p3180
aS'and'
p3181
aS'lay'
p3182
aS'it'
p3183
aS'on'
p3184
aS'the'
p3185
aS'floor'
p3186
aS'(which'
p3187
aS'led'
p3188
aS'to'
p3189
aS'my'
p3190
aS'toddler'
p3191
aS'running'
p3192
aS'away'
p3193
aS'with'
p3194
aS'it'
p3195
aS'which'
p3196
aS'is'
p3197
aS'gross)'
p3198
aS'while'
p3199
aS'trying'
p3200
aS'to'
p3201
aS'fit'
p3202
aS'the'
p3203
aS'bag'
p3204
aS'correctly'
p3205
aS'into'
p3206
aS'the'
p3207
aS'slot.'
p3208
ag17
tp3209
a((lp3210
S'For'
p3211
aS'diaper'
p3212
aS'disposal,'
p3213
aS'you'
p3214
aS'had'
p3215
aS'to'
p3216
aS'push'
p3217
ag341
aS'button'
p3218
aS'and'
p3219
aS'the'
p3220
aS'lid'
p3221
aS'would'
p3222
aS'or'
p3223
aS'would'
p3224
aS'not'
p3225
aS'pop'
p3226
aS'open.'
p3227
ag17
tp3228
a((lp3229
S'With'
p3230
aS'the'
p3231
aS'Champ'
p3232
aS'all'
p3233
aS'you'
p3234
aS'had'
p3235
aS'to'
p3236
aS'do'
p3237
aS'was'
p3238
aS'drop'
p3239
aS'the'
p3240
aS'dirty'
p3241
aS'diaper'
p3242
aS'into'
p3243
aS'the'
p3244
aS'opening'
p3245
aS'and'
p3246
aS'flip'
p3247
aS'the'
p3248
aS'lid.'
p3249
ag10
tp3250
a((lp3251
S'It'
p3252
aS'was'
p3253
aS'so'
p3254
aS'easy'
p3255
aS'my'
p3256
aS'toddler'
p3257
aS'would'
p3258
aS'dispose'
p3259
aS'of'
p3260
aS'her'
p3261
aS'on'
p3262
aS'diapers.'
p3263
ag10
tp3264
a((lp3265
S'The'
p3266
aS'Champ'
p3267
aS'also'
p3268
aS'has'
p3269
aS'hinges'
p3270
aS'for'
p3271
aS'you'
p3272
aS'to'
p3273
aS'place'
p3274
ag341
aS'new'
p3275
aS'bag.'
p3276
ag17
tp3277
a((lp3278
S'2)'
p3279
aS'The'
p3280
aS'Champ'
p3281
aS'uses'
p3282
aS'regular'
p3283
aS'store'
p3284
aS'bags.'
p3285
ag10
tp3286
a((lp3287
S'You'
p3288
aS'do'
p3289
aS'not'
p3290
aS'have'
p3291
aS'to'
p3292
aS'waste'
p3293
aS'money'
p3294
aS'or'
p3295
aS'time'
p3296
aS'trying'
p3297
aS'to'
p3298
aS'purchase'
p3299
aS'special'
p3300
aS'bags'
p3301
aS'for'
p3302
aS'the'
p3303
aS'Champ.'
p3304
ag10
tp3305
a((lp3306
S'You'
p3307
aS'can'
p3308
aS'save'
p3309
aS'your'
p3310
aS'bags'
p3311
aS'from'
p3312
aS'your'
p3313
aS'shopping'
p3314
aS'trip'
p3315
aS'and'
p3316
aS'insert'
p3317
aS'them'
p3318
aS'into'
p3319
aS'the'
p3320
aS'Champ.'
p3321
ag17
tp3322
a((lp3323
S'Special'
p3324
aS'bags'
p3325
aS'are'
p3326
aS'expensive,'
p3327
aS'hard'
p3328
aS'to'
p3329
aS'find,'
p3330
aS'and'
p3331
aS'you'
p3332
aS'never'
p3333
aS'have'
p3334
aS'enough.'
p3335
ag17
tp3336
a((lp3337
S'This'
p3338
aS'will'
p3339
aS'never'
p3340
aS'be'
p3341
ag341
aS'problem'
p3342
aS'with'
p3343
aS'the'
p3344
aS'Champ.'
p3345
ag17
tp3346
a((lp3347
S"Don't"
p3348
aS'Caregivers'
p3349
aS'need'
p3350
aS'more'
p3351
aS'simplicity'
p3352
aS'in'
p3353
aS'their'
p3354
aS'lives?'
p3355
ag17
tp3356
a((lp3357
S'The'
p3358
aS'Champ'
p3359
aS'gives'
p3360
aS'you'
p3361
aS'peace'
p3362
aS'of'
p3363
aS'mind'
p3364
aS'and'
p3365
aS'wallet.'
p3366
ag17
tp3367
a((lp3368
S'3)The'
p3369
aS'Champ'
p3370
aS'is'
p3371
aS'Odor'
p3372
aS'Free'
p3373
aS'for'
p3374
aS'at'
p3375
aS'least'
p3376
aS'15'
p3377
aS'months.'
p3378
ag10
tp3379
a((lp3380
S'The'
p3381
aS'Champ'
p3382
aS'did'
p3383
aS'not'
p3384
aS'start'
p3385
aS'letting'
p3386
ag341
aS'little'
p3387
aS'odor'
p3388
aS'through'
p3389
aS'until'
p3390
aS'well'
p3391
aS'over'
p3392
ag341
aS'year.'
p3393
ag10
tp3394
a((lp3395
g57
aS'cannot'
p3396
aS'speak'
p3397
aS'to'
p3398
aS'the'
p3399
aS'accuracy'
p3400
aS'of'
p3401
aS'its'
p3402
aS'odor'
p3403
aS'containing'
p3404
aS'capabilities'
p3405
aS'due'
p3406
aS'to'
p3407
aS'it'
p3408
aS'was'
p3409
aS'working'
p3410
aS'overtime'
p3411
aS'with'
p3412
ag553
aS'childrens'
p3413
aS'diapers.'
p3414
ag17
tp3415
a((lp3416
S'If'
p3417
aS'you'
p3418
aS'have'
p3419
aS'only'
p3420
aS'one'
p3421
aS'child'
p3422
aS'the'
p3423
aS'Champ'
p3424
aS'may'
p3425
aS'last'
p3426
aS'you'
p3427
aS'until'
p3428
aS'the'
p3429
aS'child'
p3430
aS'is'
p3431
aS'out'
p3432
aS'of'
p3433
aS'diapers.'
p3434
ag17
tp3435
a((lp3436
S'The'
p3437
aS'other'
p3438
aS'pail'
p3439
ag57
aS'used'
p3440
aS'started'
p3441
aS'to'
p3442
aS'smell'
p3443
aS'after'
p3444
ag553
aS'weeks'
p3445
aS'of'
p3446
aS'use.'
p3447
ag316
tp3448
a((lp3449
S'Regardless'
p3450
aS'to'
p3451
aS'this'
p3452
aS'fact,'
p3453
ag57
aS'believe'
p3454
aS'the'
p3455
aS'Champ'
p3456
aS'is'
p3457
aS'the'
p3458
aS'best'
p3459
aS'way'
p3460
aS'to'
p3461
aS'go.'
p3462
ag10
tp3463
a((lp3464
S'The'
p3465
aS'positives'
p3466
aS'outway'
p3467
aS'the'
p3468
aS'negatives.'
p3469
ag17
tp3470
a((lp3471
S'There'
p3472
aS'probably'
p3473
aS"isn't"
p3474
ag341
aS'pail'
p3475
aS'out'
p3476
aS'on'
p3477
aS'the'
p3478
aS'market'
p3479
aS'that'
p3480
aS"doesn't"
p3481
aS'get'
p3482
aS'smelly'
p3483
aS'after'
p3484
ag341
aS'while.'
p3485
ag17
tp3486
a((lp3487
S'Let'
p3488
aS'the'
p3489
aS'Champ'
p3490
aS'win'
p3491
aS'you'
p3492
aS'over!'
p3493
ag10
tp3494
a((lp3495
S'My'
p3496
aS'biggest'
p3497
aS'concern'
p3498
aS'was'
p3499
aS'would'
p3500
aS'this'
p3501
aS'truly'
p3502
aS'control'
p3503
aS'the'
p3504
aS'odor'
p3505
aS'and'
p3506
aS'yes'
p3507
aS'it'
p3508
aS'did.'
p3509
ag17
tp3510
a((lp3511
S'dirty'
p3512
aS'diapes'
p3513
aS'and'
p3514
aS'soaked'
p3515
aS'diapers.'
p3516
ag17
tp3517
a((lp3518
g57
aS'only'
p3519
aS'noticed'
p3520
aS'an'
p3521
aS'odor'
p3522
aS'one'
p3523
aS'time'
p3524
aS'and'
p3525
aS'that'
p3526
aS'was'
p3527
aS'because'
p3528
ag57
aS'did'
p3529
aS'not'
p3530
aS'close'
p3531
aS'thelid'
p3532
aS'when'
p3533
ag57
aS'changed'
p3534
aS'out'
p3535
aS'the'
p3536
aS'bag.'
p3537
ag17
tp3538
a((lp3539
S'No'
p3540
aS'need'
p3541
aS'for'
p3542
aS'deodorizers.'
p3543
ag10
tp3544
a((lp3545
g57
aS'use'
p3546
aS'the'
p3547
aS'regular'
p3548
aS'kitchen'
p3549
aS'trash'
p3550
aS'bags'
p3551
aS'and'
p3552
aS'it'
p3553
aS'is'
p3554
aS'so'
p3555
aS'easy'
p3556
aS'to'
p3557
aS'empty.'
p3558
ag10
tp3559
a((lp3560
S'even'
p3561
aS'did'
p3562
aS'while'
p3563
aS'daughter'
p3564
aS'sleep'
p3565
aS'and'
p3566
aS'no'
p3567
aS'noise!'
p3568
ag10
tp3569
a((lp3570
g57
aS'use'
p3571
aS'the'
p3572
aS'scented'
p3573
aS'bags'
p3574
aS'and'
p3575
aS'even'
p3576
aS'if'
p3577
ag57
aS"don't"
p3578
aS'no'
p3579
aS'smell!'
p3580
ag10
tp3581
a((lp3582
S'This'
p3583
aS'holds'
p3584
aS'alot'
p3585
aS'and'
p3586
aS'does'
p3587
aS'not'
p3588
aS'take'
p3589
aS'up'
p3590
aS'alot'
p3591
aS'of'
p3592
aS'space.'
p3593
ag10
tp3594
a((lp3595
S'When'
p3596
aS'my'
p3597
aS'wife'
p3598
aS'and'
p3599
ag57
aS'got'
p3600
aS'the'
p3601
aS'Diaper'
p3602
aS'Champ,'
p3603
aS'we'
p3604
aS'thought'
p3605
aS'that'
p3606
aS'it'
p3607
aS'would'
p3608
aS'work'
p3609
aS'perfectly.'
p3610
ag17
tp3611
a((lp3612
S'We'
p3613
aS'read'
p3614
aS'the'
p3615
aS'reviews'
p3616
aS'on'
p3617
aS'and'
p3618
aS'saw'
p3619
aS'that'
p3620
aS'people'
p3621
aS'liked'
p3622
aS'it'
p3623
aS'much'
p3624
aS'better'
p3625
aS'then'
p3626
aS'the'
p3627
aS'Diaper'
p3628
aS'Genie,'
p3629
aS'but'
p3630
aS"I'm"
p3631
aS'not'
p3632
aS'100%'
p3633
aS'sure.'
p3634
ag17
tp3635
a((lp3636
S'We'
p3637
aS'found'
p3638
aS'that'
p3639
aS'when'
p3640
aS'you'
p3641
aS'put'
p3642
ag341
aS'dirty'
p3643
aS'diaper'
p3644
aS'into'
p3645
aS'the'
p3646
aS'top'
p3647
aS'loader,'
p3648
aS'there'
p3649
aS'was'
p3650
ag341
aS'tendency'
p3651
aS'to'
p3652
aS'get'
p3653
aS'streaks'
p3654
aS'which'
p3655
aS'would'
p3656
aS'then'
p3657
aS'get'
p3658
aS'on'
p3659
aS'the'
p3660
aS'plunger'
p3661
aS'which'
p3662
aS'would'
p3663
aS'then'
p3664
aS'have'
p3665
aS'to'
p3666
aS'get'
p3667
aS'cleaned'
p3668
aS'each'
p3669
aS'time'
p3670
aS'it'
p3671
aS'was'
p3672
aS'used.'
p3673
ag316
tp3674
a((lp3675
S'We'
p3676
aS'resorted'
p3677
aS'to'
p3678
aS'using'
p3679
aS'small'
p3680
aS'plastic'
p3681
aS'bags'
p3682
aS'to'
p3683
aS'store'
p3684
aS'the'
p3685
aS'dirty'
p3686
aS'diapers'
p3687
aS'and'
p3688
aS'dumping'
p3689
aS'them'
p3690
aS'in'
p3691
ag341
aS'trash'
p3692
aS'can'
p3693
aS'and'
p3694
aS'using'
p3695
aS'the'
p3696
aS'Diaper'
p3697
aS'Champ'
p3698
aS'for'
p3699
aS'wet'
p3700
aS'diapers'
p3701
aS'only.'
p3702
ag316
tp3703
a((lp3704
S'We'
p3705
aS'also'
p3706
aS'had'
p3707
ag341
aS'problem'
p3708
aS'with'
p3709
aS'diaper'
p3710
aS'wipes'
p3711
aS'getting'
p3712
aS'caught'
p3713
aS'when'
p3714
aS'the'
p3715
aS'top'
p3716
aS'was'
p3717
aS'flipped.'
p3718
ag316
tp3719
a((lp3720
S'This'
p3721
aS'eventually'
p3722
aS'ruined'
p3723
aS'the'
p3724
aS'foam'
p3725
aS'pad'
p3726
aS'that'
p3727
aS'is'
p3728
aS'applied'
p3729
aS'to'
p3730
aS'the'
p3731
aS'flip'
p3732
aS'top'
p3733
aS'to'
p3734
aS'keep'
p3735
aS'odors'
p3736
aS'in.'
p3737
ag17
tp3738
a((lp3739
g57
aS'had'
p3740
aS'to'
p3741
aS'go'
p3742
aS'and'
p3743
aS'pull'
p3744
aS'the'
p3745
aS'crumpled'
p3746
aS'foam'
p3747
aS'out'
p3748
aS'just'
p3749
aS'so'
p3750
aS'we'
p3751
aS'could'
p3752
aS'turn'
p3753
aS'the'
p3754
aS'lid.'
p3755
ag17
tp3756
a((lp3757
S'But'
p3758
aS'like'
p3759
ag57
aS'stated,'
p3760
aS'its'
p3761
aS'better'
p3762
aS'then'
p3763
ag341
aS'trash'
p3764
aS'can,'
p3765
aS'but'
p3766
aS"I'm"
p3767
aS'not'
p3768
aS'sure'
p3769
aS'if'
p3770
aS'its'
p3771
aS'better'
p3772
aS'then'
p3773
aS'the'
p3774
aS'Diaper'
p3775
aS'Genie.'
p3776
ag10
tp3777
a((lp3778
S'It'
p3779
aS'holds'
p3780
aS'almost'
p3781
ag341
aS"week's"
p3782
aS'worth'
p3783
aS'of'
p3784
aS'diapers,'
p3785
aS'and'
p3786
aS'you'
p3787
aS"don't"
p3788
aS'need'
p3789
aS'expensive'
p3790
aS'refills'
p3791
ag73
aS'any'
p3792
aS'kitchen'
p3793
aS'bags'
p3794
aS'work.'
p3795
ag10
tp3796
a((lp3797
S'At'
p3798
aS'first'
p3799
ag57
aS'had'
p3800
ag341
aS'problem'
p3801
aS'with'
p3802
aS'some'
p3803
aS'smell,'
p3804
aS'then'
p3805
ag57
aS'realized'
p3806
aS'if'
p3807
aS'you'
p3808
aS'flip'
p3809
aS'the'
p3810
aS'lid'
p3811
aS'back'
p3812
aS'and'
p3813
aS'always'
p3814
aS'keep'
p3815
aS'the'
p3816
aS'same'
p3817
aS'side'
p3818
aS'facing'
p3819
aS'in'
p3820
ag73
aS'then'
p3821
aS'there'
p3822
aS'is'
p3823
aS'no'
p3824
aS'smell'
p3825
aS'at'
p3826
aS'all!'
p3827
ag10
tp3828
a((lp3829
S'It'
p3830
aS'is'
p3831
aS'also'
p3832
aS'to'
p3833
aS'wipe'
p3834
aS'clean'
p3835
aS'if'
p3836
aS'you'
p3837
aS'do'
p3838
aS'get'
p3839
aS'the'
p3840
aS'chute'
p3841
ag341
aS'bit'
p3842
aS'dirty.'
p3843
ag17
tp3844
a((lp3845
g57
aS'second'
p3846
aS'that'
p3847
aS'you'
p3848
aS'just'
p3849
aS'need'
p3850
aS'to'
p3851
aS'fold'
p3852
aS'up'
p3853
aS'the'
p3854
aS'diaper'
p3855
aS'(with'
p3856
aS'wipes'
p3857
aS'inside)'
p3858
aS'neatly,'
p3859
aS'but'
p3860
aS'that'
p3861
aS'is'
p3862
aS'not'
p3863
ag341
aS'big'
p3864
aS'deal.'
p3865
ag17
tp3866
a((lp3867
S'The'
p3868
aS'latch'
p3869
aS"isn't"
p3870
aS'terribly'
p3871
aS'difficult,'
p3872
aS'and'
p3873
ag57
aS"wouldn't"
p3874
aS'want'
p3875
aS'it'
p3876
aS'to'
p3877
aS'be'
p3878
aS'too'
p3879
aS'easy'
p3880
aS'since'
p3881
aS'it'
p3882
aS'sits'
p3883
aS'in'
p3884
aS'my'
p3885
aS"son's"
p3886
aS'room.'
p3887
ag17
tp3888
a((lp3889
S'She'
p3890
aS'said'
p3891
aS'her'
p3892
aS'sister'
p3893
aS'had'
p3894
aS'the'
p3895
aS'Diaper'
p3896
aS'Champ'
p3897
aS'and'
p3898
aS'that'
p3899
aS'it'
p3900
aS'took'
p3901
aS'regular'
p3902
aS'garbage'
p3903
aS'bags'
p3904
aS'and'
p3905
aS'worked'
p3906
aS'just'
p3907
aS'as'
p3908
aS'well.'
p3909
ag17
tp3910
a((lp3911
S'Personally,'
p3912
ag57
aS'am'
p3913
aS'VERY'
p3914
aS'pleased'
p3915
aS'with'
p3916
aS'the'
p3917
aS'Diaper'
p3918
aS'Champ.'
p3919
ag10
tp3920
a((lp3921
S'It'
p3922
aS'is'
p3923
aS'mindless'
p3924
aS'to'
p3925
aS'operate.'
p3926
ag10
tp3927
a((lp3928
S'It'
p3929
aS'takes'
p3930
aS'garage'
p3931
aS'bags'
p3932
aS'that'
p3933
aS'we'
p3934
aS'use'
p3935
aS'elsewhere'
p3936
aS'in'
p3937
aS'the'
p3938
aS'abode.'
p3939
ag17
tp3940
a((lp3941
S'It'
p3942
aS"doesn't"
p3943
aS'stink,'
p3944
aS'ever'
p3945
aS'(like'
p3946
aS'some'
p3947
aS'have'
p3948
aS'assumed'
p3949
aS'since'
p3950
aS'it'
p3951
aS"doesn't"
p3952
aS'wrap'
p3953
aS'each'
p3954
aS'diaper'
p3955
aS'into'
p3956
aS'its'
p3957
aS'own'
p3958
aS'neat'
p3959
aS'little'
p3960
aS'cocoon).'
p3961
ag10
tp3962
a((lp3963
S'And'
p3964
aS'it'
p3965
aS'is'
p3966
aS'very'
p3967
aS'easy'
p3968
aS'to'
p3969
aS'clean.'
p3970
ag10
tp3971
a((lp3972
g57
aS'can'
p3973
aS'keep'
p3974
aS'one'
p3975
aS'hand'
p3976
aS'on'
p3977
aS'my'
p3978
aS'baby'
p3979
aS'and'
p3980
aS'dump'
p3981
aS'the'
p3982
aS'diaper'
p3983
aS'at'
p3984
aS'the'
p3985
aS'same'
p3986
aS'time,'
p3987
aS'it'
p3988
aS'is'
p3989
aS'that'
p3990
aS'simple.'
p3991
ag10
tp3992
a((lp3993
g57
aS'am'
p3994
aS'SO'
p3995
aS'thankful'
p3996
ag57
aS'got'
p3997
aS'that'
p3998
aS'advice'
p3999
aS'when'
p4000
ag57
aS'did'
p4001
aS'because'
p4002
ag57
aS'had'
p4003
aS'the'
p4004
aS'Diaper'
p4005
aS'Genie'
p4006
aS'on'
p4007
aS'my'
p4008
aS'registry'
p4009
aS'aforementioned'
p4010
aS'to'
p4011
aS'her'
p4012
aS'warning.'
p4013
ag17
tp4014
a((lp4015
S"I'd"
p4016
aS'abhor'
p4017
aS'having'
p4018
aS'to'
p4019
aS'drive'
p4020
aS'all'
p4021
aS'the'
p4022
aS'way'
p4023
aS'to'
p4024
ag341
aS'baby'
p4025
aS'superstore'
p4026
aS'to'
p4027
aS'purchase'
p4028
aS'bags'
p4029
aS'her'
p4030
aS'dirty'
p4031
aS'diapers'
p4032
aS'are'
p4033
aS'just'
p4034
aS'going'
p4035
aS'to'
p4036
aS'get'
p4037
aS'thrown'
p4038
aS'away'
p4039
aS'in.'
p4040
ag17
tp4041
a((lp4042
g57
aS'am'
p4043
aS'very'
p4044
aS'pleased'
p4045
aS'with'
p4046
aS'our'
p4047
aS'choice.'
p4048
ag17
tp4049
a((lp4050
S'This'
p4051
aS'is'
p4052
ag341
aS'great'
p4053
aS'diaper'
p4054
aS'pail.'
p4055
ag10
tp4056
a((lp4057
S'There'
p4058
aS'is'
p4059
aS'no'
p4060
aS'odor'
p4061
aS'and'
p4062
aS'it'
p4063
aS'is'
p4064
aS'very'
p4065
aS'easy'
p4066
aS'to'
p4067
aS'use.'
p4068
ag10
tp4069
a((lp4070
S'(You'
p4071
aS'can'
p4072
aS'do'
p4073
aS'it'
p4074
aS'one'
p4075
aS'handed'
p4076
aS'while'
p4077
aS'still'
p4078
aS'hanging'
p4079
aS'on'
p4080
aS'to'
p4081
aS'the'
p4082
aS'baby.)'
p4083
aS'Also,'
p4084
aS'we'
p4085
aS'like'
p4086
aS'using'
p4087
aS'regular'
p4088
aS'trash'
p4089
aS'bags'
p4090
aS'instead'
p4091
aS'of'
p4092
aS'having'
p4093
aS'to'
p4094
aS'worry'
p4095
aS'about'
p4096
aS'buying'
p4097
aS'refills'
p4098
aS'(like'
p4099
aS'with'
p4100
aS'the'
p4101
aS'Diaper'
p4102
aS'Genie).'
p4103
ag10
tp4104
a((lp4105
S'And'
p4106
aS"it's"
p4107
aS'the'
p4108
aS'largest'
p4109
aS'diaper'
p4110
aS'pail'
p4111
aS"I've"
p4112
aS'seen'
p4113
aS'without'
p4114
aS'taking'
p4115
aS'up'
p4116
aS'more'
p4117
aS'floor'
p4118
aS'space.'
p4119
ag10
tp4120
a((lp4121
S'We'
p4122
aS'have'
p4123
aS'both'
p4124
ag341
aS'Diaper'
p4125
aS'Champ'
p4126
aS'and'
p4127
ag341
aS'Diaper'
p4128
aS'Genie.'
p4129
ag17
tp4130
a((lp4131
S'and'
p4132
aS'we'
p4133
aS'definitely'
p4134
aS'prefer'
p4135
aS'our'
p4136
aS'Champ!'
p4137
ag10
tp4138
a((lp4139
S'Not'
p4140
aS'only'
p4141
aS'is'
p4142
aS'it'
p4143
aS'much'
p4144
aS'more'
p4145
aS'cost'
p4146
aS'effective'
p4147
aS'(you'
p4148
aS'can'
p4149
aS'use'
p4150
aS'regular'
p4151
aS'trash'
p4152
aS'bags'
p4153
aS'rather'
p4154
aS'than'
p4155
aS'Refills'
p4156
aS'at'
p4157
aS'$5'
p4158
ag341
aS'pop),'
p4159
aS'it'
p4160
aS'is'
p4161
aS'easier'
p4162
aS'to'
p4163
aS'use'
p4164
aS'and'
p4165
aS'clean,'
p4166
aS'and'
p4167
aS'has'
p4168
ag341
aS'larger'
p4169
aS'capacity.'
p4170
ag10
tp4171
a((lp4172
S'Only'
p4173
aS'problem.'
p4174
ag17
tp4175
a((lp4176
S'it'
p4177
aS'can'
p4178
aS'be'
p4179
aS'frustrating'
p4180
aS'and'
p4181
aS'messy'
p4182
aS'when'
p4183
aS'you'
p4184
aS'put'
p4185
aS'that'
p4186
aS'last'
p4187
aS'diaper'
p4188
aS'in'
p4189
aS'before'
p4190
aS'realizing'
p4191
aS'the'
p4192
aS'unit'
p4193
aS'is'
p4194
aS'full.'
p4195
ag316
tp4196
a((lp4197
S'The'
p4198
aS'pluger'
p4199
aS'gets'
p4200
aS'stuck'
p4201
aS'&'
p4202
aS'you'
p4203
aS'have'
p4204
aS'to'
p4205
aS'manually'
p4206
aS'extract'
p4207
aS'the'
p4208
aS'mess.'
p4209
ag316
tp4210
a((lp4211
g57
aS'registered'
p4212
aS'for'
p4213
aS'this'
p4214
aS'item'
p4215
aS'because'
p4216
aS'of'
p4217
aS'the'
p4218
aS'good'
p4219
aS'reviews'
p4220
aS'it'
p4221
aS'got,'
p4222
aS'however'
p4223
ag57
aS'was'
p4224
aS'not'
p4225
aS'impressed.'
p4226
ag316
tp4227
a((lp4228
S'For'
p4229
aS'one'
p4230
aS'thing,'
p4231
aS'The'
p4232
aS'diapers'
p4233
aS'always'
p4234
aS'get'
p4235
aS'jammed'
p4236
aS'in'
p4237
aS'it.'
p4238
ag316
tp4239
a((lp4240
S'The'
p4241
aS'product'
p4242
aS'also'
p4243
aS'leaves'
p4244
ag341
aS'faint'
p4245
aS'smell'
p4246
aS'in'
p4247
aS'the'
p4248
aS'room.'
p4249
ag316
tp4250
a((lp4251
S'All'
p4252
aS'in'
p4253
aS'all,'
p4254
aS'the'
p4255
aS'Diaper'
p4256
aS'Champ'
p4257
aS'serves'
p4258
aS'its'
p4259
aS'purpose,'
p4260
aS'but'
p4261
aS'it'
p4262
aS'does'
p4263
aS'not'
p4264
aS'live'
p4265
aS'up'
p4266
aS'to'
p4267
aS'its'
p4268
aS'good'
p4269
aS'reviews.'
p4270
ag316
tp4271
a((lp4272
g57
aS'got'
p4273
aS'the'
p4274
aS'diaper'
p4275
aS'champ'
p4276
aS'because'
p4277
aS'of'
p4278
aS'the'
p4279
aS'great'
p4280
aS'reviews'
p4281
aS'as'
p4282
aS'well'
p4283
aS'as'
p4284
aS'the'
p4285
aS'fact'
p4286
aS'that'
p4287
aS'you'
p4288
aS'can'
p4289
aS'use'
p4290
aS'regular'
p4291
aS'garbage'
p4292
aS'bags.'
p4293
ag10
tp4294
a((lp4295
S'It'
p4296
aS'works'
p4297
aS'great.'
p4298
ag10
tp4299
a((lp4300
g57
aS"can't"
p4301
aS'smell'
p4302
aS'anything'
p4303
aS'(and'
p4304
aS'believe'
p4305
aS'me,'
p4306
aS'this'
p4307
aS'is'
p4308
aS'quite'
p4309
aS'something'
p4310
aS'with'
p4311
aS'my'
p4312
aS'baby).'
p4313
ag10
tp4314
a((lp4315
g57
aS'ended'
p4316
aS'up'
p4317
aS'buying'
p4318
aS'one'
p4319
aS'for'
p4320
aS'upstairs'
p4321
aS'and'
p4322
aS'one'
p4323
aS'for'
p4324
aS'downstairs'
p4325
aS'because'
p4326
aS'it'
p4327
aS'works'
p4328
aS'so'
p4329
aS'well'
p4330
aS'and'
p4331
aS'because'
p4332
ag57
aS'change'
p4333
aS'him'
p4334
aS'so'
p4335
aS'often'
p4336
aS'downstairs.'
p4337
ag10
tp4338
a((lp4339
S"It's"
p4340
aS'much'
p4341
aS'better'
p4342
aS'than'
p4343
aS'putting'
p4344
aS'diapers'
p4345
aS'in'
p4346
ag341
aS'downstairs'
p4347
aS'trashcan.'
p4348
ag17
tp4349
a((lp4350
S'The'
p4351
aS'reviews'
p4352
aS'were'
p4353
aS'definitely'
p4354
aS'right.'
p4355
ag17
tp4356
a((lp4357
S'We'
p4358
aS'have'
p4359
aS'been'
p4360
aS'using'
p4361
aS'our'
p4362
aS'Diaper'
p4363
aS'Champ'
p4364
aS'for'
p4365
aS'almost'
p4366
aS'14'
p4367
aS'months'
p4368
aS'now'
p4369
aS'and'
p4370
aS'we'
p4371
aS'are'
p4372
aS'very'
p4373
aS'happy'
p4374
aS'with'
p4375
aS'it.'
p4376
ag10
tp4377
a((lp4378
S'It'
p4379
aS'sits'
p4380
aS'in'
p4381
aS'the'
p4382
aS'corner'
p4383
aS'of'
p4384
aS'our'
p4385
aS'bathroom'
p4386
aS'and'
p4387
aS'we'
p4388
aS'have'
p4389
aS'never'
p4390
aS'had'
p4391
aS'any'
p4392
aS'problems'
p4393
aS'with'
p4394
aS'odors'
p4395
aS'at'
p4396
aS'all'
p4397
aS'(and'
p4398
aS'we'
p4399
aS'live'
p4400
aS'in'
p4401
aS'the'
p4402
aS'damp'
p4403
aS'and'
p4404
aS'humid'
p4405
aS'South,'
p4406
aS'where'
p4407
aS'odors'
p4408
aS'of'
p4409
aS'all'
p4410
aS'kinds'
p4411
aS'are'
p4412
aS'generally'
p4413
aS'rife).'
p4414
ag10
tp4415
a((lp4416
S'It'
p4417
aS'is'
p4418
aS'easy'
p4419
aS'to'
p4420
aS'install'
p4421
aS'and'
p4422
aS'change'
p4423
aS'the'
p4424
aS'ordinary'
p4425
aS'trash'
p4426
aS'bags,'
p4427
aS'easy'
p4428
aS'to'
p4429
aS'clean,'
p4430
aS'and'
p4431
aS'most'
p4432
aS'important,'
p4433
aS'easy'
p4434
aS'to'
p4435
aS'use'
p4436
aS'one'
p4437
aS'handed'
p4438
ag73
aS'just'
p4439
aS'insert'
p4440
aS'folded'
p4441
aS'dirty'
p4442
aS'diaper'
p4443
aS'and'
p4444
aS'flip'
p4445
aS'the'
p4446
aS'handle.'
p4447
ag10
tp4448
a((lp4449
S'As'
p4450
aS'the'
p4451
aS'bag'
p4452
aS'fills,'
p4453
aS'you'
p4454
aS'may'
p4455
aS'need'
p4456
aS'to'
p4457
aS'flip'
p4458
aS'twice'
p4459
aS'to'
p4460
aS'ensure'
p4461
aS'that'
p4462
aS'the'
p4463
aS'weighted'
p4464
aS'cylinder'
p4465
aS'has'
p4466
aS'completely'
p4467
aS'pushed'
p4468
aS'the'
p4469
aS'diaper'
p4470
aS'into'
p4471
aS'the'
p4472
aS'bag.'
p4473
ag17
tp4474
a((lp4475
S'For'
p4476
aS'the'
p4477
aS'first'
p4478
aS'9'
p4479
aS'months'
p4480
aS'or'
p4481
aS'so,'
p4482
aS'we'
p4483
aS'only'
p4484
aS'needed'
p4485
aS'to'
p4486
aS'empty'
p4487
aS'this'
p4488
aS'once'
p4489
ag341
aS'week.'
p4490
ag17
tp4491
a((lp4492
S'Now'
p4493
aS'that'
p4494
aS'our'
p4495
aS"son's"
p4496
aS'diapers'
p4497
aS'are'
p4498
ag341
aS'little'
p4499
aS'larger,'
p4500
aS'they'
p4501
aS'take'
p4502
aS'up'
p4503
aS'more'
p4504
aS'space,'
p4505
aS'and'
p4506
aS'we'
p4507
aS'empty'
p4508
aS'twice'
p4509
ag341
aS'week.'
p4510
ag17
tp4511
a((lp4512
S'We'
p4513
aS'have'
p4514
aS'never'
p4515
aS'had'
p4516
aS'any'
p4517
aS'problems'
p4518
aS'with'
p4519
aS'anything'
p4520
aS'like'
p4521
aS'loose'
p4522
aS'wipes'
p4523
aS'getting'
p4524
aS'stuck'
p4525
aS'(we'
p4526
aS'always'
p4527
aS'wrap'
p4528
aS'them'
p4529
aS'in'
p4530
aS'the'
p4531
aS'dirty'
p4532
aS'diaper).'
p4533
ag10
tp4534
a((lp4535
S'It'
p4536
aS'is'
p4537
ag341
aS'bit'
p4538
aS'difficult'
p4539
aS'to'
p4540
aS'get'
p4541
aS'the'
p4542
aS'unit'
p4543
aS'open'
p4544
aS'(the'
p4545
aS'advice'
p4546
aS'to'
p4547
aS'take'
p4548
aS'it'
p4549
aS'slowly'
p4550
aS'is'
p4551
aS'sound),'
p4552
aS'but'
p4553
aS'now'
p4554
aS'that'
p4555
aS'our'
p4556
aS'son'
p4557
aS'is'
p4558
aS'walking'
p4559
aS'and'
p4560
aS'exploring,'
p4561
ag57
aS'consider'
p4562
aS'this'
p4563
ag341
aS'positive'
p4564
aS'attribute!'
p4565
ag10
tp4566
a((lp4567
S'Update'
p4568
aS'(March'
p4569
aS'2005):'
p4570
aS'My'
p4571
aS'son'
p4572
aS'has'
p4573
aS'been'
p4574
aS'out'
p4575
aS'of'
p4576
aS'diapers'
p4577
aS'for'
p4578
aS'almost'
p4579
ag553
aS'years'
p4580
aS'now,'
p4581
aS'but'
p4582
aS'the'
p4583
aS'Diaper'
p4584
aS'Champ'
p4585
aS'hung'
p4586
aS'in'
p4587
aS'there'
p4588
aS'till'
p4589
aS'the'
p4590
aS'very'
p4591
aS'end'
p4592
ag73
aS'easy'
p4593
aS'to'
p4594
aS'use,'
p4595
aS'no'
p4596
aS'problems'
p4597
aS'with'
p4598
aS'odors,'
p4599
aS'and'
p4600
aS'one'
p4601
aS'of'
p4602
aS'the'
p4603
aS'best'
p4604
aS'bargains'
p4605
aS'among'
p4606
aS'all'
p4607
aS'of'
p4608
aS'the'
p4609
aS'paraphernalia'
p4610
aS'required'
p4611
aS'for'
p4612
aS'the'
p4613
aS'modern'
p4614
aS'baby'
p4615
aS':-)'
p4616
ag10
tp4617
a((lp4618
g57
aS'originally'
p4619
aS'put'
p4620
aS'this'
p4621
aS'item'
p4622
aS'on'
p4623
aS'my'
p4624
aS'baby'
p4625
aS'registry'
p4626
aS'because'
p4627
aS'friends'
p4628
aS'of'
p4629
aS'mine'
p4630
aS'highly'
p4631
aS'recommended'
p4632
aS'the'
p4633
aS'use'
p4634
aS'of'
p4635
ag341
aS'diaper'
p4636
aS'pail.'
p4637
ag17
tp4638
a((lp4639
g57
aS'decided'
p4640
aS'to'
p4641
aS'go'
p4642
aS'with'
p4643
aS'the'
p4644
aS'Diaper'
p4645
aS'Champ'
p4646
aS'rather'
p4647
aS'than'
p4648
aS'the'
p4649
aS'more'
p4650
aS'popular'
p4651
aS'Diaper'
p4652
aS'Genie,'
p4653
aS'because'
p4654
ag57
aS"didn't"
p4655
aS'like'
p4656
aS'the'
p4657
aS'idea'
p4658
aS'of'
p4659
aS'having'
p4660
aS'to'
p4661
aS'buy'
p4662
aS'special'
p4663
aS'bags.'
p4664
ag10
tp4665
a((lp4666
S'Too'
p4667
aS'costly'
p4668
aS'and'
p4669
aS'not'
p4670
aS'efficient'
p4671
aS'if'
p4672
aS'you'
p4673
aS'ask'
p4674
aS'me!'
p4675
ag316
tp4676
a((lp4677
S'THIS'
p4678
aS'PRODUCT'
p4679
aS'IS'
p4680
ag829
aS'LIFESAVER!!'
p4681
ag10
tp4682
a((lp4683
g57
aS'HAVE'
p4684
aS'NEVER'
p4685
aS'HAD'
p4686
aS'AN'
p4687
aS'ODOR'
p4688
aS'PROBLEM!'
p4689
ag10
tp4690
a((lp4691
S'No'
p4692
aS'one'
p4693
aS'has'
p4694
aS'ever'
p4695
aS'come'
p4696
aS'to'
p4697
aS'my'
p4698
aS'house'
p4699
aS'and'
p4700
aS'noticed'
p4701
aS"'diaper"
p4702
aS"odor.'"
p4703
ag10
tp4704
a((lp4705
S'In'
p4706
aS'fact,'
p4707
aS'people'
p4708
aS'who'
p4709
aS'have'
p4710
aS'been'
p4711
aS'present'
p4712
aS'while'
p4713
ag57
aS'changed'
p4714
aS'my'
p4715
aS'almost'
p4716
ag1003
aS'month'
p4717
aS'old'
p4718
aS"son's"
p4719
aS'diaper'
p4720
aS'have'
p4721
aS'been'
p4722
aS'amazed'
p4723
aS'at'
p4724
aS'how'
p4725
aS'the'
p4726
aS'very'
p4727
aS"'potent'"
p4728
aS'smell'
p4729
aS'of'
p4730
aS'the'
p4731
aS'dirty'
p4732
aS'diaper'
p4733
aS'seems'
p4734
aS'to'
p4735
aS'disappear'
p4736
aS'once'
p4737
ag57
aS'dispose'
p4738
aS'of'
p4739
aS'the'
p4740
aS'diaper'
p4741
aS'in'
p4742
aS'the'
p4743
aS'Diaper'
p4744
aS'Champ.'
p4745
ag10
tp4746
a((lp4747
S'For'
p4748
aS'those'
p4749
aS'who'
p4750
aS'are'
p4751
aS'experiencing'
p4752
aS'odor'
p4753
aS'problems,'
p4754
aS'here'
p4755
aS'are'
p4756
aS'some'
p4757
aS'suggestions'
p4758
aS'which'
p4759
aS'should'
p4760
aS'solve'
p4761
aS'the'
p4762
aS'problem:'
p4763
ag17
tp4764
a((lp4765
S'1.'
p4766
aS'CHANGE'
p4767
aS'BAGS'
p4768
aS'FREQUENTLY!!'
p4769
ag17
tp4770
a((lp4771
g57
aS'change'
p4772
aS'mine'
p4773
aS'about'
p4774
aS'1'
p4775
aS'or'
p4776
ag553
aS'times'
p4777
ag341
aS'week.'
p4778
ag17
tp4779
a((lp4780
S'For'
p4781
aS'those'
p4782
aS'who'
p4783
aS'complain'
p4784
aS'that'
p4785
aS'the'
p4786
aS'pail'
p4787
aS'gets'
p4788
aS'stuck,'
p4789
aS'that'
p4790
aS'is'
p4791
aS'probably'
p4792
ag341
aS'good'
p4793
aS'indication'
p4794
aS'that'
p4795
aS'the'
p4796
aS'BAG'
p4797
aS'IS'
p4798
aS'GETTING'
p4799
aS'TOO'
p4800
aS'FULL!!'
p4801
ag17
tp4802
a((lp4803
S'Also,'
p4804
aS'making'
p4805
aS'sure'
p4806
aS'that'
p4807
aS'the'
p4808
aS'tape'
p4809
aS'on'
p4810
aS'the'
p4811
aS'diapers'
p4812
aS'is'
p4813
aS'secure'
p4814
aS'will'
p4815
aS'prevent'
p4816
aS'that'
p4817
aS'from'
p4818
aS'happening'
p4819
aS'as'
p4820
aS'well.'
p4821
ag17
tp4822
a((lp4823
S'2.'
p4824
aS'YOU'
p4825
aS'STILL'
p4826
aS'HAVE'
p4827
aS'TO'
p4828
aS'CLEAN'
p4829
aS'THE'
p4830
aS'THING!!'
p4831
ag316
tp4832
a((lp4833
S'Hello,'
p4834
aS'it'
p4835
aS'does'
p4836
aS'house'
p4837
aS'dirty'
p4838
aS'diapers!!'
p4839
ag17
tp4840
a((lp4841
S'All'
p4842
ag57
aS'do'
p4843
aS'is'
p4844
aS'wipe'
p4845
aS'it'
p4846
aS'down'
p4847
aS'with'
p4848
aS'some'
p4849
aS'antibacterial'
p4850
aS'wipes'
p4851
aS'(takes'
p4852
aS'about'
p4853
aS'10'
p4854
aS'seconds!!)'
p4855
aS'and'
p4856
aS'then'
p4857
aS'maybe'
p4858
aS'spray'
p4859
aS'some'
p4860
aS'Lysol'
p4861
aS'in'
p4862
aS'it'
p4863
aS'and'
p4864
aS'let'
p4865
aS'it'
p4866
aS'air'
p4867
aS'out'
p4868
aS'for'
p4869
ag341
aS'minute'
p4870
aS'or'
p4871
aS'two.'
p4872
ag17
tp4873
a((lp4874
S'SIMPLE'
p4875
aS'AND'
p4876
aS'IT'
p4877
aS'WORKS!'
p4878
ag10
tp4879
a((lp4880
S'Also,'
p4881
aS'for'
p4882
aS'those'
p4883
aS'that'
p4884
aS'complain'
p4885
aS'that'
p4886
aS'the'
p4887
aS'Diaper'
p4888
aS'Champ'
p4889
aS"isn't"
p4890
aS'as'
p4891
aS'effective'
p4892
aS'as'
p4893
aS'time'
p4894
aS'passes,'
p4895
aS'keep'
p4896
aS'the'
p4897
aS'following'
p4898
aS'in'
p4899
aS'mind:'
p4900
aS'AS'
p4901
aS'BABIES'
p4902
aS'GET'
p4903
aS'OLDER,'
p4904
aS'THEIR'
p4905
aS'DIETS'
p4906
aS'CHANGES'
p4907
aS'(aka'
p4908
aS'SOLID'
p4909
aS'FOODS!)'
p4910
aS'AND'
p4911
aS'SO'
p4912
aS'DOES'
p4913
aS'THE'
p4914
aS'SMELL'
p4915
aS'OF'
p4916
aS'THEIR'
p4917
aS'DIAPERS!'
p4918
ag316
tp4919
a((lp4920
S'In'
p4921
aS'talking'
p4922
aS'with'
p4923
aS'other'
p4924
aS'parents,'
p4925
ag57
aS'get'
p4926
aS'the'
p4927
aS'same'
p4928
aS'feedback'
p4929
ag73
aS'as'
p4930
aS'babies'
p4931
aS'get'
p4932
aS'older'
p4933
aS'and'
p4934
aS'become'
p4935
aS'toddlers,'
p4936
aS'ALL'
p4937
aS'DIAPER'
p4938
aS'PAILS'
p4939
aS'become'
p4940
aS'gradually'
p4941
aS'less'
p4942
aS'and'
p4943
aS'less'
p4944
aS'effective'
p4945
aS'until'
p4946
aS'they'
p4947
aS'are'
p4948
aS'just'
p4949
aS'no'
p4950
aS'longer'
p4951
aS'useful.'
p4952
ag17
tp4953
a((lp4954
S'Again,'
p4955
aS'this'
p4956
aS'is'
p4957
aS'because'
p4958
aS'as'
p4959
aS'their'
p4960
aS'diet'
p4961
aS'changes,'
p4962
aS'so'
p4963
aS'does'
p4964
aS'the'
p4965
aS'consistency'
p4966
aS'and'
p4967
aS'odor'
p4968
aS'of'
p4969
aS'their'
p4970
aS'stool,'
p4971
aS'in'
p4972
aS'other'
p4973
aS'words,'
p4974
aS'it'
p4975
aS'gets'
p4976
aS'stinkier!!!'
p4977
ag17
tp4978
a((lp4979
S'All'
p4980
aS'in'
p4981
aS'all,'
p4982
aS'this'
p4983
aS'product'
p4984
aS'is'
p4985
aS'definitely'
p4986
aS'one'
p4987
ag57
aS'would'
p4988
aS'recommend'
p4989
aS'and'
p4990
aS'certainly'
p4991
aS'worth'
p4992
aS'the'
p4993
aS'very'
p4994
aS'reasonable'
p4995
aS'price.'
p4996
ag10
tp4997
a((lp4998
g57
aS'love'
p4999
aS'the'
p5000
aS'diaper'
p5001
aS'champ,'
p5002
aS'it'
p5003
aS'is'
p5004
aS'really'
p5005
aS'easy'
p5006
aS'to'
p5007
aS'use'
p5008
aS'and'
p5009
aS'since'
p5010
aS'you'
p5011
aS'can'
p5012
aS'use'
p5013
aS'regular'
p5014
aS'garbage'
p5015
aS'bags'
p5016
aS'it'
p5017
aS"doesn't"
p5018
aS'cost'
p5019
aS'an'
p5020
aS'arm'
p5021
aS'and'
p5022
ag341
aS'leg'
p5023
aS'for'
p5024
aS'refills.'
p5025
ag10
tp5026
a((lp5027
S'The'
p5028
aS'only'
p5029
aS'downside'
p5030
aS'to'
p5031
aS'this'
p5032
aS'is'
p5033
aS'that'
p5034
aS'it'
p5035
aS'can'
p5036
aS'get'
p5037
aS'pretty'
p5038
aS'stinky'
p5039
aS'long'
p5040
aS'before'
p5041
aS'the'
p5042
aS'pail'
p5043
aS'is'
p5044
aS'full.'
p5045
ag316
tp5046
a((lp5047
g57
aS'wash'
p5048
aS'ours'
p5049
aS'out'
p5050
aS'with'
p5051
aS'lysol'
p5052
aS'each'
p5053
aS'time'
p5054
ag57
aS'empty'
p5055
aS'it,'
p5056
aS'and'
p5057
aS'that'
p5058
aS'helps,'
p5059
aS'but'
p5060
aS'when'
p5061
aS'its'
p5062
aS'hot'
p5063
aS'out-'
p5064
aS'well,'
p5065
aS'just'
p5066
aS'be'
p5067
aS'prepared.'
p5068
ag316
tp5069
a((lp5070
S'We'
p5071
aS'used'
p5072
aS'this'
p5073
aS'diaper'
p5074
aS'pail'
p5075
aS'from'
p5076
aS'the'
p5077
aS'day'
p5078
aS'we'
p5079
aS'brought'
p5080
aS'our'
p5081
aS'son'
p5082
aS'home,'
p5083
aS'until'
p5084
aS'about'
p5085
aS'13'
p5086
aS'months.'
p5087
ag17
tp5088
a((lp5089
S"That's"
p5090
aS'when'
p5091
aS'it'
p5092
aS'went'
p5093
aS'from'
p5094
aS'Oderless,'
p5095
aS'to'
p5096
aS'ODEROUS!'
p5097
ag316
tp5098
a((lp5099
S'Even'
p5100
aS'when'
p5101
aS'empty!'
p5102
ag17
tp5103
a((lp5104
S'So,'
p5105
ag57
aS'took'
p5106
aS'it'
p5107
aS'to'
p5108
aS'the'
p5109
aS'tub,'
p5110
aS'scrub'
p5111
aS'it'
p5112
aS'down'
p5113
aS'with'
p5114
aS'disinfectant.'
p5115
ag17
tp5116
a((lp5117
S'It'
p5118
aS'still'
p5119
aS'smelled.'
p5120
ag316
tp5121
a((lp5122
S'So'
p5123
aS'then'
p5124
ag57
aS'used'
p5125
aS'straight'
p5126
aS'bleach.'
p5127
ag17
tp5128
a((lp5129
S'That'
p5130
aS'seemed'
p5131
aS'to'
p5132
aS'work'
p5133
aS'--'
p5134
aS'for'
p5135
aS'about'
p5136
ag1003
aS'days.'
p5137
ag17
tp5138
a((lp5139
S'Then'
p5140
aS'it'
p5141
aS'started'
p5142
aS'to'
p5143
aS'smell'
p5144
aS'whether'
p5145
aS'there'
p5146
aS'were'
p5147
aS'diapers'
p5148
aS'in'
p5149
aS'it'
p5150
aS'or'
p5151
aS'not.'
p5152
ag316
tp5153
a((lp5154
S'However,'
p5155
aS'for'
p5156
aS'the'
p5157
aS'previous'
p5158
aS'13'
p5159
aS'months-this'
p5160
aS'is'
p5161
aS'what'
p5162
ag57
aS'encountered'
p5163
ag73
aS'PROS'
p5164
ag73
ag17
tp5165
a((lp5166
S'Using'
p5167
aS'your'
p5168
aS'own'
p5169
aS'bags'
p5170
aS'is'
p5171
aS'much'
p5172
aS'cheaper'
p5173
aS'and'
p5174
aS'convenient.'
p5175
ag10
tp5176
a((lp5177
S'The'
p5178
aS'height'
p5179
aS'is'
p5180
ag341
aS'more'
p5181
aS'convenient'
p5182
aS'reach'
p5183
aS'than'
p5184
aS'others,'
p5185
aS'where'
p5186
aS'you'
p5187
aS'have'
p5188
aS'to'
p5189
aS'hunch'
p5190
aS'over.'
p5191
ag10
tp5192
a((lp5193
S'Its'
p5194
aS'stable,'
p5195
aS'so'
p5196
ag341
aS'curious'
p5197
aS'toddler'
p5198
aS"can't"
p5199
aS'easily'
p5200
aS'tip'
p5201
aS'it'
p5202
aS'over.'
p5203
ag10
tp5204
a((lp5205
S'CONS'
p5206
ag73
aS'Difficult'
p5207
aS'to'
p5208
aS'open'
p5209
aS'to'
p5210
aS'change'
p5211
aS'bag-twice'
p5212
aS'my'
p5213
aS'bags'
p5214
aS'caught'
p5215
aS'on'
p5216
ag341
aS'sharp'
p5217
aS'edge'
p5218
aS'inside'
p5219
aS'and'
p5220
aS'snagged'
p5221
aS'as'
p5222
ag57
aS'was'
p5223
aS'pulling'
p5224
aS'out-leaving'
p5225
aS'dirty'
p5226
aS'diapers'
p5227
aS'all'
p5228
aS'over'
p5229
aS'the'
p5230
aS'floor.'
p5231
ag316
tp5232
a((lp5233
S'Also,'
p5234
aS'diapers'
p5235
aS'tend'
p5236
aS'to'
p5237
aS'stay'
p5238
aS'in'
p5239
aS'the'
p5240
aS'middle,'
p5241
aS'causing'
p5242
aS'the'
p5243
aS'pail'
p5244
aS'to'
p5245
aS'get'
p5246
aS'backed'
p5247
aS'up.'
p5248
ag316
tp5249
a((lp5250
S'Diapers'
p5251
aS'can'
p5252
aS'get'
p5253
aS'stuck'
p5254
aS'when'
p5255
aS'turned'
p5256
aS'around'
p5257
aS'if'
p5258
aS'you'
p5259
aS"don't"
p5260
aS'tightly'
p5261
aS'wrap'
p5262
aS'them'
p5263
aS'first.'
p5264
ag316
tp5265
a((lp5266
S'My'
p5267
aS'toddler'
p5268
aS'thought'
p5269
aS'rotating'
p5270
aS'the'
p5271
aS'top'
p5272
aS'was'
p5273
aS'fun-he'
p5274
aS'always'
p5275
aS'wanted'
p5276
aS'to'
p5277
aS'play'
p5278
aS'with'
p5279
aS'it'
p5280
ag17
tp5281
a((lp5282
S'(Being'
p5283
ag341
aS'diaper'
p5284
aS'pail,'
p5285
aS"I'd"
p5286
aS'prefer'
p5287
aS'he'
p5288
aS'not'
p5289
aS'be'
p5290
aS'enticed'
p5291
aS'by'
p5292
aS'something'
p5293
aS'so'
p5294
aS'unsanitary.)'
p5295
ag17
tp5296
a((lp5297
g57
aS'wanted'
p5298
aS'this'
p5299
aS'product'
p5300
aS'because'
p5301
aS'i'
p5302
aS"didn't"
p5303
aS'have'
p5304
aS'to'
p5305
aS'buy'
p5306
aS'special'
p5307
aS'bags'
p5308
aS'for'
p5309
aS'it'
p5310
aS'and'
p5311
aS'it'
p5312
aS'also'
p5313
aS'came'
p5314
aS'highly'
p5315
aS'recommended.'
p5316
ag10
tp5317
a((lp5318
S'The'
p5319
aS'only'
p5320
aS'problem'
p5321
ag5302
aS'have'
p5322
aS'is'
p5323
aS'with'
p5324
aS'the'
p5325
aS'handle'
p5326
aS'you'
p5327
aS'use'
p5328
aS'to'
p5329
aS'open'
p5330
aS'the'
p5331
aS'top'
p5332
aS'compartment.'
p5333
ag316
tp5334
a((lp5335
S'The'
p5336
aS'way'
p5337
aS'you'
p5338
aS'have'
p5339
aS'to'
p5340
aS'shove'
p5341
aS'your'
p5342
aS'fingers'
p5343
aS'under'
p5344
aS'it'
p5345
aS'and'
p5346
aS'pull'
p5347
aS'is'
p5348
aS'just'
p5349
aS'too'
p5350
aS'tight.'
p5351
ag316
tp5352
a((lp5353
g57
aS"can't"
p5354
aS'tell'
p5355
aS'you'
p5356
aS'how'
p5357
aS'many'
p5358
aS'times'
p5359
aS"i've"
p5360
aS'chipped'
p5361
ag341
aS'nail'
p5362
aS'or'
p5363
aS'hurt'
p5364
aS'my'
p5365
aS'fingertips'
p5366
aS'because'
p5367
aS'of'
p5368
aS'the'
p5369
aS'force'
p5370
aS'needed'
p5371
aS'to'
p5372
aS'open'
p5373
aS'it.'
p5374
ag316
tp5375
a((lp5376
S'That'
p5377
aS'would'
p5378
aS'be'
p5379
aS'my'
p5380
aS'only'
p5381
aS'complaint.'
p5382
ag17
tp5383
a((lp5384
S'This'
p5385
aS'is'
p5386
ag341
aS'GREAT'
p5387
aS'product!'
p5388
ag10
tp5389
a((lp5390
g57
aS'had'
p5391
aS'never'
p5392
aS'liked'
p5393
aS'the'
p5394
aS'idea'
p5395
aS'of'
p5396
aS'the'
p5397
aS'Diaper'
p5398
aS'Genie'
p5399
aS'because'
p5400
aS'of'
p5401
aS'the'
p5402
aS'refills.'
p5403
ag316
tp5404
a((lp5405
S'Not'
p5406
aS'only'
p5407
aS'can'
p5408
aS'they'
p5409
aS'be'
p5410
ag341
aS'pain'
p5411
aS'to'
p5412
aS'install,'
p5413
aS'but'
p5414
aS'who'
p5415
aS'needs'
p5416
aS'one'
p5417
aS'extra'
p5418
aS'thing'
p5419
aS'to'
p5420
aS'watch'
p5421
ag341
aS'supply'
p5422
aS'of?'
p5423
ag17
tp5424
a((lp5425
g57
aS'mean,'
p5426
aS'with'
p5427
aS'babies'
p5428
aS"it's"
p5429
aS'already'
p5430
aS'far'
p5431
aS'too'
p5432
aS'easy'
p5433
aS'to'
p5434
aS'run'
p5435
aS'out'
p5436
aS'of'
p5437
aS'diapers'
p5438
aS'or'
p5439
aS'formula.'
p5440
ag17
tp5441
a((lp5442
g57
aS"couldn't"
p5443
aS'picture'
p5444
aS'myself'
p5445
aS'yelling'
p5446
aS'to'
p5447
aS'hubby,'
p5448
aS'"Honey,'
p5449
ag57
aS'know'
p5450
aS'you'
p5451
aS'have'
p5452
aS'sixty'
p5453
aS'other'
p5454
aS'things'
p5455
aS'to'
p5456
aS'get...can'
p5457
aS'you'
p5458
aS'also'
p5459
aS'pick'
p5460
aS'up'
p5461
aS'refills'
p5462
aS'for'
p5463
aS'the'
p5464
aS'diaper'
p5465
aS'pail?"'
p5466
ag17
tp5467
a((lp5468
S'The'
p5469
aS'Champ'
p5470
aS'works'
p5471
aS'great.'
p5472
ag10
tp5473
a((lp5474
S'We'
p5475
aS'use'
p5476
aS'regular'
p5477
aS'kitchen'
p5478
aS'sized'
p5479
aS'garbage'
p5480
aS'bags.'
p5481
ag10
tp5482
a((lp5483
S"We've"
p5484
aS'never'
p5485
aS'experienced'
p5486
aS'odor'
p5487
aS'from'
p5488
aS'the'
p5489
aS'pail.'
p5490
ag10
tp5491
a((lp5492
S'It'
p5493
aS'was'
p5494
aS'easy'
p5495
aS'to'
p5496
aS'assemble,'
p5497
aS'and'
p5498
aS'the'
p5499
aS'diapers'
p5500
aS'fit'
p5501
aS'perfectly'
p5502
aS'into'
p5503
aS'the'
p5504
aS'little'
p5505
aS'nook'
p5506
aS'before'
p5507
aS'they'
p5508
aS'make'
p5509
aS'their'
p5510
aS'way'
p5511
aS'into'
p5512
aS'the'
p5513
aS'pail'
p5514
aS'portion.'
p5515
ag10
tp5516
a((lp5517
g57
aS'also'
p5518
aS'love'
p5519
aS'that'
p5520
aS'you'
p5521
aS'can'
p5522
aS'flip'
p5523
aS'the'
p5524
aS'device'
p5525
aS'with'
p5526
aS'one'
p5527
aS'hand...'
p5528
ag10
tp5529
a((lp5530
S'Highly'
p5531
aS'recommended!!!'
p5532
ag17
tp5533
a((lp5534
S'Makes'
p5535
aS'life'
p5536
aS'easier'
p5537
aS'and'
p5538
aS'keeps'
p5539
aS"baby's"
p5540
aS'room'
p5541
aS'smelling'
p5542
aS'like'
p5543
aS'baby,'
p5544
aS'not'
p5545
aS'dirty'
p5546
aS'diapers!'
p5547
ag17
tp5548
a((lp5549
S'Excellent'
p5550
aS'diaper'
p5551
aS'disposal'
p5552
aS'unit.'
p5553
ag10
tp5554
a((lp5555
g57
aS'used'
p5556
aS'it'
p5557
aS'in'
p5558
aS'conjunction'
p5559
aS'with'
p5560
aS'Glad'
p5561
aS'3ply'
p5562
aS'kitchen'
p5563
aS'trash'
p5564
aS'bags'
p5565
aS'with'
p5566
aS'odor'
p5567
aS'control'
p5568
aS'(scented).'
p5569
ag17
tp5570
a((lp5571
g57
aS'am'
p5572
aS'soooo'
p5573
aS'pleased'
p5574
aS'with'
p5575
aS'this'
p5576
aS'product!!!'
p5577
ag10
tp5578
a((lp5579
g829
aS'wise'
p5580
aS'investment'
p5581
aS'for'
p5582
aS'the'
p5583
aS'pocketbook'
p5584
ag4202
aS'for'
p5585
aS'the'
p5586
aS'nose!!!'
p5587
ag10
tp5588
a((lp5589
S'Diaper'
p5590
aS'Champ'
p5591
aS'is'
p5592
aS'great.'
p5593
ag10
tp5594
a((lp5595
S'But'
p5596
aS'just'
p5597
aS'to'
p5598
aS'let'
p5599
aS'you'
p5600
aS'know'
p5601
aS'that'
p5602
aS"I've"
p5603
aS'been'
p5604
aS'breastfeeding'
p5605
aS'and'
p5606
aS'the'
p5607
aS'poop'
p5608
aS"doesn't"
p5609
aS'stink'
p5610
aS'as'
p5611
aS'much'
p5612
aS'as'
p5613
aS'formula'
p5614
aS'poop.'
p5615
ag17
tp5616
a((lp5617
S'So'
p5618
ag57
aS"can't"
p5619
aS'tell'
p5620
aS'you'
p5621
aS'if'
p5622
aS'Diaper'
p5623
aS'Champ'
p5624
aS'will'
p5625
aS'be'
p5626
aS'as'
p5627
aS'good'
p5628
aS'at'
p5629
aS'containing'
p5630
aS'the'
p5631
aS'formula'
p5632
aS'generated'
p5633
aS'poop'
p5634
aS'smell,'
p5635
aS'but'
p5636
aS"it's"
p5637
aS'excellent'
p5638
aS'at'
p5639
aS'containing'
p5640
aS'the'
p5641
aS'smell'
p5642
aS'of'
p5643
aS'poop'
p5644
aS'of'
p5645
aS'my'
p5646
aS'breastfed'
p5647
aS'baby!'
p5648
ag10
tp5649
a((lp5650
S'Friends'
p5651
aS'told'
p5652
aS'me'
p5653
aS'that'
p5654
aS'the'
p5655
aS'Diaper'
p5656
aS'Genie'
p5657
aS'did'
p5658
aS'not'
p5659
aS'work'
p5660
aS'very'
p5661
aS'well,'
p5662
aS'so'
p5663
aS'bought'
p5664
aS'the'
p5665
aS'Diaper'
p5666
aS'Champ'
p5667
aS'based'
p5668
aS'on'
p5669
aS'on-line'
p5670
aS'reviews'
p5671
aS'and'
p5672
ag57
aS'have'
p5673
aS'been'
p5674
aS'happy'
p5675
aS'with'
p5676
aS'it.'
p5677
ag10
tp5678
a((lp5679
S'It'
p5680
aS'works'
p5681
aS'easily'
p5682
aS'with'
p5683
aS'one'
p5684
aS'hand,'
p5685
aS'which'
p5686
aS'is'
p5687
aS'important.'
p5688
ag10
tp5689
a((lp5690
S'Also,'
p5691
aS'it'
p5692
aS'takes'
p5693
aS'any'
p5694
aS'kitchen'
p5695
aS'sized'
p5696
aS'trash'
p5697
aS'bag,'
p5698
aS'so'
p5699
aS'there'
p5700
aS'is'
p5701
aS'no'
p5702
aS'special'
p5703
aS'bag'
p5704
aS'to'
p5705
aS'stock.'
p5706
ag10
tp5707
a((lp5708
S'While'
p5709
aS'the'
p5710
aS'perfect'
p5711
aS'ordor'
p5712
aS'free'
p5713
aS'diaper'
p5714
aS'pail'
p5715
aS'has'
p5716
aS'yet'
p5717
aS'to'
p5718
aS'be'
p5719
aS'invented,'
p5720
aS'the'
p5721
aS'Diaper'
p5722
aS'Champ'
p5723
aS'is'
p5724
ag341
aS'good'
p5725
aS'as'
p5726
aS'it'
p5727
aS'gets.'
p5728
ag10
tp5729
a((lp5730
S'Gets'
p5731
aS'stinky'
p5732
aS'after'
p5733
ag341
aS'few'
p5734
aS'months,'
p5735
aS'the'
p5736
aS'seal'
p5737
aS'on'
p5738
aS'the'
p5739
aS'piston'
p5740
aS"doesn't"
p5741
aS'seal'
p5742
aS'anymore.'
p5743
ag316
tp5744
a((lp5745
S'Also,'
p5746
aS'diapers'
p5747
aS'and'
p5748
aS'wipes'
p5749
aS'get'
p5750
aS'stuck'
p5751
aS'in'
p5752
aS'the'
p5753
aS'grove'
p5754
aS'below'
p5755
aS'the'
p5756
aS'piston.'
p5757
ag316
tp5758
a((lp5759
S'Large'
p5760
aS'diapers'
p5761
aS'have'
p5762
aS'to'
p5763
aS'be'
p5764
aS'wrapped'
p5765
aS'tightly.'
p5766
ag17
tp5767
a((lp5768
g57
aS'gave'
p5769
aS'up'
p5770
aS'and'
p5771
aS'got'
p5772
ag341
aS'diaper'
p5773
aS'Dekor.'
p5774
ag316
tp5775
a((lp5776
S'Much'
p5777
aS'more'
p5778
aS'hands'
p5779
aS'off'
p5780
aS'and'
p5781
aS'takes'
p5782
aS'any'
p5783
aS'size'
p5784
aS'diapers.'
p5785
ag17
tp5786
a((lp5787
S'Also'
p5788
aS'much'
p5789
aS'less'
p5790
aS'stinky.'
p5791
ag316
tp5792
a((lp5793
S"Don't"
p5794
aS'buy'
p5795
aS'the'
p5796
aS'diaper'
p5797
aS'champ.'
p5798
ag316
tp5799
a((lp5800
S'You'
p5801
aS'will'
p5802
aS'be'
p5803
aS'sorry'
p5804
aS'after'
p5805
ag341
aS'few'
p5806
aS'months.'
p5807
ag17
tp5808
a((lp5809
S'So'
p5810
aS'far'
p5811
aS'so'
p5812
aS'good.'
p5813
ag17
tp5814
a((lp5815
g57
aS'was'
p5816
aS'using'
p5817
aS'the'
p5818
aS'cheapie'
p5819
aS'pail...and'
p5820
aS'it'
p5821
aS'worked'
p5822
aS'ok'
p5823
aS'until'
p5824
aS'the'
p5825
aS'opening'
p5826
aS'device'
p5827
aS'fell'
p5828
aS'apart.'
p5829
ag10
tp5830
a((lp5831
g57
aS'am'
p5832
aS'wondering'
p5833
aS'how'
p5834
aS'some'
p5835
aS'of'
p5836
aS'these'
p5837
aS'reviewers'
p5838
aS'are'
p5839
aS'able'
p5840
aS'to'
p5841
aS'stand'
p5842
aS'having'
p5843
aS'kids?'
p5844
ag17
tp5845
a((lp5846
S'Even'
p5847
aS'the'
p5848
aS'old'
p5849
aS'pail'
p5850
aS'hardly'
p5851
aS'smelled'
p5852
aS'bad'
p5853
aS'to'
p5854
aS'me,'
p5855
ag57
aS'think'
p5856
aS'after'
p5857
aS'you'
p5858
aS'have'
p5859
aS'changed'
p5860
aS'diapers'
p5861
aS'for'
p5862
ag434
aS'years,'
p5863
aS'you'
p5864
aS'get'
p5865
aS'somewhat'
p5866
aS'immune'
p5867
aS'to'
p5868
aS'it.'
p5869
ag17
tp5870
a((lp5871
g57
aS'could'
p5872
aS'probably'
p5873
aS'use'
p5874
ag341
aS'trash'
p5875
aS'can'
p5876
aS'and'
p5877
aS'be'
p5878
aS'ok'
p5879
aS'at'
p5880
aS'this'
p5881
aS'point,'
p5882
aS'but'
p5883
aS'this'
p5884
aS'prduct'
p5885
aS'seems'
p5886
aS'to'
p5887
aS'work'
p5888
aS'very'
p5889
aS'well'
p5890
aS'so'
p5891
aS'far.'
p5892
ag10
tp5893
a((lp5894
S'Let'
p5895
aS'me'
p5896
aS'just'
p5897
aS'say'
p5898
aS'this...'
p5899
aS'After'
p5900
aS'being'
p5901
ag341
aS'nanny'
p5902
aS'for'
p5903
aS'almost'
p5904
aS'10'
p5905
aS'years'
p5906
ag57
aS'have'
p5907
aS'tried'
p5908
aS'them'
p5909
aS'all.'
p5910
ag17
tp5911
a((lp5912
S'This'
p5913
aS'one'
p5914
aS'is'
p5915
aS'really'
p5916
aS'great.'
p5917
ag10
tp5918
a((lp5919
g57
aS'actually'
p5920
aS'took'
p5921
ag341
aS'friends'
p5922
aS'word'
p5923
aS'on'
p5924
aS'it'
p5925
aS'and'
p5926
aS'went'
p5927
aS'with'
p5928
aS'this'
p5929
aS'Champ'
p5930
aS'when'
p5931
aS'registering'
p5932
aS'and'
p5933
ag57
aS'am'
p5934
aS'glad'
p5935
ag57
aS'did.'
p5936
ag10
tp5937
a((lp5938
g57
aS'just'
p5939
aS'knew'
p5940
aS'all'
p5941
aS'along'
p5942
aS'what'
p5943
aS'products'
p5944
ag57
aS'would'
p5945
aS'not'
p5946
aS'use,'
p5947
aS'but'
p5948
aS'was'
p5949
aS'undecided'
p5950
aS'on'
p5951
aS'the'
p5952
aS'actual'
p5953
aS'one'
p5954
ag57
aS'wanted.'
p5955
ag17
tp5956
a((lp5957
S'Well'
p5958
aS'the'
p5959
aS'Champ'
p5960
aS'has'
p5961
aS'survived'
p5962
aS"it's"
p5963
aS'first'
p5964
aS'year'
p5965
aS'with'
p5966
aS'our'
p5967
aS'son'
p5968
aS'and'
p5969
aS'it'
p5970
aS'is'
p5971
aS'great!!'
p5972
ag10
tp5973
a((lp5974
S'We'
p5975
aS'just'
p5976
aS'bought'
p5977
aS'another'
p5978
aS'for'
p5979
aS'baby'
p5980
aS'boy'
p5981
aS'number'
p5982
aS'two'
p5983
aS'coming'
p5984
aS'next'
p5985
aS'month.'
p5986
ag17
tp5987
a((lp5988
S'The'
p5989
aS'thought'
p5990
aS'of'
p5991
aS'not'
p5992
aS'having'
p5993
aS'to'
p5994
aS'buy'
p5995
aS'refills'
p5996
aS'and'
p5997
aS'just'
p5998
aS'using'
p5999
aS'regular'
p6000
aS'bags'
p6001
aS'is'
p6002
aS'awesome!'
p6003
ag10
tp6004
a((lp6005
S'We'
p6006
aS'just'
p6007
aS'buy'
p6008
aS'the'
p6009
aS'smaller'
p6010
aS'bags'
p6011
aS'that'
p6012
aS'come'
p6013
aS'like'
p6014
aS'250'
p6015
aS'to'
p6016
ag341
aS'roll'
p6017
aS'and'
p6018
aS'are'
p6019
aS'sented'
p6020
aS'and'
p6021
aS'they'
p6022
aS'are'
p6023
aS'like'
p6024
aS'$6.00'
p6025
aS'and'
p6026
aS'they'
p6027
aS'work'
p6028
aS'great.'
p6029
ag10
tp6030
a((lp6031
S'We'
p6032
aS'just'
p6033
aS'recently'
p6034
aS'had'
p6035
aS'to'
p6036
aS'buy'
p6037
aS'another'
p6038
aS'roll'
p6039
aS'of'
p6040
aS'bags.'
p6041
aS'SO'
p6042
aS'$6.00'
p6043
aS'for'
p6044
ag341
aS'year'
p6045
aS'of'
p6046
aS'bags-'
p6047
aS"can't"
p6048
aS'beat'
p6049
aS'that!!'
p6050
ag10
tp6051
a((lp6052
S'We'
p6053
aS'lysol'
p6054
aS'the'
p6055
aS'champ'
p6056
aS'every'
p6057
aS'time'
p6058
aS'we'
p6059
aS'change'
p6060
aS'the'
p6061
aS'bag'
p6062
aS'out'
p6063
aS'and'
p6064
aS'have'
p6065
aS'not'
p6066
aS'had'
p6067
aS'any'
p6068
aS'problems.'
p6069
ag10
tp6070
a((lp6071
S'Would'
p6072
aS'reccommend'
p6073
aS'to'
p6074
aS'anyone'
p6075
aS'and'
p6076
aS'everyone!!'
p6077
ag17
tp6078
a((lp6079
S"Don't"
p6080
aS'listen'
p6081
aS'to'
p6082
aS'the'
p6083
aS'bad'
p6084
aS'reviews!'
p6085
ag17
tp6086
a((lp6087
S'This'
p6088
aS'is'
p6089
aS'really'
p6090
ag341
aS'nice'
p6091
aS'diaper'
p6092
aS'pail.'
p6093
ag10
tp6094
a((lp6095
g57
aS'recommend'
p6096
aS'it'
p6097
aS'to'
p6098
aS'both'
p6099
aS'parents'
p6100
aS'of'
p6101
aS'infants'
p6102
aS'and'
p6103
aS'toddlers.'
p6104
ag10
tp6105
a((lp6106
S'In'
p6107
aS'fact,'
p6108
ag57
aS'liked'
p6109
aS'it'
p6110
aS'so'
p6111
aS'much'
p6112
aS'after'
p6113
aS'using'
p6114
aS'it'
p6115
aS'with'
p6116
aS'my'
p6117
aS'son'
p6118
aS'who'
p6119
aS'is'
p6120
aS'now'
p6121
ag553
aS'years'
p6122
aS'old,'
p6123
aS'that'
p6124
ag57
aS'bought'
p6125
aS'one'
p6126
aS'for'
p6127
aS'our'
p6128
aS'new'
p6129
aS"baby's"
p6130
aS'room.'
p6131
ag10
tp6132
a((lp6133
S'Originally'
p6134
aS'with'
p6135
aS'my'
p6136
aS'son'
p6137
aS'we'
p6138
aS'had'
p6139
ag341
aS'Diaper'
p6140
aS'Genie.'
p6141
ag17
tp6142
a((lp6143
S'Wow'
p6144
ag73
aS'was'
p6145
aS'that'
p6146
aS'disappointing'
p6147
aS'and'
p6148
aS'we'
p6149
aS"didn't"
p6150
aS'even'
p6151
aS'have'
p6152
aS'it'
p6153
aS'6'
p6154
aS'months'
p6155
aS'before'
p6156
aS'it'
p6157
aS'broke.'
p6158
ag10
tp6159
a((lp6160
g57
aS'bought'
p6161
aS'the'
p6162
aS'Diaper'
p6163
aS'Champ'
p6164
aS'and'
p6165
aS'have'
p6166
aS'been'
p6167
aS'very'
p6168
aS'happy'
p6169
aS'for'
p6170
aS'the'
p6171
aS'following'
p6172
aS'reasons.'
p6173
ag10
tp6174
a((lp6175
S'1.'
p6176
aS'The'
p6177
aS'Diaper'
p6178
aS'Champ'
p6179
aS"doesn't"
p6180
aS'require'
p6181
aS'special'
p6182
aS'refills'
p6183
aS'that'
p6184
aS'are'
p6185
aS'expensive'
p6186
aS'and'
p6187
aS'hard'
p6188
aS'to'
p6189
aS'find!'
p6190
ag10
tp6191
a((lp6192
S'We'
p6193
aS'just'
p6194
aS'use'
p6195
aS'the'
p6196
aS'Glad'
p6197
aS'tall'
p6198
aS'kitchen'
p6199
aS'trash'
p6200
aS'can'
p6201
aS'bags'
p6202
aS'with'
p6203
aS'odor'
p6204
aS'shield'
p6205
aS'from'
p6206
aS'Target'
p6207
aS'and'
p6208
aS'they'
p6209
aS'work'
p6210
aS'wonderfully.'
p6211
ag10
tp6212
a((lp6213
S'We'
p6214
aS"don't"
p6215
aS'have'
p6216
aS'to'
p6217
aS'worry'
p6218
aS'about'
p6219
aS'running'
p6220
aS'out'
p6221
aS'of'
p6222
aS'refills'
p6223
aS'with'
p6224
aS'this'
p6225
aS'diaper'
p6226
aS'pail!'
p6227
ag10
tp6228
a((lp6229
S'2.'
p6230
aS'It'
p6231
aS'can'
p6232
aS'be'
p6233
aS'operated'
p6234
aS'with'
p6235
aS'one'
p6236
aS'hand'
p6237
ag73
aS'Leaving'
p6238
ag341
aS'hand'
p6239
aS'on'
p6240
aS'your'
p6241
aS'baby'
p6242
aS'on'
p6243
aS'the'
p6244
aS'changing'
p6245
aS'table.'
p6246
ag10
tp6247
a((lp6248
S'So'
p6249
aS'much'
p6250
aS'safer'
p6251
aS'than'
p6252
aS'the'
p6253
aS'others'
p6254
aS'that'
p6255
aS'require'
p6256
ag341
aS'two'
p6257
aS'handed'
p6258
aS'operation!'
p6259
ag10
tp6260
a((lp6261
S'With'
p6262
aS'them,'
p6263
aS'you'
p6264
aS'have'
p6265
aS'to'
p6266
aS'put'
p6267
aS'your'
p6268
aS'baby'
p6269
aS'on'
p6270
aS'the'
p6271
aS'floor'
p6272
aS'or'
p6273
aS'someplace'
p6274
aS'else'
p6275
aS'safe'
p6276
aS'just'
p6277
aS'to'
p6278
aS'put'
p6279
aS'the'
p6280
aS'diaper'
p6281
aS'in'
p6282
aS'the'
p6283
aS'pail.'
p6284
ag17
tp6285
a((lp6286
S'The'
p6287
aS'Diaper'
p6288
aS'Champ'
p6289
aS'is'
p6290
aS'so'
p6291
aS'simple'
p6292
aS'that'
p6293
aS'my'
p6294
aS'toddler'
p6295
aS'loves'
p6296
aS'to'
p6297
aS'put'
p6298
aS'his'
p6299
aS'own'
p6300
aS'diapers'
p6301
aS'in'
p6302
aS'the'
p6303
aS'diaper'
p6304
aS'champ'
p6305
aS'and'
p6306
aS'flip'
p6307
aS'over'
p6308
aS'the'
p6309
aS'handle.'
p6310
ag10
tp6311
a((lp6312
S'He'
p6313
aS'thinks'
p6314
aS'it'
p6315
aS'is'
p6316
aS'magic'
p6317
aS'when'
p6318
aS'the'
p6319
aS'diaper'
p6320
aS'"disappears".'
p6321
ag17
tp6322
a((lp6323
S'3.'
p6324
aS'Bags'
p6325
aS'are'
p6326
aS'easy'
p6327
aS'to'
p6328
aS'change.'
p6329
ag10
tp6330
a((lp6331
S'Pop'
p6332
aS'the'
p6333
aS'lid,'
p6334
aS'fold'
p6335
aS'it'
p6336
aS'back'
p6337
aS'on'
p6338
aS'its'
p6339
aS'hinge,'
p6340
aS'pull'
p6341
aS'the'
p6342
aS'trash'
p6343
aS'bag'
p6344
aS'through'
p6345
aS'the'
p6346
aS'ring,'
p6347
aS'and'
p6348
aS'take'
p6349
aS'out'
p6350
aS'the'
p6351
aS'dirty'
p6352
aS'diapers.'
p6353
ag17
tp6354
a((lp6355
S'To'
p6356
aS'replace'
p6357
aS'the'
p6358
aS'bag'
p6359
aS'simply'
p6360
aS'open'
p6361
aS'it'
p6362
aS'up'
p6363
aS'and'
p6364
aS'feed'
p6365
aS'the'
p6366
aS'top'
p6367
aS'of'
p6368
aS'the'
p6369
aS'bag'
p6370
aS'through'
p6371
aS'ring,'
p6372
aS'fold'
p6373
aS'it'
p6374
aS'over'
p6375
aS'the'
p6376
aS'sides'
p6377
aS'of'
p6378
aS'the'
p6379
aS'ring,'
p6380
aS'and'
p6381
aS'close.'
p6382
ag17
tp6383
a((lp6384
S'It'
p6385
aS'takes'
p6386
aS'all'
p6387
aS'of'
p6388
ag553
aS'minutes,'
p6389
aS'if'
p6390
aS'that.'
p6391
aS'4.'
p6392
ag17
tp6393
a((lp6394
S'It'
p6395
aS'keeps'
p6396
aS'smells'
p6397
aS'out'
p6398
aS'of'
p6399
aS'your'
p6400
aS'nursery'
p6401
aS'or'
p6402
aS'toddler'
p6403
aS'room!'
p6404
ag17
tp6405
a((lp6406
S'Yes,'
p6407
aS'you'
p6408
aS'may'
p6409
aS'get'
p6410
ag341
aS'whiff'
p6411
aS'of'
p6412
ag341
aS'smell'
p6413
aS'when'
p6414
aS'you'
p6415
aS'flip'
p6416
aS'the'
p6417
aS'handle,'
p6418
aS'but'
p6419
aS'then'
p6420
aS'it'
p6421
aS'is'
p6422
aS'gone.'
p6423
ag316
tp6424
a((lp6425
S'Remember,'
p6426
aS'it'
p6427
aS'does'
p6428
aS'hold'
p6429
aS'dirty'
p6430
aS'diapers!'
p6431
ag17
tp6432
a((lp6433
S'To'
p6434
aS'eliminate'
p6435
aS'any'
p6436
aS'smells'
p6437
aS'we'
p6438
aS'simple'
p6439
aS'stuck'
p6440
ag341
aS'Stick'
p6441
aS'Up'
p6442
aS'room'
p6443
aS'deodorizer'
p6444
aS'inside'
p6445
aS'the'
p6446
aS'lid.'
p6447
ag316
tp6448
a((lp6449
S'Now'
p6450
aS'when'
p6451
aS'you'
p6452
aS'flip'
p6453
aS'the'
p6454
aS'handle'
p6455
aS'you'
p6456
aS'get'
p6457
aS'the'
p6458
aS'Stick'
p6459
aS'Up'
p6460
aS'smell'
p6461
aS'instead.'
p6462
ag17
tp6463
a((lp6464
S'Works'
p6465
aS'great!!!!'
p6466
ag10
tp6467
a((lp6468
S'5.'
p6469
aS'The'
p6470
aS'price'
p6471
aS'is'
p6472
aS'right.'
p6473
ag10
tp6474
a((lp6475
S'At'
p6476
aS'$30'
p6477
aS'we'
p6478
aS'put'
p6479
aS'one'
p6480
aS'in'
p6481
aS'the'
p6482
aS'nursery'
p6483
aS'and'
p6484
aS'one'
p6485
aS'in'
p6486
aS'our'
p6487
aS"toddler's"
p6488
aS'room.'
p6489
ag17
tp6490
a.