(dp0
S'This is my second one.'
p1
NsS'The smooth operation variable speed and a set of good Jasada Bits will provide just the right combination for great predictable results.'
p2
(dp3
S'operation'
p4
S'+1'
p5
sS'speed'
p6
S'+1'
p7
ssS'The design of the collets is excellent and far exceeds any of the craftman (toy/junk) routers I have previously purchased.'
p8
(dp9
S'collets'
p10
S'+3'
p11
ssS"The plunge action isn't smooth unless you make it so."
p12
(dp13
S'plunge'
p14
S'-1'
p15
ssS'Bottom line is that at $160, this is an absolute steal.'
p16
(dp17
S'price'
p18
S'+3][u'
p19
ssS'Before buying this I read others reviews and of the complaints I read about....well I have not experienced any.'
p20
NsS"It came with a good fence that  is simple yet precise and thats well made and won't break."
p21
(dp22
S'fence'
p23
S'+1'
p24
ssS'Most of the time I use it mounted in a table, but obviously I also used it for hand held work.'
p25
NsS'I have added the router raizer kit(simple installation) to it and cannot live without this setup!'
p26
NsS'The soft start is a tremendous help for this type of operation.'
p27
(dp28
S'start'
p29
S'+2'
p30
ssS'The only beef that I have with it is that there is a little too much slop in the columns when the lock is not engaged.'
p31
(dp32
S'slop'
p33
S'-1'
p34
ssS'But, for the money it is a good machine.'
p35
(dp36
S'machine'
p37
S'+1][u'
p38
sS'money'
p39
S'+1'
p40
ssS"It doesn't bog down under load."
p41
(dp42
S'bog'
p43
S'+1'
p44
ssS'The router is also equipped with an adapter that accepts PC guide bushings.'
p45
NsS'For exclusive use in a double router table I have been building.'
p46
NsS"Combine this with the excellent price we got in the Gold Box, and I'm really happy."
p47
(dp48
S'price'
p49
S'+3'
p50
ssS"Mine was so bad I had to to use a hammer to free it (and this is why I'm giving it 4, not 5 stars)."
p51
(dp52
S'spring'
p53
S'-2][p'
p54
ssS'Very good balance in the hands and lighter than most 3 1/4 hp models.'
p55
(dp56
S'balance'
p57
S'+2'
p58
sS'lighter'
p59
S'+2][u][cs'
p60
ssS'The Hitachi is a great router for a great price, but only get it if you need the maximum power, variable speed and use it in a table.'
p61
(dp62
S'price'
p63
S'+2'
p64
sS'speed'
p65
S'+1'
p66
sS'use'
p67
S'-1'
p68
sS'power'
p69
S'+1'
p70
ssS'I have 3 Bosch routers, 1 Porter Cable, and the large Freud.'
p71
NsS"The price is incredible with the bonus pack and Hitachi's $25 incentive ( you need the code ---go to Toolseeker.com and it tells you)"
p72
(dp73
S'price'
p74
S'+3'
p75
ssS"I need it back as a hand held so I'm going to buy another one."
p76
NsS'I find that if you remove the springs it is much easier to adjust and will not stick much.'
p77
(dp78
S'springs'
p79
S'-1'
p80
ssS'I am now waiting for this one to stop.'
p81
NsS'Not a killer problem, but not well done, either.'
p82
(dp83
S'sawdust'
p84
S'-1][p'
p85
ssS'The soft start is nice.'
p86
(dp87
S'start'
p88
S'+1'
p89
ssS'This router was a huge disapointment.'
p90
(dp91
S'router'
p92
S'-3'
p93
ssS'All in all I am pleased with the router.'
p94
(dp95
S'router'
p96
S'+1'
p97
ssS'Overall it is a great value.'
p98
(dp99
S'router'
p100
S'+2][u'
p101
ssS'I have been impressed with the power of the Hitachi M12V.'
p102
(dp103
S'power'
p104
S'+2'
p105
ssS'I like the speed control.'
p106
(dp107
S'control'
p108
S'+1'
p109
ssS'It is a great router for a table and with the depth adjustment knob it is easy to adjust depth prescisely.'
p110
(dp111
S'router'
p112
S'+2'
p113
sS'adjustment'
p114
S'+1'
p115
ssS'It it is a bit heavy for hand held work, but any router this size will be.'
p116
(dp117
S'heavy'
p118
S'-1][u'
p119
ssS'I was skeptical about this router due to low price but have been totally impressed using it.'
p120
(dp121
S'router'
p122
S'+3][u'
p123
sS'price'
p124
S'-1'
p125
ssS'I purchased this router at a woodworking show after watching the CMT people using it to demo their bits and was impressed how it performed.'
p126
(dp127
S'performed'
p128
S'+2'
p129
ssS'I plan to get a Porter-Cable for table mounted use but will be using this machine for most if not all of my hand held use.'
p130
NsS'I do woodworking as a serious hobby.'
p131
NsS'It has plenty of power.'
p132
(dp133
S'power'
p134
S'+2'
p135
ssS'I use it in the table (never take the springs out - just attach the fine adjustment knob), in my woodrat and freehand and it works great in all circumstances.'
p136
(dp137
S'use'
p138
S'+2]'
p139
ssS'I did my homework before buying my larger 3+hp router for my router table.'
p140
NsS'Unlike my experience with the Dewalt, I now enjoy reaching for the Hitachi (and allow me to stress I am a fan of many other Dewalt tools -- especially their large table saw and famous miter saws).'
p141
NsS'Because of this I have removed the handles.'
p142
NsS'I would put the Hitachi up with the best!'
p143
(dp144
S'Hitachi'
p145
S'+3][u][cc'
p146
ssS'This entails wiping the rods, blowing compressed air into the housings, and lightly lubricating the rods with silicone lubricant.'
p147
NsS'I have many others in the past.'
p148
NsS'The only complaint I have is that the 1/4" collet will not sufficiently hold any of my 1/4" bits.'
p149
(dp150
S'collet'
p151
S'-1'
p152
ssS'The power, low noise operation, and speed control makes up for the problems I have experienced.'
p153
(dp154
S'control'
p155
S'+1'
p156
sS'noise'
p157
S'+1'
p158
sS'power'
p159
S'+1'
p160
ssS'One cabinet shop has been using one regularly in a router table for 11 years without a problem.'
p161
(dp162
S'router'
p163
S'+3'
p164
ssS'I sent it back, as I think that the speed control is either poorly designed or defective.'
p165
(dp166
S'control'
p167
S'-1'
p168
sS'router'
p169
S'-2][u'
p170
ssS'Maple, Koa and Cherry giving us the hardest time with burning and splintering.'
p171
NsS'This is a quality product, not to be confused with teh cheap junk that Hitachi gets manufactured in China.'
p172
(dp173
S'product'
p174
S'+1'
p175
ssS'At the last Anahiem WW Show I decided to get the M12V.'
p176
NsS'I use it on woods from the hardest of maples & osage to cedars.'
p177
NsS'On top of being a workhorse and ultra reliable, it is just a plunge router that works really well.'
p178
(dp179
S'router'
p180
S'+1][u'
p181
sS'plunge'
p182
S'+2'
p183
ssS"The owner had three routers - all M12's."
p184
NsS"It's not the heaviest around (I think Porter-Cable has that distinction), but I found its combination of weight and power really too much to allow precise handheld operation."
p185
(dp186
S'precise'
p187
S'-1'
p188
sS'power'
p189
S'-1'
p190
sS'weight'
p191
S'-1][u][cc'
p192
ssS'The edge guide is top quality, easy to install and accurate.'
p193
(dp194
S'guide'
p195
S'+3'
p196
ssS'I do not count this as a negative, however, because it is not that much of a nuisance and at the price for what you get this router is way too good to pass up!!!'
p197
(dp198
S'router'
p199
S'+2][u'
p200
sS'price'
p201
S'+2'
p202
ssS'I make furniture and cabinetry.'
p203
NsS"This is a great deal, and I'm elated with my decision to go with Hitachi's green machine."
p204
(dp205
S'machine'
p206
S'+2][u'
p207
ssS'Until recently it was my only router.'
p208
NsS'This is a well-made and powerful tool.'
p209
(dp210
S'tool'
p211
S'+1][u'
p212
sS'powerful'
p213
S'+1][u'
p214
ssS'I purchased two of these beauties.'
p215
(dp216
S'router'
p217
S'+1][u'
p218
ssS'If the plunging action is critical to your work, look elsewhere.'
p219
(dp220
S'plunging'
p221
S'-2'
p222
ssS'I really liked the price...'
p223
(dp224
S'price'
p225
S'+2'
p226
ssS'You must keep double checking depths.'
p227
(dp228
S'depths'
p229
S'-1'
p230
ssS"It ain't cutting edge (no pun intended) state of the art with all the latest bells & whistles & it definitely ain't pretty."
p231
(dp232
S'pretty'
p233
S'-1][u'
p234
ssS'It is currently permanently mounted (3 years now) in my router table and will most likely stay there until its shot.'
p235
(dp236
S'router'
p237
S'+3][u'
p238
ssS'This is a fantastic tool to use.'
p239
(dp240
S'tool'
p241
S'+3][u'
p242
ssS'My first router is a safety hazard if you do not pay attention and are not very careful.'
p243
(dp244
S'safety'
p245
S'-2'
p246
ssS"I can't complain and Amazons' service was perfect!"
p247
NsS'It works well with the larger bits.'
p248
NsS"Also I like the  position of all the controls and the fact that it doesn't have any extra  knobs or gizmos."
p249
(dp250
S'controls'
p251
S'+1'
p252
ssS'It is a heavy but well-balanced machine, which is an asset when maximum stability is desired.'
p253
(dp254
S'heavy'
p255
S'-1][u'
p256
sS'machine'
p257
S'+1][u'
p258
sS'stability'
p259
S'+1'
p260
ssS'What I really like about- its quite, it can handle my workload and it was so cheap that I can throw it away and buy another one without blinking.'
p261
(dp262
S'workload'
p263
S'+1'
p264
sS'cheap'
p265
S'+3][u'
p266
sS'quite'
p267
S'+1][u'
p268
ssS'The speed control is recessed too far in the housing and required a tool (screwdriver or dowel rod) to effect any speed change.'
p269
(dp270
S'control'
p271
S'-1'
p272
ssS"As much as I like my other routers, I know their limitations because I've pushed them all to them."
p273
NsS'The included fence guide is easy to set up and quite accurate as well.'
p274
(dp275
S'guide'
p276
S'+1'
p277
ssS'But, the first one just stopped working while pushing through the workpiece.'
p278
NsS"It is a little large for my table (Rockler), but that isn't the fault of the router."
p279
NsS"Nice things about the M12V: - in a table, the powerful 3 1/4 HP motor is great - soft start helps a lot to control the beast when you turn the router on - continuously variable speed control - Amazon's price"
p280
(dp281
S'start'
p282
S'+2'
p283
sS'price'
p284
S'+1'
p285
sS'speed'
p286
S'+1'
p287
sS'motor'
p288
S'+2'
p289
ssS'I recently had to run a 3/4" straight bit through hard maple to make a deep dado and was amazed that this machine didn\'t even slow down.'
p290
(dp291
S'machine'
p292
S'+2][u'
p293
ssS'I use the router with a 3 1/2in raised panel bit with no problems.'
p294
(dp295
S'router'
p296
S'+1'
p297
ssS'In my table the M12V has been a real champ.'
p298
(dp299
S'M12V'
p300
S'+2][u'
p301
ssS'After getting used to the M12 all the rest seemed lacking.'
p302
(dp303
S'M12'
p304
S'+3][u][cc'
p305
ssS'I purchased an aftermarket slotted collet that does the job.'
p306
NsS'Less than a cheap cordless drill or a laminate trimmer.'
p307
(dp308
S'cheap'
p309
S'+3][u'
p310
ssS'Well, when I got it home and mounted it in my router table, the shortcomings started showing up.'
p311
NsS'I use it on a router table, and it is works well.'
p312
(dp313
S'works'
p314
S'+1'
p315
ssS'Happy woodworking!!'
p316
NsS'The Hitachi M12V is a dream to work with, smooth starts, adjustable speeds, micro-adjustable depth, and plenty of power to spare.'
p317
(dp318
S'starts'
p319
S'+2'
p320
sS'depth'
p321
S'+2'
p322
sS'power'
p323
S'+2'
p324
sS'speeds'
p325
S'+2'
p326
ssS'At first, I kicked myself for not buying one in the first place instead of my smaller router, but in retrospect I think this is the best compromise.'
p327
NsS'Have to clean, buff & lube the plunge rods once in a while but I see that as a non issue because any router should be periodically cleaned anyway.'
p328
NsS'1. Your Hitachi might come to you with a stiff spring mechanism.'
p329
(dp330
S'spring'
p331
S'-1'
p332
ssS'Other than that, i think it is the best router for the money.'
p333
(dp334
S'money'
p335
S'+3'
p336
ssS'Good luck and cut wood!!!!'
p337
NsS'Bought an expensive Dewalt router some three years ago and never became comfortable with it.'
p338
NsS'Built like a tank, yet nimble enough to be comfortably used with the Leigh dovetail jig.'
p339
(dp340
S'nimble'
p341
S'+1'
p342
sS'solidity'
p343
S'+2][u'
p344
sS'used'
p345
S'+1'
p346
ssS'Unless you routinely use it like this (which I do to cut mortises on the woodrat) then you will never notice.'
p347
NsS'It would work fine for a while then as the motor warmed up it would die.'
p348
(dp349
S'control'
p350
S'-1][p'
p351
ssS'Smooth plunging mechanism.'
p352
(dp353
S'plunging'
p354
S'+1'
p355
ssS'I replaced it with a Router Raizer and it works much better.'
p356
(dp357
S'adjustment'
p358
S'-2][p][cc'
p359
ssS'I used this router to plow out 3" raised panels in oak without phasing the beast.'
p360
NsS'Mainly using core box bits & bull nose bits as well as round over bits.'
p361
NsS'The Hitachi, on the other hand has a beautiful large flat edge to run against a guide, and the sub-base is recessed so as not to interfere.'
p362
NsS'The Hitachi has plenty of power, runs smooth, and cuts effortlessly through maple (with Freud bits!)'
p363
(dp364
S'runs'
p365
S'+1'
p366
sS'power'
p367
S'+1'
p368
sS'cuts'
p369
S'+1'
p370
ssS"It's very quiet for a universal motor-driven tool, and the height adjustment stick and variable speed control are great."
p371
(dp372
S'adjustment'
p373
S'+2'
p374
sS'speed'
p375
S'+2'
p376
sS'quiet'
p377
S'+2][u'
p378
ssS'I also have the very popular Bosch 1617EVSPK kit and had planned to use it on my cabinets, routing dados for shelves.'
p379
NsS'I have a mid-size plunge router already, (the DeWalt 621-a fantastic router, read the MANY reviews) and needed a heavy duty machine for my table.'
p380
NsS'The one wrench systems makes changing bits somewhat difficult.'
p381
NsS'I was some what sceptical when I seen the price deference between the other makers of comparible HP.'
p382
(dp383
S'price'
p384
S'-1][cc'
p385
ssS'Enjoy.'
p386
(dp387
S'router'
p388
S'+1][u'
p389
ssS'The fine adustment knob which came with the router was very difficult to use on a router table.'
p390
(dp391
S'adustment knob'
p392
S'-1'
p393
ssS'With the PlungeLIFT all my bit changing has been done above the table, although I still have to reach below the table to operate the spindle lock (and, of course, the speed and ON/OFF controls).'
p394
(dp395
S'controls'
p396
S'-1'
p397
ssS'She told me to take a look at it, and after reading reviews here and at other sites, I told her to get it.'
p398
NsS'For me, it is as important that the tool be comfortable to use as it is that it produce a high-quality result.'
p399
(dp400
S'use'
p401
S'+1'
p402
sS'result'
p403
S'+1'
p404
ssS'I no longer use it as a plunge router, only as a stationary or table mounted router.'
p405
(dp406
S'plunge'
p407
S'-1'
p408
ssS'It is almost all you can do to change bits with two hands (you need three).'
p409
NsS'I use the Hitachi M12V in a router table.'
p410
NsS'Both the on/off switch (soft start) and the depth lock are within easy reach of the right hand.'
p411
(dp412
S'lock'
p413
S'+1'
p414
sS'switch'
p415
S'+1'
p416
ssS'And changing bits requires one hand on the wrench, one hand on the spindle lock, and two knees to hold the router -- another reason why the M12V is best used in a table.'
p417
NsS"I find it very stable and comfortable to use, it doesn't jump around or make me feel like I need to use a lot of arm strength to keep it under control, and  it has very good visibility to see your cut."
p418
(dp419
S'use'
p420
S'+2'
p421
sS'visibility'
p422
S'+2'
p423
sS'stable'
p424
S'+2][u'
p425
ssS'If this machine just stops on you, unplug it quickly and get out of the way!'
p426
(dp427
S'safety'
p428
S'-1][u][s'
p429
ssS'The sliding latch is does not stay in place.'
p430
(dp431
S'latch'
p432
S'-1'
p433
ssS"The major reasons I didn't give it a five are:  One, I didn't think the fine adjustment worked well."
p434
(dp435
S'adjustment'
p436
S'-1'
p437
ssS'I have hade such poor luck with other tools (a Bosch drill) made in Malasyia, that I could not see getting it.'
p438
NsS"I prefer to use my mind  to figure out how I'm going to build something not how my tools work."
p439
NsS'I added a crank for those times when I  need to make fine adjustments, but I seldom use it.'
p440
(dp441
S'adjustments'
p442
S'-1'
p443
ssS'I have since used them to cut all the stiles and rails for my first kitchen.'
p444
NsS'This is an excellent router for the money.'
p445
(dp446
S'money'
p447
S'+3'
p448
ssS'This is an excellent router for the price.'
p449
(dp450
S'price'
p451
S'+3'
p452
ssS'Then, without warning, it took off again.'
p453
NsS'When the router is working it is a very nice machine for the money.'
p454
(dp455
S'router'
p456
S'+2'
p457
sS'money'
p458
S'+2'
p459
ssS'They were easy to setup with plenty of power to hog through anything I have encountered.'
p460
(dp461
S'power'
p462
S'+2'
p463
sS'collets'
p464
S'+1][p'
p465
ssS'The Hitachi is made in Malasyia, and looked cheap compared with the Makita, which is made in the USA.'
p466
(dp467
S'looked'
p468
S'+1][u][cc'
p469
ssS'I am seriously considering purchasing another wrench and just not using the "sliding wrench" which comes on the router.'
p470
(dp471
S'wrench'
p472
S'-1'
p473
ssS'As I find it inheritly inaccurate by design.'
p474
NsS'My routers arrived promptly and I actually used one of them in the construction of the router table.'
p475
NsS'I never could get the panel bit to fit right.'
p476
NsS"I think I'll go rout something..."
p477
NsS'Luckily the soft start helped before it took the wood and tossed it or worse case, a finger.'
p478
(dp479
S'safety'
p480
S'-1][u'
p481
ssS'Gave the Dewalt to a woodworking friend in gratitude for his help in moving tools to a new shop.'
p482
NsS'I first used the router in the free hand mode and liked it a lot.'
p483
(dp484
S'router'
p485
S'+2'
p486
ssS"Since I use it in a table, I don't use the plunge feature, but if I ever need it I've got it."
p487
(dp488
S'plunge'
p489
S'+1'
p490
ssS"I'll be getting a second one for my router table!"
p491
(dp492
S'router'
p493
S'+3][u'
p494
ssS'I have 6 routers, but have owned about 10 over the years.'
p495
NsS"I find that it is stable in my hands and its' weight actually contributes to that stability."
p496
(dp497
S'stability'
p498
S'+1][u'
p499
sS'weight'
p500
S'+1'
p501
ssS'Can recommend the Hitachi in this ergonomic arena -- at the price quoted on Amazon it is a bargain.'
p502
(dp503
S'price'
p504
S'+2'
p505
ssS"After getting it installed (which wasn't an easy task), it makes fine adjustments easy."
p506
NsS'I have 5 routers, I use them all!'
p507
NsS'Then the most disappointing was trying to use Viper raised panel bits that just barely fit, and I mean just barely.'
p508
(dp509
S'use'
p510
S'-2'
p511
ssS'This router appeared in my wife\'s gold box a few weeks ago, and she knew I was looking to upgrade my Craftsman 1/4" fixed base router.'
p512
NsS'The edge guide has a nice micro adjust feature that works well.'
p513
(dp514
S'adjust'
p515
S'+1'
p516
ssS'This was my first real introduction to serious routing and I thought that the M12 was just a router.'
p517
NsS"Two, the single wrench just doesn't work well."
p518
(dp519
S'wrench'
p520
S'-1'
p521
ssS"Hitachi's M12V is a big beast of a router."
p522
(dp523
S'router'
p524
S'+2'
p525
ssS'The plunge lock and power switch are very easily accessible which is a must when doing free hand routing.'
p526
(dp527
S'accessible'
p528
S'+1][u'
p529
ssS'Smooth plunging! ( it did stick a bit so I sprayed it w/ lubricant.'
p530
(dp531
S'plunging'
p532
S'+2'
p533
ssS'I say this because I am not particulary fond of the hitachi compound miter saw.'
p534
NsS'Outside of needing an extension for half inch bits, which is a problem for most machines of this type.'
p535
NsS'Its  not a perfect system but its a very good one.'
p536
(dp537
S'system'
p538
S'+2'
p539
ssS'The wood can be pushed thru fast or slow with little bog.'
p540
(dp541
S'bog'
p542
S'+1'
p543
ssS'The power is incredible, it cut through MDF and plywood like butter.'
p544
(dp545
S'power'
p546
S'+3'
p547
ssS'The Hitachi collet simply was not ground accurately.'
p548
(dp549
S'collet'
p550
S'-1'
p551
ssS"The deal Amazon has going can't be beat and if you're considering buying this machine, do so from this site."
p552
NsS'It has enough power to hog out all the material in one pass, but I usually take multiple to prevent blowout and a smoother finish.'
p553
(dp554
S'power'
p555
S'+1'
p556
ssS'Luckily, the only significant handheld use I had to put it to was to plunge cut the melamine board that I dropped my Woodpeckers PlungeLIFT table insert into.'
p557
NsS"For the money, I'm not sure you can do better."
p558
(dp559
S'money'
p560
S'+3'
p561
ssS'Shortly after I brought it, the plunging shafts started sticking.'
p562
(dp563
S'shafts'
p564
S'-1'
p565
ssS'I could take 1/2" passes and it still didn\'t skip a beat.'
p566
(dp567
S'router'
p568
S'+2][u'
p569
ssS'I built my own router table with a tilt up top & made a hand crank to replace the height adjustment knob & these two things make it easy to change out & raise or lower the bits.'
p570
(dp571
S'adjustment'
p572
S'-1][s'
p573
ssS'My first experience with this router was when I was working in a professional window and door shop.'
p574
NsS'I bought it!'
p575
NsS'I love the performance and features of this router.'
p576
(dp577
S'performance'
p578
S'+2'
p579
sS'features'
p580
S'+2'
p581
ssS'I have less money invested in the router table and dual routers than I would have if I had purchased a single cheap reliant shaper.'
p582
(dp583
S'money'
p584
S'+2'
p585
ssS'I must have gotten a good one.'
p586
(dp587
S'router'
p588
S'+2][u'
p589
ssS'The adjustment knob seemed ok, but when lowering the router, I have to practically pull it down while turning the knob.'
p590
(dp591
S'adjustment'
p592
S'-1'
p593
ssS"If it weren't so big I would probably by another since no shop is complete without a handful of routers.."
p594
(dp595
S'big'
p596
S'-1][u'
p597
ssS"The ones I've kept (Porter Cables, Dewalts, Bosch, and this Hitachi) have proven their worth over the years, however, when I need a real workhorse, I grab this router."
p598
(dp599
S'router'
p600
S'+2'
p601
ssS'Well, my second one is now beginning to hicup a bit after about 1 1/2 years.'
p602
(dp603
S'duration'
p604
S'-1][u'
p605
ssS'They last about 1 1/2 years until the problems start.'
p606
(dp607
S'last'
p608
S'-1][u'
p609
ssS"The electronic speed control is not doing it's job and the router begins to speed up and slow down at will."
p610
(dp611
S'control'
p612
S'-1'
p613
ssS'The only not-so-positive comment I have is about the depth adjustment, it is not easy to micro-adjust accurately.'
p614
(dp615
S'adjustment'
p616
S'-1'
p617
ssS'Now I need to get some 1/2" bits...'
p618
NsS'Have read this on the web and can second the comparative preference.'
p619
NsS"If you're looking for a 3hp plunge router, the Hitachi M12V is your best bet to stretch your equipment budget."
p620
(dp621
S'router'
p622
S'+3'
p623
ssS"It's oftentimes hard to get a good grip on the router, activate the chuck lock, and get enough muscle behind the wrench to get the collet loosened up."
p624
(dp625
S'grip'
p626
S'-1'
p627
sS'chuck'
p628
S'-1'
p629
sS'collet'
p630
S'-1'
p631
ssS"I've done some hand-held routing with it and it works good for that as well."
p632
NsS"However, now that the kit comes with the height adjustment knob, I'd say jump all over it."
p633
NsS'However, it is much bigger, bulkier, and heavier than my other router and I would not like to use it freehand (I keep it mounted in a table).'
p634
(dp635
S'use'
p636
S'-1'
p637
sS'heavier'
p638
S'-1][u][cc'
p639
sS'bigger'
p640
S'-1][u][cc'
p641
ssS'The height adjustment knob is a bit flimsy, but it works well and provides good accuracy.'
p642
(dp643
S'adjustment'
p644
S'+1'
p645
ssS'There are a few points of contention which I have.'
p646
NsS"The only thing I hate (and this pretty much goes for any router I've used) is changing the bits."
p647
NsS'The only problem i find with it is that the plunge mechanism will eventually stick due to wood dust.'
p648
(dp649
S'plunge'
p650
S'-1'
p651
ssS'The true test is its ability to be forgiving when coping a rail.'
p652
NsS"I've yet to find the limitation for this Hitachi (my only Hitachi tool, by the way) and quite frankly, I don't know that I have the muscle to push this machine any harder."
p653
(dp654
S'Hitachi'
p655
S'+1][u'
p656
ssS'It felt rather stable in my hands (heavy though.)'
p657
(dp658
S'heavy'
p659
S'-1][u'
p660
sS'stable'
p661
S'+1][u'
p662
ssS"I'm sure I don't use it to the degree of some of the other purchasers, but I really like it!"
p663
(dp664
S'router'
p665
S'+2][u'
p666
ssS'The collet for the 1/4 inch bits is a pain to get in and even harder to get out.'
p667
(dp668
S'collet'
p669
S'-1'
p670
ssS'I bought this router a couple of months ago from Amazon and have used it a fair amount in that time.'
p671
NsS"The authorized Hitachi service center said they didn't know what was wrong as they hardly ever get these things in for service."
p672
NsS'I looked at this router and bought a Makita.'
p673
NsS'This router has soft start and runs smooth and true.'
p674
(dp675
S'start'
p676
S'+1'
p677
sS'runs'
p678
S'+1'
p679
ssS"I've cut dadoes, flush trim to duplicate a complex form, and done roundovers and Roman ogees."
p680
NsS'Not included are: - 3/8" chuck sleeve (the least common bit size) - depth scale in mm (the included one is in inches) - dust collector set - trimmer guide for chamfering'
p681
NsS"I didn't use the speed control that often so that is not a big deal."
p682
NsS'The depth adjustment and bit changing is much easier on the M12V than it was on my old router.'
p683
(dp684
S'adjustment'
p685
S'+2][cc'
p686
ssS'This will allow operation of the power switch with the left index finger and the plunge lock with the left thumb (instead of the standard right thumb and right index finger, respectively), but then the depth scale is on the back face of the router, as is the straight edge of the base plate.'
p687
NsS'The guide fence for freehand routing is well made and solid.'
p688
(dp689
S'fence'
p690
S'+1'
p691
ssS'I am trying to purchase a second wrench, and I think it will improve the function greatly.'
p692
NsS'The instructions would benefit from some improvement and it would help if the RPMs of the speed settings were mentioned.'
p693
(dp694
S'instructions'
p695
S'-1'
p696
ssS'Only problem is that is a bit heavy.'
p697
(dp698
S'heavy'
p699
S'-1][u'
p700
ssS'It is heavy enough to make it stable, but not too heavy to preclude hand use.'
p701
(dp702
S'heavy'
p703
S'+1'
p704
sS'stable'
p705
S'+1][u'
p706
ssS'I noticed that the micro adjustment knob and collet are well made and work well too.'
p707
(dp708
S'adjustment'
p709
S'+1'
p710
sS'collet'
p711
S'+1'
p712
ssS"I couldn't believe what I had been missing."
p713
(dp714
S'router'
p715
S'+3][u'
p716
ssS"For the hobbiest, it's probably a nice buy."
p717
(dp718
S'router'
p719
S'+1][u][s'
p720
ssS'That said, I am disappointed in the plunging mechanism.'
p721
(dp722
S'plunging'
p723
S'-1'
p724
ssS'I use it primarily in a router table and have been making my own moldings and trim.'
p725
NsS'I have purchased & used 2 of these routers in the past 3 years.'
p726
NsS'First, I must say that I am a professional woodworker, so, this router was used every day.'
p727
NsS'I have only used it with the 1/4" collet and a 1/2" round over bit, but I love how it starts up with little torque and runs very quietly.'
p728
(dp729
S'starts'
p730
S'+2'
p731
sS'runs'
p732
S'+2'
p733
ssS'This is truly a Clydesdale among the industry 3HP+ router workhorses.'
p734
(dp735
S'router'
p736
S'+1][u'
p737
ssS'Cuts are easy and smooth.'
p738
(dp739
S'Cuts'
p740
S'+1'
p741
ssS'All in all, not very good.'
p742
(dp743
S'router'
p744
S'-1][u'
p745
ssS'I have noted that as you use the tool, sawdust builds in the channel and it requires attention.'
p746
(dp747
S'sawdust'
p748
S'-1'
p749
ssS'I would however highly recommend the m12v router !'
p750
(dp751
S'router'
p752
S'+2'
p753
ssS'Saw the Hitachi on Amazon.com with their $25.00 coupon (at the time) and could not resist trying it out.'
p754
(dp755
S'price'
p756
S'+2][u'
p757
ssS'LIKE other reviewers I can attest to the following:'
p758
NsS'The height adjustment works well- not perfect.'
p759
(dp760
S'adjustment'
p761
S'+1'
p762
ssS'The heavy motor and continuously variable speed control let this router churn through everything I threw at it.'
p763
(dp764
S'heavy'
p765
S'+1][u'
p766
sS'speed'
p767
S'+1'
p768
ssS"My son tried it and he too couldn't change the speed without an assist."
p769
(dp770
S'control'
p771
S'-1][u'
p772
ssS'But it is smooth, it is powerful, it is affordable & it has a proven track record.'
p773
(dp774
S'affordable'
p775
S'+1][u'
p776
sS'powerful'
p777
S'+1][u'
p778
sS'track record'
p779
S'+1'
p780
sS'smooth'
p781
S'+1][u'
p782
ssS'Finally, I gave up and I purchased a Router Razier.'
p783
(dp784
S'Router Razier'
p785
S'-1'
p786
ssS"I reciently purchased this when a 1 1/2hp plunge router (different name brand) couldn't hack it."
p787
NsS"Also, the fit and finish could be better although this doesn't detract from performance."
p788
(dp789
S'finish'
p790
S'-1'
p791
sS'fit'
p792
S'-1'
p793
ssS'The router has plenty  of power for any type of bit or wood I need to cut, and the speed control  knob is easy to get to.'
p794
(dp795
S'control'
p796
S'+1'
p797
sS'power'
p798
S'+2'
p799
ssS'Wish I could give it 4 1/2 stars.'
p800
(dp801
S'router'
p802
S'+3][u'
p803
ssS'Once a depth is locked, it will jump off a little while working.'
p804
(dp805
S'depth'
p806
S'-1'
p807
ssS'This was possible due to the variable speed settings for any sized bit.'
p808
(dp809
S'speed'
p810
S'+1'
p811
ssS'It is without even a slight doubt, my new favorite.'
p812
(dp813
S'router'
p814
S'+3][u'
p815
ssS'Also stuck a couple of o-rings in the collet like a previous reviewer suggested & have never had a stuck bit.'
p816
NsS'It was impossible to change the speed with just my fingers.'
p817
(dp818
S'control'
p819
S'-1][u'
p820
ssS'For the price, I am considering purchasing a spare just to have as a backup.'
p821
(dp822
S'price'
p823
S'+3'
p824
ssS'Other than this, I am very pleased with the router and would buy it again.'
p825
(dp826
S'router'
p827
S'+2'
p828
ssS'UNLIKE other reviewers, I like the tool because it is easy to operate outside of the router table.'
p829
(dp830
S'operate'
p831
S'+1'
p832
ssS'I prefer things that are simple.'
p833
(dp834
S'simple'
p835
S'+1][u'
p836
ssS'I tried it with the springs in and with them out and did not notice any difference.'
p837
NsS'I use routers solely for hand work and relegate all table usage (including panels) to my Grizzly shaper.'
p838
NsS'I have a tendency to do quite a bit of research before I drop money on a tool and everyone I talked to loved this router.'
p839
(dp840
S'router'
p841
S'+2'
p842
ssS"So for the money it costs for one of those top-of-the-line models I've got a good router & a nice table to put it in & I like that."
p843
(dp844
S'router'
p845
S'+1'
p846
sS'costs'
p847
S'+1][u'
p848
ssS'From the Internet, woodworking books, local stores and personal opinions the Hitachi M12V 3-1/4 HP router time and time again came up to be the router of choice or best for its price.'
p849
(dp850
S'price'
p851
S'+2'
p852
ssS'The only other problem with this router that I have encountered is the plunge action will start to stick, then it needs to be cleaned and lubricated.'
p853
(dp854
S'plunge'
p855
S'-1'
p856
ssS'I use custom side clamps set up for 1/4 and 1/2 inch bits in order to plough mortises easily (and with great accuracy).'
p857
NsS'I did like the heft of the machine.'
p858
(dp859
S'heft'
p860
S'+1'
p861
ssS'What an upgrade!!!'
p862
(dp863
S'router'
p864
S'+2][u'
p865
ssS'The M12V is really set up for right hand operation.'
p866
NsS'Hitachi includes a 1/2" straight cutting bit in the package, and I used this to cut out my table.'
p867
NsS'Even with that, I highly recommend this router - outstanding performer.'
p868
(dp869
S'router'
p870
S'+2'
p871
sS'performer'
p872
S'+2'
p873
ssS"I've got a buddy who's trying to offload his almost new $300 Speedmatic because he saw what this router can do."
p874
(dp875
S'router'
p876
S'+3'
p877
ssS'I use these routers under a table.'
p878
NsS"If the plunging action isn't that important, then this is a great router."
p879
(dp880
S'plunging'
p881
S'-1'
p882
sS'router'
p883
S'+2][s'
p884
ssS'I cut 30-50 raised panel doors a month using every specie of wood imaginable.'
p885
NsS'(I prefer 1/2 inch bits).'
p886
NsS'Those are the good points.'
p887
NsS'I don\'t have problems with the depth adjustment, the speed control, the collet ( I haven\'t tried the 1/4" sleeve yet) .'
p888
(dp889
S'control'
p890
S'+1'
p891
sS'adjustment'
p892
S'+1'
p893
sS'collet'
p894
S'+1'
p895
ssS'Otherwise, get a smaller single speed router, which will be much easier to use freehand and is all you need for smaller diameter bits.'
p896
(dp897
S'use'
p898
S'-1][s'
p899
ssS'The depth scale is a joke and I wouldn\'t use it for anything but a "ball park" measure.'
p900
NsS"I've owned this router for over 8 years and am somewhat satisfied with it."
p901
(dp902
S'router'
p903
S'+1'
p904
ssS'Overall this tool is very well worth the price and I have no regrets about my purchase.'
p905
(dp906
S'price'
p907
S'+2'
p908
ssS"I'm not overly fond of GREEN but when I used this Hitachi M12V it turns out that now I'm very fond of it."
p909
(dp910
S'Hitachi M12V'
p911
S'+2][u'
p912
ssS'But I wanted to do some raised panel work and needed more power and variable speed to run the large-diameter bits.'
p913
(dp914
S'speed'
p915
S'+1'
p916
sS'power'
p917
S'+1'
p918
ssS'Accessories included in the package are: - 1/2" shank, 1/2" diameter, 1" cutting length, 2 carbide flute straight bit - parallel guide - template guide - template adapter for 3rd-party guides - 1/4" chuck sleeve - cutting depth fine adjustment knob (which takes a "13 mm" wrench to install, but a crescent wrench works OK too)'
p919
NsS'2. Half-inch router bits provide more operating security and finish quality than do their 1/4 inch counterparts.'
p920
NsS'Not so nice things: - a bit too much weight and power for easy handheld use - spindle lock makes for awkward bit changing (outside of a table) - the 1/4" chuck sleeve requires MUCH tightening to keep bits from slipping'
p921
(dp922
S'spindle'
p923
S'-1'
p924
sS'power'
p925
S'-1'
p926
sS'weight'
p927
S'-1'
p928
sS'chuck'
p929
S'-2'
p930
ssS'Bottom line: Highly recommended, but best when used in a table.'
p931
NsS'I have owned this router for nearly five years.'
p932
NsS'I did have to cut off the ears  that hold the  template guide in place so I could get those big panel raising bits in it.'
p933
(dp934
S'guide'
p935
S'-1'
p936
ssS'I also put a bend in  the wrench so I can remove and install bits from the top of the table.'
p937
(dp938
S'wrench'
p939
S'-1'
p940
ssS'It will take 31/2 inchers now.'
p941
NsS"If one fails or simply doesn't perform I know I'll let it sit on the shelf so I either sell it or give it away."
p942
NsS'I bought this specifically for a router table I built, and it has performed flawlessly in that capacity.'
p943
NsS'If you think you are saving $40 getting the Hitachi, you are right, and you are also getting a router worth $40 less than a Makita.'
p944
(dp945
S'worth'
p946
S'-1][cc][s'
p947
ssS'After repeatly cleaning and recleaning, it still stuck after using it for a little while.'
p948
(dp949
S'shafts'
p950
S'-1][p'
p951
ssS'I now  have it as a permenant fixture  in my router table.'
p952
NsS"You just can't go wrong with this one!"
p953
(dp954
S'router'
p955
S'+2][u'
p956
ssS'Why do people spend all that money on accessories to "raise and lower " the router in a table??? A waste of money.'
p957
NsS'Lefties can switch the angle of the handles by loosening the screws, repositioning, then retightening.'
p958
NsS'Recenly the variable speed control went out.'
p959
(dp960
S'control'
p961
S'-1'
p962
ssS"For the price I don't think you can beat it."
p963
(dp964
S'price'
p965
S'+3'
p966
ssS'It is very easy to change bits without removing the router from the table and the shaft lock works great.'
p967
(dp968
S'shaft'
p969
S'+2'
p970
ssS'I bobbled a bit at the end of a couple of the cuts because the momentum of the charging M12V was a bit more than I was prepared for.'
p971
NsS'In the last 8 years since then I have done a ton of routing and have messed around with a bunch of different machines.'
p972
NsS'The first one lasted about 6 years of heavy use.'
p973
(dp974
S'router'
p975
S'+3][u'
p976
ssS'It is quiet and has plenty of power.'
p977
(dp978
S'quiet'
p979
S'+1][u'
p980
sS'power'
p981
S'+2'
p982
ssS'This router does GREAT in hand held jobs and Router Tables.'
p983
NsS'It is no more heavy than any other powerful router and not as bad as some Porter Cable models I tried.'
p984
(dp985
S'heavy'
p986
S'+1][u][cc'
p987
sS'router'
p988
S'+1][u][cc'
p989
ssS"The setup works awesome, as with any tool I look closely at the individual tool for it's merits, and not just the company as a whole."
p990
(dp991
S'setup'
p992
S'+2'
p993
ssS'I bypassed the speed control, which was easy to do, now it works again, but with no speed control.'
p994
NsS'The M12V has been great.'
p995
(dp996
S'M12V'
p997
S'+2][u'
p998
ssS'The handles make it very comfortable to use and I experience little vibration.'
p999
(dp1000
S'use'
p1001
S'+2'
p1002
sS' vibration'
p1003
S'+1'
p1004
ssS'The total price with delivery (free shipping ) was $135 !'
p1005
(dp1006
S'price'
p1007
S'+3'
p1008
ssS'Unfortunately, the Bosch fixed base has no flat edge to ride against a guide, and both bases have a sub-base that extends past the metal base to prevent using against any kind of guide.'
p1009
NsS'This router is 1 of 4 in my shop.'
p1010
NsS'The speed control is well designed and it works perfectly.'
p1011
(dp1012
S'speed'
p1013
S'+2'
p1014
ssS'I have a small fixed base, single speed router that I use freehand.'
p1015
NsS'I also removed the springs in the plunge  tubes to make it easier to raise.'
p1016
(dp1017
S'springs'
p1018
S'-1'
p1019
ssS'The depth adjustment was sloppy.'
p1020
(dp1021
S'adjustment'
p1022
S'-1'
p1023
ssS'For the person that uses the equipment every day, pay the extra and get a reliable & safer unit.'
p1024
(dp1025
S'equipment'
p1026
S'+1][u][s'
p1027
ssS'I mounted mine in a home brew table and used a router lift.'
p1028
NsS'No vibration!'
p1029
(dp1030
S'vibration'
p1031
S'+2'
p1032
ssS'Its well made and user friendly.'
p1033
(dp1034
S'router'
p1035
S'+1][u'
p1036
ssS"You'll love it!"
p1037
(dp1038
S'router'
p1039
S'+2][u'
p1040
ss.