(lp0
((lp1
S'I'
p2
aS'purchased'
p3
aS'this'
p4
aS'router'
p5
aS'at'
p6
aS'a'
p7
aS'woodworking'
p8
aS'show'
p9
aS'after'
p10
aS'watching'
p11
aS'the'
p12
aS'CMT'
p13
aS'people'
p14
aS'using'
p15
aS'it'
p16
aS'to'
p17
aS'demo'
p18
aS'their'
p19
aS'bits'
p20
aS'and'
p21
aS'was'
p22
aS'impressed'
p23
aS'how'
p24
aS'it'
p25
aS'performed.'
p26
aS'pos'
p27
tp28
a((lp29
S'Well,'
p30
aS'when'
p31
ag2
aS'got'
p32
aS'it'
p33
aS'home'
p34
aS'and'
p35
aS'mounted'
p36
aS'it'
p37
aS'in'
p38
aS'my'
p39
aS'router'
p40
aS'table,'
p41
aS'the'
p42
aS'shortcomings'
p43
aS'started'
p44
aS'showing'
p45
aS'up.'
p46
aS'neutral'
p47
tp48
a((lp49
S'The'
p50
aS'adjustment'
p51
aS'knob'
p52
aS'seemed'
p53
aS'ok,'
p54
aS'but'
p55
aS'when'
p56
aS'lowering'
p57
aS'the'
p58
aS'router,'
p59
ag2
aS'have'
p60
aS'to'
p61
aS'practically'
p62
aS'pull'
p63
aS'it'
p64
aS'down'
p65
aS'while'
p66
aS'turning'
p67
aS'the'
p68
aS'knob.'
p69
aS'neg'
p70
tp71
a((lp72
g2
aS'tried'
p73
aS'it'
p74
aS'with'
p75
aS'the'
p76
aS'springs'
p77
aS'in'
p78
aS'and'
p79
aS'with'
p80
aS'them'
p81
aS'out'
p82
aS'and'
p83
aS'did'
p84
aS'not'
p85
aS'notice'
p86
aS'any'
p87
aS'difference.'
p88
ag47
tp89
a((lp90
S'The'
p91
aS'collet'
p92
aS'for'
p93
aS'the'
p94
aS'1/4'
p95
aS'inch'
p96
aS'bits'
p97
aS'is'
p98
ag7
aS'pain'
p99
aS'to'
p100
aS'get'
p101
aS'in'
p102
aS'and'
p103
aS'even'
p104
aS'harder'
p105
aS'to'
p106
aS'get'
p107
aS'out.'
p108
ag70
tp109
a((lp110
S'Then'
p111
aS'the'
p112
aS'most'
p113
aS'disappointing'
p114
aS'was'
p115
aS'trying'
p116
aS'to'
p117
aS'use'
p118
aS'Viper'
p119
aS'raised'
p120
aS'panel'
p121
aS'bits'
p122
aS'that'
p123
aS'just'
p124
aS'barely'
p125
aS'fit,'
p126
aS'and'
p127
ag2
aS'mean'
p128
aS'just'
p129
aS'barely.'
p130
ag70
tp131
a((lp132
g2
aS'never'
p133
aS'could'
p134
aS'get'
p135
aS'the'
p136
aS'panel'
p137
aS'bit'
p138
aS'to'
p139
aS'fit'
p140
aS'right.'
p141
ag47
tp142
a((lp143
g2
aS'did'
p144
aS'my'
p145
aS'homework'
p146
aS'before'
p147
aS'buying'
p148
aS'my'
p149
aS'larger'
p150
aS'3+hp'
p151
aS'router'
p152
aS'for'
p153
aS'my'
p154
aS'router'
p155
aS'table.'
p156
ag47
tp157
a((lp158
S'From'
p159
aS'the'
p160
aS'Internet,'
p161
aS'woodworking'
p162
aS'books,'
p163
aS'local'
p164
aS'stores'
p165
aS'and'
p166
aS'personal'
p167
aS'opinions'
p168
aS'the'
p169
aS'Hitachi'
p170
aS'M12V'
p171
aS'3-1/4'
p172
aS'HP'
p173
aS'router'
p174
aS'time'
p175
aS'and'
p176
aS'time'
p177
aS'again'
p178
aS'came'
p179
aS'up'
p180
aS'to'
p181
aS'be'
p182
aS'the'
p183
aS'router'
p184
aS'of'
p185
aS'choice'
p186
aS'or'
p187
aS'best'
p188
aS'for'
p189
aS'its'
p190
aS'price.'
p191
ag27
tp192
a((lp193
g2
aS'have'
p194
ag7
aS'mid-size'
p195
aS'plunge'
p196
aS'router'
p197
aS'already,'
p198
aS'(the'
p199
aS'DeWalt'
p200
aS'621-a'
p201
aS'fantastic'
p202
aS'router,'
p203
aS'read'
p204
aS'the'
p205
aS'MANY'
p206
aS'reviews)'
p207
aS'and'
p208
aS'needed'
p209
ag7
aS'heavy'
p210
aS'duty'
p211
aS'machine'
p212
aS'for'
p213
aS'my'
p214
aS'table.'
p215
ag47
tp216
a((lp217
g2
aS'have'
p218
ag7
aS'small'
p219
aS'fixed'
p220
aS'base,'
p221
aS'single'
p222
aS'speed'
p223
aS'router'
p224
aS'that'
p225
ag2
aS'use'
p226
aS'freehand.'
p227
ag47
tp228
a((lp229
S'But'
p230
ag2
aS'wanted'
p231
aS'to'
p232
aS'do'
p233
aS'some'
p234
aS'raised'
p235
aS'panel'
p236
aS'work'
p237
aS'and'
p238
aS'needed'
p239
aS'more'
p240
aS'power'
p241
aS'and'
p242
aS'variable'
p243
aS'speed'
p244
aS'to'
p245
aS'run'
p246
aS'the'
p247
aS'large-diameter'
p248
aS'bits.'
p249
ag27
tp250
a((lp251
S'At'
p252
aS'first,'
p253
ag2
aS'kicked'
p254
aS'myself'
p255
aS'for'
p256
aS'not'
p257
aS'buying'
p258
aS'one'
p259
aS'in'
p260
aS'the'
p261
aS'first'
p262
aS'place'
p263
aS'instead'
p264
aS'of'
p265
aS'my'
p266
aS'smaller'
p267
aS'router,'
p268
aS'but'
p269
aS'in'
p270
aS'retrospect'
p271
ag2
aS'think'
p272
aS'this'
p273
aS'is'
p274
aS'the'
p275
aS'best'
p276
aS'compromise.'
p277
ag47
tp278
a((lp279
S'The'
p280
aS'Hitachi'
p281
aS'has'
p282
aS'plenty'
p283
aS'of'
p284
aS'power,'
p285
aS'runs'
p286
aS'smooth,'
p287
aS'and'
p288
aS'cuts'
p289
aS'effortlessly'
p290
aS'through'
p291
aS'maple'
p292
aS'(with'
p293
aS'Freud'
p294
aS'bits!)'
p295
ag27
tp296
a((lp297
S'However,'
p298
aS'it'
p299
aS'is'
p300
aS'much'
p301
aS'bigger,'
p302
aS'bulkier,'
p303
aS'and'
p304
aS'heavier'
p305
aS'than'
p306
aS'my'
p307
aS'other'
p308
aS'router'
p309
aS'and'
p310
ag2
aS'would'
p311
aS'not'
p312
aS'like'
p313
aS'to'
p314
aS'use'
p315
aS'it'
p316
aS'freehand'
p317
aS'(I'
p318
aS'keep'
p319
aS'it'
p320
aS'mounted'
p321
aS'in'
p322
ag7
aS'table).'
p323
ag70
tp324
a((lp325
S'Since'
p326
ag2
aS'use'
p327
aS'it'
p328
aS'in'
p329
ag7
aS'table,'
p330
ag2
aS"don't"
p331
aS'use'
p332
aS'the'
p333
aS'plunge'
p334
aS'feature,'
p335
aS'but'
p336
aS'if'
p337
ag2
aS'ever'
p338
aS'need'
p339
aS'it'
p340
aS"I've"
p341
aS'got'
p342
aS'it.'
p343
ag27
tp344
a((lp345
S'The'
p346
aS'Hitachi'
p347
aS'is'
p348
ag7
aS'great'
p349
aS'router'
p350
aS'for'
p351
ag7
aS'great'
p352
aS'price,'
p353
aS'but'
p354
aS'only'
p355
aS'get'
p356
aS'it'
p357
aS'if'
p358
aS'you'
p359
aS'need'
p360
aS'the'
p361
aS'maximum'
p362
aS'power,'
p363
aS'variable'
p364
aS'speed'
p365
aS'and'
p366
aS'use'
p367
aS'it'
p368
aS'in'
p369
ag7
aS'table.'
p370
ag47
tp371
a((lp372
S'Otherwise,'
p373
aS'get'
p374
ag7
aS'smaller'
p375
aS'single'
p376
aS'speed'
p377
aS'router,'
p378
aS'which'
p379
aS'will'
p380
aS'be'
p381
aS'much'
p382
aS'easier'
p383
aS'to'
p384
aS'use'
p385
aS'freehand'
p386
aS'and'
p387
aS'is'
p388
aS'all'
p389
aS'you'
p390
aS'need'
p391
aS'for'
p392
aS'smaller'
p393
aS'diameter'
p394
aS'bits.'
p395
ag70
tp396
a((lp397
g2
aS'looked'
p398
aS'at'
p399
aS'this'
p400
aS'router'
p401
aS'and'
p402
aS'bought'
p403
ag7
aS'Makita.'
p404
ag47
tp405
a((lp406
S'The'
p407
aS'Hitachi'
p408
aS'is'
p409
aS'made'
p410
aS'in'
p411
aS'Malasyia,'
p412
aS'and'
p413
aS'looked'
p414
aS'cheap'
p415
aS'compared'
p416
aS'with'
p417
aS'the'
p418
aS'Makita,'
p419
aS'which'
p420
aS'is'
p421
aS'made'
p422
aS'in'
p423
aS'the'
p424
aS'USA.'
p425
ag27
tp426
a((lp427
g2
aS'have'
p428
aS'hade'
p429
aS'such'
p430
aS'poor'
p431
aS'luck'
p432
aS'with'
p433
aS'other'
p434
aS'tools'
p435
aS'(a'
p436
aS'Bosch'
p437
aS'drill)'
p438
aS'made'
p439
aS'in'
p440
aS'Malasyia,'
p441
aS'that'
p442
ag2
aS'could'
p443
aS'not'
p444
aS'see'
p445
aS'getting'
p446
aS'it.'
p447
ag47
tp448
a((lp449
S'If'
p450
aS'you'
p451
aS'think'
p452
aS'you'
p453
aS'are'
p454
aS'saving'
p455
aS'$40'
p456
aS'getting'
p457
aS'the'
p458
aS'Hitachi,'
p459
aS'you'
p460
aS'are'
p461
aS'right,'
p462
aS'and'
p463
aS'you'
p464
aS'are'
p465
aS'also'
p466
aS'getting'
p467
ag7
aS'router'
p468
aS'worth'
p469
aS'$40'
p470
aS'less'
p471
aS'than'
p472
ag7
aS'Makita.'
p473
ag70
tp474
a((lp475
S'It'
p476
aS"ain't"
p477
aS'cutting'
p478
aS'edge'
p479
aS'(no'
p480
aS'pun'
p481
aS'intended)'
p482
aS'state'
p483
aS'of'
p484
aS'the'
p485
aS'art'
p486
aS'with'
p487
aS'all'
p488
aS'the'
p489
aS'latest'
p490
aS'bells'
p491
aS'&'
p492
aS'whistles'
p493
ag492
aS'it'
p494
aS'definitely'
p495
aS"ain't"
p496
aS'pretty.'
p497
ag70
tp498
a((lp499
S'But'
p500
aS'it'
p501
aS'is'
p502
aS'smooth,'
p503
aS'it'
p504
aS'is'
p505
aS'powerful,'
p506
aS'it'
p507
aS'is'
p508
aS'affordable'
p509
ag492
aS'it'
p510
aS'has'
p511
ag7
aS'proven'
p512
aS'track'
p513
aS'record.'
p514
ag27
tp515
a((lp516
g2
aS'built'
p517
aS'my'
p518
aS'own'
p519
aS'router'
p520
aS'table'
p521
aS'with'
p522
ag7
aS'tilt'
p523
aS'up'
p524
aS'top'
p525
ag492
aS'made'
p526
ag7
aS'hand'
p527
aS'crank'
p528
aS'to'
p529
aS'replace'
p530
aS'the'
p531
aS'height'
p532
aS'adjustment'
p533
aS'knob'
p534
ag492
aS'these'
p535
aS'two'
p536
aS'things'
p537
aS'make'
p538
aS'it'
p539
aS'easy'
p540
aS'to'
p541
aS'change'
p542
aS'out'
p543
ag492
aS'raise'
p544
aS'or'
p545
aS'lower'
p546
aS'the'
p547
aS'bits.'
p548
ag70
tp549
a((lp550
S'Also'
p551
aS'stuck'
p552
ag7
aS'couple'
p553
aS'of'
p554
aS'o-rings'
p555
aS'in'
p556
aS'the'
p557
aS'collet'
p558
aS'like'
p559
ag7
aS'previous'
p560
aS'reviewer'
p561
aS'suggested'
p562
ag492
aS'have'
p563
aS'never'
p564
aS'had'
p565
ag7
aS'stuck'
p566
aS'bit.'
p567
ag47
tp568
a((lp569
S'Have'
p570
aS'to'
p571
aS'clean,'
p572
aS'buff'
p573
ag492
aS'lube'
p574
aS'the'
p575
aS'plunge'
p576
aS'rods'
p577
aS'once'
p578
aS'in'
p579
ag7
aS'while'
p580
aS'but'
p581
ag2
aS'see'
p582
aS'that'
p583
aS'as'
p584
ag7
aS'non'
p585
aS'issue'
p586
aS'because'
p587
aS'any'
p588
aS'router'
p589
aS'should'
p590
aS'be'
p591
aS'periodically'
p592
aS'cleaned'
p593
aS'anyway.'
p594
ag47
tp595
a((lp596
S'So'
p597
aS'for'
p598
aS'the'
p599
aS'money'
p600
aS'it'
p601
aS'costs'
p602
aS'for'
p603
aS'one'
p604
aS'of'
p605
aS'those'
p606
aS'top-of-the-line'
p607
aS'models'
p608
aS"I've"
p609
aS'got'
p610
ag7
aS'good'
p611
aS'router'
p612
ag492
ag7
aS'nice'
p613
aS'table'
p614
aS'to'
p615
aS'put'
p616
aS'it'
p617
aS'in'
p618
ag492
ag2
aS'like'
p619
aS'that.'
p620
ag27
tp621
a((lp622
S'Happy'
p623
aS'woodworking!!'
p624
ag47
tp625
a((lp626
S"Hitachi's"
p627
aS'M12V'
p628
aS'is'
p629
ag7
aS'big'
p630
aS'beast'
p631
aS'of'
p632
ag7
aS'router.'
p633
ag27
tp634
a((lp635
S"It's"
p636
aS'not'
p637
aS'the'
p638
aS'heaviest'
p639
aS'around'
p640
aS'(I'
p641
aS'think'
p642
aS'Porter-Cable'
p643
aS'has'
p644
aS'that'
p645
aS'distinction),'
p646
aS'but'
p647
ag2
aS'found'
p648
aS'its'
p649
aS'combination'
p650
aS'of'
p651
aS'weight'
p652
aS'and'
p653
aS'power'
p654
aS'really'
p655
aS'too'
p656
aS'much'
p657
aS'to'
p658
aS'allow'
p659
aS'precise'
p660
aS'handheld'
p661
aS'operation.'
p662
ag70
tp663
a((lp664
S'Luckily,'
p665
aS'the'
p666
aS'only'
p667
aS'significant'
p668
aS'handheld'
p669
aS'use'
p670
ag2
aS'had'
p671
aS'to'
p672
aS'put'
p673
aS'it'
p674
aS'to'
p675
aS'was'
p676
aS'to'
p677
aS'plunge'
p678
aS'cut'
p679
aS'the'
p680
aS'melamine'
p681
aS'board'
p682
aS'that'
p683
ag2
aS'dropped'
p684
aS'my'
p685
aS'Woodpeckers'
p686
aS'PlungeLIFT'
p687
aS'table'
p688
aS'insert'
p689
aS'into.'
p690
ag47
tp691
a((lp692
S'Hitachi'
p693
aS'includes'
p694
ag7
aS'1/2"'
p695
aS'straight'
p696
aS'cutting'
p697
aS'bit'
p698
aS'in'
p699
aS'the'
p700
aS'package,'
p701
aS'and'
p702
ag2
aS'used'
p703
aS'this'
p704
aS'to'
p705
aS'cut'
p706
aS'out'
p707
aS'my'
p708
aS'table.'
p709
ag47
tp710
a((lp711
g2
aS'bobbled'
p712
ag7
aS'bit'
p713
aS'at'
p714
aS'the'
p715
aS'end'
p716
aS'of'
p717
ag7
aS'couple'
p718
aS'of'
p719
aS'the'
p720
aS'cuts'
p721
aS'because'
p722
aS'the'
p723
aS'momentum'
p724
aS'of'
p725
aS'the'
p726
aS'charging'
p727
aS'M12V'
p728
aS'was'
p729
ag7
aS'bit'
p730
aS'more'
p731
aS'than'
p732
ag2
aS'was'
p733
aS'prepared'
p734
aS'for.'
p735
ag47
tp736
a((lp737
S'And'
p738
aS'changing'
p739
aS'bits'
p740
aS'requires'
p741
aS'one'
p742
aS'hand'
p743
aS'on'
p744
aS'the'
p745
aS'wrench,'
p746
aS'one'
p747
aS'hand'
p748
aS'on'
p749
aS'the'
p750
aS'spindle'
p751
aS'lock,'
p752
aS'and'
p753
aS'two'
p754
aS'knees'
p755
aS'to'
p756
aS'hold'
p757
aS'the'
p758
aS'router'
p759
aS'--'
p760
aS'another'
p761
aS'reason'
p762
aS'why'
p763
aS'the'
p764
aS'M12V'
p765
aS'is'
p766
aS'best'
p767
aS'used'
p768
aS'in'
p769
ag7
aS'table.'
p770
ag47
tp771
a((lp772
S'In'
p773
aS'my'
p774
aS'table'
p775
aS'the'
p776
aS'M12V'
p777
aS'has'
p778
aS'been'
p779
ag7
aS'real'
p780
aS'champ.'
p781
ag27
tp782
a((lp783
S"I've"
p784
aS'cut'
p785
aS'dadoes,'
p786
aS'flush'
p787
aS'trim'
p788
aS'to'
p789
aS'duplicate'
p790
ag7
aS'complex'
p791
aS'form,'
p792
aS'and'
p793
aS'done'
p794
aS'roundovers'
p795
aS'and'
p796
aS'Roman'
p797
aS'ogees.'
p798
ag47
tp799
a((lp800
S'The'
p801
aS'heavy'
p802
aS'motor'
p803
aS'and'
p804
aS'continuously'
p805
aS'variable'
p806
aS'speed'
p807
aS'control'
p808
aS'let'
p809
aS'this'
p810
aS'router'
p811
aS'churn'
p812
aS'through'
p813
aS'everything'
p814
ag2
aS'threw'
p815
aS'at'
p816
aS'it.'
p817
ag27
tp818
a((lp819
S'With'
p820
aS'the'
p821
aS'PlungeLIFT'
p822
aS'all'
p823
aS'my'
p824
aS'bit'
p825
aS'changing'
p826
aS'has'
p827
aS'been'
p828
aS'done'
p829
aS'above'
p830
aS'the'
p831
aS'table,'
p832
aS'although'
p833
ag2
aS'still'
p834
aS'have'
p835
aS'to'
p836
aS'reach'
p837
aS'below'
p838
aS'the'
p839
aS'table'
p840
aS'to'
p841
aS'operate'
p842
aS'the'
p843
aS'spindle'
p844
aS'lock'
p845
aS'(and,'
p846
aS'of'
p847
aS'course,'
p848
aS'the'
p849
aS'speed'
p850
aS'and'
p851
aS'ON/OFF'
p852
aS'controls).'
p853
ag70
tp854
a((lp855
S'Accessories'
p856
aS'included'
p857
aS'in'
p858
aS'the'
p859
aS'package'
p860
aS'are:'
p861
aS'-'
p862
aS'1/2"'
p863
aS'shank,'
p864
aS'1/2"'
p865
aS'diameter,'
p866
aS'1"'
p867
aS'cutting'
p868
aS'length,'
p869
aS'2'
p870
aS'carbide'
p871
aS'flute'
p872
aS'straight'
p873
aS'bit'
p874
ag862
aS'parallel'
p875
aS'guide'
p876
ag862
aS'template'
p877
aS'guide'
p878
ag862
aS'template'
p879
aS'adapter'
p880
aS'for'
p881
aS'3rd-party'
p882
aS'guides'
p883
ag862
aS'1/4"'
p884
aS'chuck'
p885
aS'sleeve'
p886
ag862
aS'cutting'
p887
aS'depth'
p888
aS'fine'
p889
aS'adjustment'
p890
aS'knob'
p891
aS'(which'
p892
aS'takes'
p893
ag7
aS'"13'
p894
aS'mm"'
p895
aS'wrench'
p896
aS'to'
p897
aS'install,'
p898
aS'but'
p899
ag7
aS'crescent'
p900
aS'wrench'
p901
aS'works'
p902
aS'OK'
p903
aS'too)'
p904
ag47
tp905
a((lp906
S'Not'
p907
aS'included'
p908
aS'are:'
p909
ag862
aS'3/8"'
p910
aS'chuck'
p911
aS'sleeve'
p912
aS'(the'
p913
aS'least'
p914
aS'common'
p915
aS'bit'
p916
aS'size)'
p917
ag862
aS'depth'
p918
aS'scale'
p919
aS'in'
p920
aS'mm'
p921
aS'(the'
p922
aS'included'
p923
aS'one'
p924
aS'is'
p925
aS'in'
p926
aS'inches)'
p927
ag862
aS'dust'
p928
aS'collector'
p929
aS'set'
p930
ag862
aS'trimmer'
p931
aS'guide'
p932
aS'for'
p933
aS'chamfering'
p934
ag47
tp935
a((lp936
S'The'
p937
aS'M12V'
p938
aS'is'
p939
aS'really'
p940
aS'set'
p941
aS'up'
p942
aS'for'
p943
aS'right'
p944
aS'hand'
p945
aS'operation.'
p946
ag47
tp947
a((lp948
S'Lefties'
p949
aS'can'
p950
aS'switch'
p951
aS'the'
p952
aS'angle'
p953
aS'of'
p954
aS'the'
p955
aS'handles'
p956
aS'by'
p957
aS'loosening'
p958
aS'the'
p959
aS'screws,'
p960
aS'repositioning,'
p961
aS'then'
p962
aS'retightening.'
p963
ag47
tp964
a((lp965
S'This'
p966
aS'will'
p967
aS'allow'
p968
aS'operation'
p969
aS'of'
p970
aS'the'
p971
aS'power'
p972
aS'switch'
p973
aS'with'
p974
aS'the'
p975
aS'left'
p976
aS'index'
p977
aS'finger'
p978
aS'and'
p979
aS'the'
p980
aS'plunge'
p981
aS'lock'
p982
aS'with'
p983
aS'the'
p984
aS'left'
p985
aS'thumb'
p986
aS'(instead'
p987
aS'of'
p988
aS'the'
p989
aS'standard'
p990
aS'right'
p991
aS'thumb'
p992
aS'and'
p993
aS'right'
p994
aS'index'
p995
aS'finger,'
p996
aS'respectively),'
p997
aS'but'
p998
aS'then'
p999
aS'the'
p1000
aS'depth'
p1001
aS'scale'
p1002
aS'is'
p1003
aS'on'
p1004
aS'the'
p1005
aS'back'
p1006
aS'face'
p1007
aS'of'
p1008
aS'the'
p1009
aS'router,'
p1010
aS'as'
p1011
aS'is'
p1012
aS'the'
p1013
aS'straight'
p1014
aS'edge'
p1015
aS'of'
p1016
aS'the'
p1017
aS'base'
p1018
aS'plate.'
p1019
ag47
tp1020
a((lp1021
S'Nice'
p1022
aS'things'
p1023
aS'about'
p1024
aS'the'
p1025
aS'M12V:'
p1026
ag862
aS'in'
p1027
ag7
aS'table,'
p1028
aS'the'
p1029
aS'powerful'
p1030
aS'3'
p1031
aS'1/4'
p1032
aS'HP'
p1033
aS'motor'
p1034
aS'is'
p1035
aS'great'
p1036
ag862
aS'soft'
p1037
aS'start'
p1038
aS'helps'
p1039
ag7
aS'lot'
p1040
aS'to'
p1041
aS'control'
p1042
aS'the'
p1043
aS'beast'
p1044
aS'when'
p1045
aS'you'
p1046
aS'turn'
p1047
aS'the'
p1048
aS'router'
p1049
aS'on'
p1050
ag862
aS'continuously'
p1051
aS'variable'
p1052
aS'speed'
p1053
aS'control'
p1054
ag862
aS"Amazon's"
p1055
aS'price'
p1056
ag27
tp1057
a((lp1058
S'Not'
p1059
aS'so'
p1060
aS'nice'
p1061
aS'things:'
p1062
ag862
ag7
aS'bit'
p1063
aS'too'
p1064
aS'much'
p1065
aS'weight'
p1066
aS'and'
p1067
aS'power'
p1068
aS'for'
p1069
aS'easy'
p1070
aS'handheld'
p1071
aS'use'
p1072
ag862
aS'spindle'
p1073
aS'lock'
p1074
aS'makes'
p1075
aS'for'
p1076
aS'awkward'
p1077
aS'bit'
p1078
aS'changing'
p1079
aS'(outside'
p1080
aS'of'
p1081
ag7
aS'table)'
p1082
ag862
aS'the'
p1083
aS'1/4"'
p1084
aS'chuck'
p1085
aS'sleeve'
p1086
aS'requires'
p1087
aS'MUCH'
p1088
aS'tightening'
p1089
aS'to'
p1090
aS'keep'
p1091
aS'bits'
p1092
aS'from'
p1093
aS'slipping'
p1094
ag70
tp1095
a((lp1096
S'Bottom'
p1097
aS'line:'
p1098
aS'Highly'
p1099
aS'recommended,'
p1100
aS'but'
p1101
aS'best'
p1102
aS'when'
p1103
aS'used'
p1104
aS'in'
p1105
ag7
aS'table.'
p1106
ag47
tp1107
a((lp1108
S'This'
p1109
aS'is'
p1110
aS'truly'
p1111
ag7
aS'Clydesdale'
p1112
aS'among'
p1113
aS'the'
p1114
aS'industry'
p1115
aS'3HP+'
p1116
aS'router'
p1117
aS'workhorses.'
p1118
ag27
tp1119
a((lp1120
S'Built'
p1121
aS'like'
p1122
ag7
aS'tank,'
p1123
aS'yet'
p1124
aS'nimble'
p1125
aS'enough'
p1126
aS'to'
p1127
aS'be'
p1128
aS'comfortably'
p1129
aS'used'
p1130
aS'with'
p1131
aS'the'
p1132
aS'Leigh'
p1133
aS'dovetail'
p1134
aS'jig.'
p1135
ag27
tp1136
a((lp1137
S'The'
p1138
aS'soft'
p1139
aS'start'
p1140
aS'is'
p1141
ag7
aS'tremendous'
p1142
aS'help'
p1143
aS'for'
p1144
aS'this'
p1145
aS'type'
p1146
aS'of'
p1147
aS'operation.'
p1148
ag27
tp1149
a((lp1150
S'It'
p1151
aS'is'
p1152
ag7
aS'heavy'
p1153
aS'but'
p1154
aS'well-balanced'
p1155
aS'machine,'
p1156
aS'which'
p1157
aS'is'
p1158
aS'an'
p1159
aS'asset'
p1160
aS'when'
p1161
aS'maximum'
p1162
aS'stability'
p1163
aS'is'
p1164
aS'desired.'
p1165
ag47
tp1166
a((lp1167
S'The'
p1168
aS'edge'
p1169
aS'guide'
p1170
aS'is'
p1171
aS'top'
p1172
aS'quality,'
p1173
aS'easy'
p1174
aS'to'
p1175
aS'install'
p1176
aS'and'
p1177
aS'accurate.'
p1178
ag27
tp1179
a((lp1180
g2
aS'used'
p1181
aS'this'
p1182
aS'router'
p1183
aS'to'
p1184
aS'plow'
p1185
aS'out'
p1186
aS'3"'
p1187
aS'raised'
p1188
aS'panels'
p1189
aS'in'
p1190
aS'oak'
p1191
aS'without'
p1192
aS'phasing'
p1193
aS'the'
p1194
aS'beast.'
p1195
ag47
tp1196
a((lp1197
S'This'
p1198
aS'was'
p1199
aS'possible'
p1200
aS'due'
p1201
aS'to'
p1202
aS'the'
p1203
aS'variable'
p1204
aS'speed'
p1205
aS'settings'
p1206
aS'for'
p1207
aS'any'
p1208
aS'sized'
p1209
aS'bit.'
p1210
ag27
tp1211
a((lp1212
S'The'
p1213
aS'router'
p1214
aS'is'
p1215
aS'also'
p1216
aS'equipped'
p1217
aS'with'
p1218
aS'an'
p1219
aS'adapter'
p1220
aS'that'
p1221
aS'accepts'
p1222
aS'PC'
p1223
aS'guide'
p1224
aS'bushings.'
p1225
ag47
tp1226
a((lp1227
S'The'
p1228
aS'height'
p1229
aS'adjustment'
p1230
aS'knob'
p1231
aS'is'
p1232
ag7
aS'bit'
p1233
aS'flimsy,'
p1234
aS'but'
p1235
aS'it'
p1236
aS'works'
p1237
aS'well'
p1238
aS'and'
p1239
aS'provides'
p1240
aS'good'
p1241
aS'accuracy.'
p1242
ag27
tp1243
a((lp1244
S'The'
p1245
aS'only'
p1246
aS'complaint'
p1247
ag2
aS'have'
p1248
aS'is'
p1249
aS'that'
p1250
aS'the'
p1251
aS'1/4"'
p1252
aS'collet'
p1253
aS'will'
p1254
aS'not'
p1255
aS'sufficiently'
p1256
aS'hold'
p1257
aS'any'
p1258
aS'of'
p1259
aS'my'
p1260
aS'1/4"'
p1261
aS'bits.'
p1262
ag70
tp1263
a((lp1264
g2
aS'purchased'
p1265
aS'an'
p1266
aS'aftermarket'
p1267
aS'slotted'
p1268
aS'collet'
p1269
aS'that'
p1270
aS'does'
p1271
aS'the'
p1272
aS'job.'
p1273
ag47
tp1274
a((lp1275
S'The'
p1276
aS'Hitachi'
p1277
aS'collet'
p1278
aS'simply'
p1279
aS'was'
p1280
aS'not'
p1281
aS'ground'
p1282
aS'accurately.'
p1283
ag70
tp1284
a((lp1285
S'However,'
p1286
aS'now'
p1287
aS'that'
p1288
aS'the'
p1289
aS'kit'
p1290
aS'comes'
p1291
aS'with'
p1292
aS'the'
p1293
aS'height'
p1294
aS'adjustment'
p1295
aS'knob,'
p1296
aS"I'd"
p1297
aS'say'
p1298
aS'jump'
p1299
aS'all'
p1300
aS'over'
p1301
aS'it.'
p1302
ag47
tp1303
a((lp1304
S'This'
p1305
aS'is'
p1306
ag7
aS'great'
p1307
aS'deal,'
p1308
aS'and'
p1309
aS"I'm"
p1310
aS'elated'
p1311
aS'with'
p1312
aS'my'
p1313
aS'decision'
p1314
aS'to'
p1315
aS'go'
p1316
aS'with'
p1317
aS"Hitachi's"
p1318
aS'green'
p1319
aS'machine.'
p1320
ag27
tp1321
a((lp1322
S'Wish'
p1323
ag2
aS'could'
p1324
aS'give'
p1325
aS'it'
p1326
aS'4'
p1327
aS'1/2'
p1328
aS'stars.'
p1329
ag27
tp1330
a((lp1331
g2
aS'bought'
p1332
aS'this'
p1333
aS'router'
p1334
ag7
aS'couple'
p1335
aS'of'
p1336
aS'months'
p1337
aS'ago'
p1338
aS'from'
p1339
aS'Amazon'
p1340
aS'and'
p1341
aS'have'
p1342
aS'used'
p1343
aS'it'
p1344
ag7
aS'fair'
p1345
aS'amount'
p1346
aS'in'
p1347
aS'that'
p1348
aS'time.'
p1349
ag47
tp1350
a((lp1351
S'The'
p1352
aS'deal'
p1353
aS'Amazon'
p1354
aS'has'
p1355
aS'going'
p1356
aS"can't"
p1357
aS'be'
p1358
aS'beat'
p1359
aS'and'
p1360
aS'if'
p1361
aS"you're"
p1362
aS'considering'
p1363
aS'buying'
p1364
aS'this'
p1365
aS'machine,'
p1366
aS'do'
p1367
aS'so'
p1368
aS'from'
p1369
aS'this'
p1370
aS'site.'
p1371
ag47
tp1372
a((lp1373
g2
aS'noticed'
p1374
aS'that'
p1375
aS'the'
p1376
aS'micro'
p1377
aS'adjustment'
p1378
aS'knob'
p1379
aS'and'
p1380
aS'collet'
p1381
aS'are'
p1382
aS'well'
p1383
aS'made'
p1384
aS'and'
p1385
aS'work'
p1386
aS'well'
p1387
aS'too.'
p1388
ag27
tp1389
a((lp1390
S'The'
p1391
aS'speed'
p1392
aS'control'
p1393
aS'is'
p1394
aS'well'
p1395
aS'designed'
p1396
aS'and'
p1397
aS'it'
p1398
aS'works'
p1399
aS'perfectly.'
p1400
ag27
tp1401
a((lp1402
S'The'
p1403
aS'included'
p1404
aS'fence'
p1405
aS'guide'
p1406
aS'is'
p1407
aS'easy'
p1408
aS'to'
p1409
aS'set'
p1410
aS'up'
p1411
aS'and'
p1412
aS'quite'
p1413
aS'accurate'
p1414
aS'as'
p1415
aS'well.'
p1416
ag27
tp1417
a((lp1418
S'The'
p1419
aS'plunge'
p1420
aS'lock'
p1421
aS'and'
p1422
aS'power'
p1423
aS'switch'
p1424
aS'are'
p1425
aS'very'
p1426
aS'easily'
p1427
aS'accessible'
p1428
aS'which'
p1429
aS'is'
p1430
ag7
aS'must'
p1431
aS'when'
p1432
aS'doing'
p1433
aS'free'
p1434
aS'hand'
p1435
aS'routing.'
p1436
ag27
tp1437
a((lp1438
S'It'
p1439
aS'is'
p1440
aS'heavy'
p1441
aS'enough'
p1442
aS'to'
p1443
aS'make'
p1444
aS'it'
p1445
aS'stable,'
p1446
aS'but'
p1447
aS'not'
p1448
aS'too'
p1449
aS'heavy'
p1450
aS'to'
p1451
aS'preclude'
p1452
aS'hand'
p1453
aS'use.'
p1454
ag27
tp1455
a((lp1456
S'Those'
p1457
aS'are'
p1458
aS'the'
p1459
aS'good'
p1460
aS'points.'
p1461
ag47
tp1462
a((lp1463
S'There'
p1464
aS'are'
p1465
ag7
aS'few'
p1466
aS'points'
p1467
aS'of'
p1468
aS'contention'
p1469
aS'which'
p1470
ag2
aS'have.'
p1471
ag47
tp1472
a((lp1473
S'The'
p1474
aS'depth'
p1475
aS'scale'
p1476
aS'is'
p1477
ag7
aS'joke'
p1478
aS'and'
p1479
ag2
aS"wouldn't"
p1480
aS'use'
p1481
aS'it'
p1482
aS'for'
p1483
aS'anything'
p1484
aS'but'
p1485
ag7
aS'"ball'
p1486
aS'park"'
p1487
aS'measure.'
p1488
ag47
tp1489
a((lp1490
S'The'
p1491
aS'plunge'
p1492
aS'action'
p1493
aS"isn't"
p1494
aS'smooth'
p1495
aS'unless'
p1496
aS'you'
p1497
aS'make'
p1498
aS'it'
p1499
aS'so.'
p1500
ag70
tp1501
a((lp1502
S'This'
p1503
aS'entails'
p1504
aS'wiping'
p1505
aS'the'
p1506
aS'rods,'
p1507
aS'blowing'
p1508
aS'compressed'
p1509
aS'air'
p1510
aS'into'
p1511
aS'the'
p1512
aS'housings,'
p1513
aS'and'
p1514
aS'lightly'
p1515
aS'lubricating'
p1516
aS'the'
p1517
aS'rods'
p1518
aS'with'
p1519
aS'silicone'
p1520
aS'lubricant.'
p1521
ag47
tp1522
a((lp1523
S'The'
p1524
aS'instructions'
p1525
aS'would'
p1526
aS'benefit'
p1527
aS'from'
p1528
aS'some'
p1529
aS'improvement'
p1530
aS'and'
p1531
aS'it'
p1532
aS'would'
p1533
aS'help'
p1534
aS'if'
p1535
aS'the'
p1536
aS'RPMs'
p1537
aS'of'
p1538
aS'the'
p1539
aS'speed'
p1540
aS'settings'
p1541
aS'were'
p1542
aS'mentioned.'
p1543
ag70
tp1544
a((lp1545
S'Also,'
p1546
aS'the'
p1547
aS'fit'
p1548
aS'and'
p1549
aS'finish'
p1550
aS'could'
p1551
aS'be'
p1552
aS'better'
p1553
aS'although'
p1554
aS'this'
p1555
aS"doesn't"
p1556
aS'detract'
p1557
aS'from'
p1558
aS'performance.'
p1559
ag70
tp1560
a((lp1561
g2
aS'plan'
p1562
aS'to'
p1563
aS'get'
p1564
ag7
aS'Porter-Cable'
p1565
aS'for'
p1566
aS'table'
p1567
aS'mounted'
p1568
aS'use'
p1569
aS'but'
p1570
aS'will'
p1571
aS'be'
p1572
aS'using'
p1573
aS'this'
p1574
aS'machine'
p1575
aS'for'
p1576
aS'most'
p1577
aS'if'
p1578
aS'not'
p1579
aS'all'
p1580
aS'of'
p1581
aS'my'
p1582
aS'hand'
p1583
aS'held'
p1584
aS'use.'
p1585
ag47
tp1586
a((lp1587
S'Overall'
p1588
aS'this'
p1589
aS'tool'
p1590
aS'is'
p1591
aS'very'
p1592
aS'well'
p1593
aS'worth'
p1594
aS'the'
p1595
aS'price'
p1596
aS'and'
p1597
ag2
aS'have'
p1598
aS'no'
p1599
aS'regrets'
p1600
aS'about'
p1601
aS'my'
p1602
aS'purchase.'
p1603
ag27
tp1604
a((lp1605
S'This'
p1606
aS'is'
p1607
aS'an'
p1608
aS'excellent'
p1609
aS'router'
p1610
aS'for'
p1611
aS'the'
p1612
aS'money.'
p1613
ag27
tp1614
a((lp1615
g2
aS'use'
p1616
aS'it'
p1617
aS'primarily'
p1618
aS'in'
p1619
ag7
aS'router'
p1620
aS'table'
p1621
aS'and'
p1622
aS'have'
p1623
aS'been'
p1624
aS'making'
p1625
aS'my'
p1626
aS'own'
p1627
aS'moldings'
p1628
aS'and'
p1629
aS'trim.'
p1630
ag47
tp1631
a((lp1632
S'The'
p1633
aS'only'
p1634
aS'problem'
p1635
aS'i'
p1636
aS'find'
p1637
aS'with'
p1638
aS'it'
p1639
aS'is'
p1640
aS'that'
p1641
aS'the'
p1642
aS'plunge'
p1643
aS'mechanism'
p1644
aS'will'
p1645
aS'eventually'
p1646
aS'stick'
p1647
aS'due'
p1648
aS'to'
p1649
aS'wood'
p1650
aS'dust.'
p1651
ag70
tp1652
a((lp1653
g2
aS'find'
p1654
aS'that'
p1655
aS'if'
p1656
aS'you'
p1657
aS'remove'
p1658
aS'the'
p1659
aS'springs'
p1660
aS'it'
p1661
aS'is'
p1662
aS'much'
p1663
aS'easier'
p1664
aS'to'
p1665
aS'adjust'
p1666
aS'and'
p1667
aS'will'
p1668
aS'not'
p1669
aS'stick'
p1670
aS'much.'
p1671
ag70
tp1672
a((lp1673
S'Other'
p1674
aS'than'
p1675
aS'that,'
p1676
ag1636
aS'think'
p1677
aS'it'
p1678
aS'is'
p1679
aS'the'
p1680
aS'best'
p1681
aS'router'
p1682
aS'for'
p1683
aS'the'
p1684
aS'money.'
p1685
ag27
tp1686
a((lp1687
g2
aS'must'
p1688
aS'have'
p1689
aS'gotten'
p1690
ag7
aS'good'
p1691
aS'one.'
p1692
ag27
tp1693
a((lp1694
g2
aS"don't"
p1695
aS'have'
p1696
aS'problems'
p1697
aS'with'
p1698
aS'the'
p1699
aS'depth'
p1700
aS'adjustment,'
p1701
aS'the'
p1702
aS'speed'
p1703
aS'control,'
p1704
aS'the'
p1705
aS'collet'
p1706
aS'('
p1707
ag2
aS"haven't"
p1708
aS'tried'
p1709
aS'the'
p1710
aS'1/4"'
p1711
aS'sleeve'
p1712
aS'yet)'
p1713
aS'.'
p1714
ag27
tp1715
a((lp1716
S'Before'
p1717
aS'buying'
p1718
aS'this'
p1719
ag2
aS'read'
p1720
aS'others'
p1721
aS'reviews'
p1722
aS'and'
p1723
aS'of'
p1724
aS'the'
p1725
aS'complaints'
p1726
ag2
aS'read'
p1727
aS'about....well'
p1728
ag2
aS'have'
p1729
aS'not'
p1730
aS'experienced'
p1731
aS'any.'
p1732
ag47
tp1733
a((lp1734
g2
aS'have'
p1735
ag1031
aS'Bosch'
p1736
aS'routers,'
p1737
aS'1'
p1738
aS'Porter'
p1739
aS'Cable,'
p1740
aS'and'
p1741
aS'the'
p1742
aS'large'
p1743
aS'Freud.'
p1744
ag47
tp1745
a((lp1746
g2
aS'have'
p1747
aS'many'
p1748
aS'others'
p1749
aS'in'
p1750
aS'the'
p1751
aS'past.'
p1752
ag47
tp1753
a((lp1754
g2
aS'would'
p1755
aS'put'
p1756
aS'the'
p1757
aS'Hitachi'
p1758
aS'up'
p1759
aS'with'
p1760
aS'the'
p1761
aS'best!'
p1762
ag27
tp1763
a((lp1764
S'No'
p1765
aS'vibration!'
p1766
ag27
tp1767
a((lp1768
S'Smooth'
p1769
aS'plunging!'
p1770
ag1707
aS'it'
p1771
aS'did'
p1772
aS'stick'
p1773
ag7
aS'bit'
p1774
aS'so'
p1775
ag2
aS'sprayed'
p1776
aS'it'
p1777
aS'w/'
p1778
aS'lubricant.'
p1779
ag27
tp1780
a((lp1781
S'It'
p1782
aS'is'
p1783
ag7
aS'great'
p1784
aS'router'
p1785
aS'for'
p1786
ag7
aS'table'
p1787
aS'and'
p1788
aS'with'
p1789
aS'the'
p1790
aS'depth'
p1791
aS'adjustment'
p1792
aS'knob'
p1793
aS'it'
p1794
aS'is'
p1795
aS'easy'
p1796
aS'to'
p1797
aS'adjust'
p1798
aS'depth'
p1799
aS'prescisely.'
p1800
ag27
tp1801
a((lp1802
S'Why'
p1803
aS'do'
p1804
aS'people'
p1805
aS'spend'
p1806
aS'all'
p1807
aS'that'
p1808
aS'money'
p1809
aS'on'
p1810
aS'accessories'
p1811
aS'to'
p1812
aS'"raise'
p1813
aS'and'
p1814
aS'lower'
p1815
aS'"'
p1816
aS'the'
p1817
aS'router'
p1818
aS'in'
p1819
ag7
aS'table???'
p1820
aS'A'
p1821
aS'waste'
p1822
aS'of'
p1823
aS'money.'
p1824
ag47
tp1825
a((lp1826
S'It'
p1827
aS'is'
p1828
aS'very'
p1829
aS'easy'
p1830
aS'to'
p1831
aS'change'
p1832
aS'bits'
p1833
aS'without'
p1834
aS'removing'
p1835
aS'the'
p1836
aS'router'
p1837
aS'from'
p1838
aS'the'
p1839
aS'table'
p1840
aS'and'
p1841
aS'the'
p1842
aS'shaft'
p1843
aS'lock'
p1844
aS'works'
p1845
aS'great.'
p1846
ag27
tp1847
a((lp1848
S'Very'
p1849
aS'good'
p1850
aS'balance'
p1851
aS'in'
p1852
aS'the'
p1853
aS'hands'
p1854
aS'and'
p1855
aS'lighter'
p1856
aS'than'
p1857
aS'most'
p1858
ag1031
aS'1/4'
p1859
aS'hp'
p1860
aS'models.'
p1861
ag27
tp1862
a((lp1863
S'The'
p1864
aS'soft'
p1865
aS'start'
p1866
aS'is'
p1867
aS'nice.'
p1868
ag27
tp1869
a((lp1870
S'The'
p1871
aS'price'
p1872
aS'is'
p1873
aS'incredible'
p1874
aS'with'
p1875
aS'the'
p1876
aS'bonus'
p1877
aS'pack'
p1878
aS'and'
p1879
aS"Hitachi's"
p1880
aS'$25'
p1881
aS'incentive'
p1882
ag1707
aS'you'
p1883
aS'need'
p1884
aS'the'
p1885
aS'code'
p1886
aS'---go'
p1887
aS'to'
p1888
aS'Toolseeker.com'
p1889
aS'and'
p1890
aS'it'
p1891
aS'tells'
p1892
aS'you)'
p1893
ag27
tp1894
a((lp1895
S'The'
p1896
aS'total'
p1897
aS'price'
p1898
aS'with'
p1899
aS'delivery'
p1900
aS'(free'
p1901
aS'shipping'
p1902
aS')'
p1903
aS'was'
p1904
aS'$135'
p1905
aS'!'
p1906
ag27
tp1907
a((lp1908
S'Less'
p1909
aS'than'
p1910
ag7
aS'cheap'
p1911
aS'cordless'
p1912
aS'drill'
p1913
aS'or'
p1914
ag7
aS'laminate'
p1915
aS'trimmer.'
p1916
ag27
tp1917
a((lp1918
g2
aS"can't"
p1919
aS'complain'
p1920
aS'and'
p1921
aS"Amazons'"
p1922
aS'service'
p1923
aS'was'
p1924
aS'perfect!'
p1925
ag47
tp1926
a((lp1927
g2
aS'think'
p1928
aS"I'll"
p1929
aS'go'
p1930
aS'rout'
p1931
aS'something...'
p1932
ag47
tp1933
a((lp1934
S'Bought'
p1935
aS'an'
p1936
aS'expensive'
p1937
aS'Dewalt'
p1938
aS'router'
p1939
aS'some'
p1940
aS'three'
p1941
aS'years'
p1942
aS'ago'
p1943
aS'and'
p1944
aS'never'
p1945
aS'became'
p1946
aS'comfortable'
p1947
aS'with'
p1948
aS'it.'
p1949
ag47
tp1950
a((lp1951
g2
aS'use'
p1952
aS'routers'
p1953
aS'solely'
p1954
aS'for'
p1955
aS'hand'
p1956
aS'work'
p1957
aS'and'
p1958
aS'relegate'
p1959
aS'all'
p1960
aS'table'
p1961
aS'usage'
p1962
aS'(including'
p1963
aS'panels)'
p1964
aS'to'
p1965
aS'my'
p1966
aS'Grizzly'
p1967
aS'shaper.'
p1968
ag47
tp1969
a((lp1970
S'Gave'
p1971
aS'the'
p1972
aS'Dewalt'
p1973
aS'to'
p1974
ag7
aS'woodworking'
p1975
aS'friend'
p1976
aS'in'
p1977
aS'gratitude'
p1978
aS'for'
p1979
aS'his'
p1980
aS'help'
p1981
aS'in'
p1982
aS'moving'
p1983
aS'tools'
p1984
aS'to'
p1985
ag7
aS'new'
p1986
aS'shop.'
p1987
ag47
tp1988
a((lp1989
S'Saw'
p1990
aS'the'
p1991
aS'Hitachi'
p1992
aS'on'
p1993
aS'Amazon.com'
p1994
aS'with'
p1995
aS'their'
p1996
aS'$25.00'
p1997
aS'coupon'
p1998
aS'(at'
p1999
aS'the'
p2000
aS'time)'
p2001
aS'and'
p2002
aS'could'
p2003
aS'not'
p2004
aS'resist'
p2005
aS'trying'
p2006
aS'it'
p2007
aS'out.'
p2008
ag27
tp2009
a((lp2010
S'UNLIKE'
p2011
aS'other'
p2012
aS'reviewers,'
p2013
ag2
aS'like'
p2014
aS'the'
p2015
aS'tool'
p2016
aS'because'
p2017
aS'it'
p2018
aS'is'
p2019
aS'easy'
p2020
aS'to'
p2021
aS'operate'
p2022
aS'outside'
p2023
aS'of'
p2024
aS'the'
p2025
aS'router'
p2026
aS'table.'
p2027
ag27
tp2028
a((lp2029
S'Both'
p2030
aS'the'
p2031
aS'on/off'
p2032
aS'switch'
p2033
aS'(soft'
p2034
aS'start)'
p2035
aS'and'
p2036
aS'the'
p2037
aS'depth'
p2038
aS'lock'
p2039
aS'are'
p2040
aS'within'
p2041
aS'easy'
p2042
aS'reach'
p2043
aS'of'
p2044
aS'the'
p2045
aS'right'
p2046
aS'hand.'
p2047
ag27
tp2048
a((lp2049
S'It'
p2050
aS'is'
p2051
aS'no'
p2052
aS'more'
p2053
aS'heavy'
p2054
aS'than'
p2055
aS'any'
p2056
aS'other'
p2057
aS'powerful'
p2058
aS'router'
p2059
aS'and'
p2060
aS'not'
p2061
aS'as'
p2062
aS'bad'
p2063
aS'as'
p2064
aS'some'
p2065
aS'Porter'
p2066
aS'Cable'
p2067
aS'models'
p2068
ag2
aS'tried.'
p2069
ag27
tp2070
a((lp2071
g2
aS'use'
p2072
aS'custom'
p2073
aS'side'
p2074
aS'clamps'
p2075
aS'set'
p2076
aS'up'
p2077
aS'for'
p2078
aS'1/4'
p2079
aS'and'
p2080
aS'1/2'
p2081
aS'inch'
p2082
aS'bits'
p2083
aS'in'
p2084
aS'order'
p2085
aS'to'
p2086
aS'plough'
p2087
aS'mortises'
p2088
aS'easily'
p2089
aS'(and'
p2090
aS'with'
p2091
aS'great'
p2092
aS'accuracy).'
p2093
ag47
tp2094
a((lp2095
S'Unlike'
p2096
aS'my'
p2097
aS'experience'
p2098
aS'with'
p2099
aS'the'
p2100
aS'Dewalt,'
p2101
ag2
aS'now'
p2102
aS'enjoy'
p2103
aS'reaching'
p2104
aS'for'
p2105
aS'the'
p2106
aS'Hitachi'
p2107
aS'(and'
p2108
aS'allow'
p2109
aS'me'
p2110
aS'to'
p2111
aS'stress'
p2112
ag2
aS'am'
p2113
ag7
aS'fan'
p2114
aS'of'
p2115
aS'many'
p2116
aS'other'
p2117
aS'Dewalt'
p2118
aS'tools'
p2119
aS'--'
p2120
aS'especially'
p2121
aS'their'
p2122
aS'large'
p2123
aS'table'
p2124
aS'saw'
p2125
aS'and'
p2126
aS'famous'
p2127
aS'miter'
p2128
aS'saws).'
p2129
ag47
tp2130
a((lp2131
S'LIKE'
p2132
aS'other'
p2133
aS'reviewers'
p2134
ag2
aS'can'
p2135
aS'attest'
p2136
aS'to'
p2137
aS'the'
p2138
aS'following:'
p2139
ag47
tp2140
a((lp2141
S'1.'
p2142
aS'Your'
p2143
aS'Hitachi'
p2144
aS'might'
p2145
aS'come'
p2146
aS'to'
p2147
aS'you'
p2148
aS'with'
p2149
ag7
aS'stiff'
p2150
aS'spring'
p2151
aS'mechanism.'
p2152
ag70
tp2153
a((lp2154
S'Mine'
p2155
aS'was'
p2156
aS'so'
p2157
aS'bad'
p2158
ag2
aS'had'
p2159
aS'to'
p2160
aS'to'
p2161
aS'use'
p2162
ag7
aS'hammer'
p2163
aS'to'
p2164
aS'free'
p2165
aS'it'
p2166
aS'(and'
p2167
aS'this'
p2168
aS'is'
p2169
aS'why'
p2170
aS"I'm"
p2171
aS'giving'
p2172
aS'it'
p2173
aS'4,'
p2174
aS'not'
p2175
aS'5'
p2176
aS'stars).'
p2177
ag70
tp2178
a((lp2179
g2
aS'have'
p2180
aS'noted'
p2181
aS'that'
p2182
aS'as'
p2183
aS'you'
p2184
aS'use'
p2185
aS'the'
p2186
aS'tool,'
p2187
aS'sawdust'
p2188
aS'builds'
p2189
aS'in'
p2190
aS'the'
p2191
aS'channel'
p2192
aS'and'
p2193
aS'it'
p2194
aS'requires'
p2195
aS'attention.'
p2196
ag70
tp2197
a((lp2198
S'Not'
p2199
ag7
aS'killer'
p2200
aS'problem,'
p2201
aS'but'
p2202
aS'not'
p2203
aS'well'
p2204
aS'done,'
p2205
aS'either.'
p2206
ag70
tp2207
a((lp2208
S'2.'
p2209
aS'Half-inch'
p2210
aS'router'
p2211
aS'bits'
p2212
aS'provide'
p2213
aS'more'
p2214
aS'operating'
p2215
aS'security'
p2216
aS'and'
p2217
aS'finish'
p2218
aS'quality'
p2219
aS'than'
p2220
aS'do'
p2221
aS'their'
p2222
aS'1/4'
p2223
aS'inch'
p2224
aS'counterparts.'
p2225
ag47
tp2226
a((lp2227
S'Have'
p2228
aS'read'
p2229
aS'this'
p2230
aS'on'
p2231
aS'the'
p2232
aS'web'
p2233
aS'and'
p2234
aS'can'
p2235
aS'second'
p2236
aS'the'
p2237
aS'comparative'
p2238
aS'preference.'
p2239
ag47
tp2240
a((lp2241
g2
aS'do'
p2242
aS'woodworking'
p2243
aS'as'
p2244
ag7
aS'serious'
p2245
aS'hobby.'
p2246
ag47
tp2247
a((lp2248
S'For'
p2249
aS'me,'
p2250
aS'it'
p2251
aS'is'
p2252
aS'as'
p2253
aS'important'
p2254
aS'that'
p2255
aS'the'
p2256
aS'tool'
p2257
aS'be'
p2258
aS'comfortable'
p2259
aS'to'
p2260
aS'use'
p2261
aS'as'
p2262
aS'it'
p2263
aS'is'
p2264
aS'that'
p2265
aS'it'
p2266
aS'produce'
p2267
ag7
aS'high-quality'
p2268
aS'result.'
p2269
ag27
tp2270
a((lp2271
S'Can'
p2272
aS'recommend'
p2273
aS'the'
p2274
aS'Hitachi'
p2275
aS'in'
p2276
aS'this'
p2277
aS'ergonomic'
p2278
aS'arena'
p2279
aS'--'
p2280
aS'at'
p2281
aS'the'
p2282
aS'price'
p2283
aS'quoted'
p2284
aS'on'
p2285
aS'Amazon'
p2286
aS'it'
p2287
aS'is'
p2288
ag7
aS'bargain.'
p2289
ag27
tp2290
a((lp2291
S'My'
p2292
aS'first'
p2293
aS'experience'
p2294
aS'with'
p2295
aS'this'
p2296
aS'router'
p2297
aS'was'
p2298
aS'when'
p2299
ag2
aS'was'
p2300
aS'working'
p2301
aS'in'
p2302
ag7
aS'professional'
p2303
aS'window'
p2304
aS'and'
p2305
aS'door'
p2306
aS'shop.'
p2307
ag47
tp2308
a((lp2309
S'The'
p2310
aS'owner'
p2311
aS'had'
p2312
aS'three'
p2313
aS'routers'
p2314
ag862
aS'all'
p2315
aS"M12's."
p2316
ag47
tp2317
a((lp2318
S'This'
p2319
aS'was'
p2320
aS'my'
p2321
aS'first'
p2322
aS'real'
p2323
aS'introduction'
p2324
aS'to'
p2325
aS'serious'
p2326
aS'routing'
p2327
aS'and'
p2328
ag2
aS'thought'
p2329
aS'that'
p2330
aS'the'
p2331
aS'M12'
p2332
aS'was'
p2333
aS'just'
p2334
ag7
aS'router.'
p2335
ag47
tp2336
a((lp2337
S'In'
p2338
aS'the'
p2339
aS'last'
p2340
aS'8'
p2341
aS'years'
p2342
aS'since'
p2343
aS'then'
p2344
ag2
aS'have'
p2345
aS'done'
p2346
ag7
aS'ton'
p2347
aS'of'
p2348
aS'routing'
p2349
aS'and'
p2350
aS'have'
p2351
aS'messed'
p2352
aS'around'
p2353
aS'with'
p2354
ag7
aS'bunch'
p2355
aS'of'
p2356
aS'different'
p2357
aS'machines.'
p2358
ag47
tp2359
a((lp2360
S'After'
p2361
aS'getting'
p2362
aS'used'
p2363
aS'to'
p2364
aS'the'
p2365
aS'M12'
p2366
aS'all'
p2367
aS'the'
p2368
aS'rest'
p2369
aS'seemed'
p2370
aS'lacking.'
p2371
ag27
tp2372
a((lp2373
S'On'
p2374
aS'top'
p2375
aS'of'
p2376
aS'being'
p2377
ag7
aS'workhorse'
p2378
aS'and'
p2379
aS'ultra'
p2380
aS'reliable,'
p2381
aS'it'
p2382
aS'is'
p2383
aS'just'
p2384
ag7
aS'plunge'
p2385
aS'router'
p2386
aS'that'
p2387
aS'works'
p2388
aS'really'
p2389
aS'well.'
p2390
ag27
tp2391
a((lp2392
g2
aS'use'
p2393
aS'it'
p2394
aS'in'
p2395
aS'the'
p2396
aS'table'
p2397
aS'(never'
p2398
aS'take'
p2399
aS'the'
p2400
aS'springs'
p2401
aS'out'
p2402
ag862
aS'just'
p2403
aS'attach'
p2404
aS'the'
p2405
aS'fine'
p2406
aS'adjustment'
p2407
aS'knob),'
p2408
aS'in'
p2409
aS'my'
p2410
aS'woodrat'
p2411
aS'and'
p2412
aS'freehand'
p2413
aS'and'
p2414
aS'it'
p2415
aS'works'
p2416
aS'great'
p2417
aS'in'
p2418
aS'all'
p2419
aS'circumstances.'
p2420
ag27
tp2421
a((lp2422
S'The'
p2423
aS'only'
p2424
aS'beef'
p2425
aS'that'
p2426
ag2
aS'have'
p2427
aS'with'
p2428
aS'it'
p2429
aS'is'
p2430
aS'that'
p2431
aS'there'
p2432
aS'is'
p2433
ag7
aS'little'
p2434
aS'too'
p2435
aS'much'
p2436
aS'slop'
p2437
aS'in'
p2438
aS'the'
p2439
aS'columns'
p2440
aS'when'
p2441
aS'the'
p2442
aS'lock'
p2443
aS'is'
p2444
aS'not'
p2445
aS'engaged.'
p2446
ag70
tp2447
a((lp2448
S'Unless'
p2449
aS'you'
p2450
aS'routinely'
p2451
aS'use'
p2452
aS'it'
p2453
aS'like'
p2454
aS'this'
p2455
aS'(which'
p2456
ag2
aS'do'
p2457
aS'to'
p2458
aS'cut'
p2459
aS'mortises'
p2460
aS'on'
p2461
aS'the'
p2462
aS'woodrat)'
p2463
aS'then'
p2464
aS'you'
p2465
aS'will'
p2466
aS'never'
p2467
aS'notice.'
p2468
ag47
tp2469
a((lp2470
S'If'
p2471
aS'it'
p2472
aS"weren't"
p2473
aS'so'
p2474
aS'big'
p2475
ag2
aS'would'
p2476
aS'probably'
p2477
aS'by'
p2478
aS'another'
p2479
aS'since'
p2480
aS'no'
p2481
aS'shop'
p2482
aS'is'
p2483
aS'complete'
p2484
aS'without'
p2485
ag7
aS'handful'
p2486
aS'of'
p2487
aS'routers..'
p2488
ag70
tp2489
a((lp2490
S'This'
p2491
aS'router'
p2492
aS'appeared'
p2493
aS'in'
p2494
aS'my'
p2495
aS"wife's"
p2496
aS'gold'
p2497
aS'box'
p2498
ag7
aS'few'
p2499
aS'weeks'
p2500
aS'ago,'
p2501
aS'and'
p2502
aS'she'
p2503
aS'knew'
p2504
ag2
aS'was'
p2505
aS'looking'
p2506
aS'to'
p2507
aS'upgrade'
p2508
aS'my'
p2509
aS'Craftsman'
p2510
aS'1/4"'
p2511
aS'fixed'
p2512
aS'base'
p2513
aS'router.'
p2514
ag47
tp2515
a((lp2516
S'She'
p2517
aS'told'
p2518
aS'me'
p2519
aS'to'
p2520
aS'take'
p2521
ag7
aS'look'
p2522
aS'at'
p2523
aS'it,'
p2524
aS'and'
p2525
aS'after'
p2526
aS'reading'
p2527
aS'reviews'
p2528
aS'here'
p2529
aS'and'
p2530
aS'at'
p2531
aS'other'
p2532
aS'sites,'
p2533
ag2
aS'told'
p2534
aS'her'
p2535
aS'to'
p2536
aS'get'
p2537
aS'it.'
p2538
ag47
tp2539
a((lp2540
S'What'
p2541
aS'an'
p2542
aS'upgrade!!!'
p2543
ag27
tp2544
a((lp2545
g2
aS'have'
p2546
aS'only'
p2547
aS'used'
p2548
aS'it'
p2549
aS'with'
p2550
aS'the'
p2551
aS'1/4"'
p2552
aS'collet'
p2553
aS'and'
p2554
ag7
aS'1/2"'
p2555
aS'round'
p2556
aS'over'
p2557
aS'bit,'
p2558
aS'but'
p2559
ag2
aS'love'
p2560
aS'how'
p2561
aS'it'
p2562
aS'starts'
p2563
aS'up'
p2564
aS'with'
p2565
aS'little'
p2566
aS'torque'
p2567
aS'and'
p2568
aS'runs'
p2569
aS'very'
p2570
aS'quietly.'
p2571
ag27
tp2572
a((lp2573
S'The'
p2574
aS'depth'
p2575
aS'adjustment'
p2576
aS'and'
p2577
aS'bit'
p2578
aS'changing'
p2579
aS'is'
p2580
aS'much'
p2581
aS'easier'
p2582
aS'on'
p2583
aS'the'
p2584
aS'M12V'
p2585
aS'than'
p2586
aS'it'
p2587
aS'was'
p2588
aS'on'
p2589
aS'my'
p2590
aS'old'
p2591
aS'router.'
p2592
ag27
tp2593
a((lp2594
S'The'
p2595
aS'handles'
p2596
aS'make'
p2597
aS'it'
p2598
aS'very'
p2599
aS'comfortable'
p2600
aS'to'
p2601
aS'use'
p2602
aS'and'
p2603
ag2
aS'experience'
p2604
aS'little'
p2605
aS'vibration.'
p2606
ag27
tp2607
a((lp2608
S'Combine'
p2609
aS'this'
p2610
aS'with'
p2611
aS'the'
p2612
aS'excellent'
p2613
aS'price'
p2614
aS'we'
p2615
aS'got'
p2616
aS'in'
p2617
aS'the'
p2618
aS'Gold'
p2619
aS'Box,'
p2620
aS'and'
p2621
aS"I'm"
p2622
aS'really'
p2623
aS'happy.'
p2624
ag27
tp2625
a((lp2626
S"I'm"
p2627
aS'sure'
p2628
ag2
aS"don't"
p2629
aS'use'
p2630
aS'it'
p2631
aS'to'
p2632
aS'the'
p2633
aS'degree'
p2634
aS'of'
p2635
aS'some'
p2636
aS'of'
p2637
aS'the'
p2638
aS'other'
p2639
aS'purchasers,'
p2640
aS'but'
p2641
ag2
aS'really'
p2642
aS'like'
p2643
aS'it!'
p2644
ag27
tp2645
a((lp2646
S'Now'
p2647
ag2
aS'need'
p2648
aS'to'
p2649
aS'get'
p2650
aS'some'
p2651
aS'1/2"'
p2652
aS'bits...'
p2653
ag47
tp2654
a((lp2655
g2
aS'first'
p2656
aS'used'
p2657
aS'the'
p2658
aS'router'
p2659
aS'in'
p2660
aS'the'
p2661
aS'free'
p2662
aS'hand'
p2663
aS'mode'
p2664
aS'and'
p2665
aS'liked'
p2666
aS'it'
p2667
ag7
aS'lot.'
p2668
ag27
tp2669
a((lp2670
g2
aS'find'
p2671
aS'it'
p2672
aS'very'
p2673
aS'stable'
p2674
aS'and'
p2675
aS'comfortable'
p2676
aS'to'
p2677
aS'use,'
p2678
aS'it'
p2679
aS"doesn't"
p2680
aS'jump'
p2681
aS'around'
p2682
aS'or'
p2683
aS'make'
p2684
aS'me'
p2685
aS'feel'
p2686
aS'like'
p2687
ag2
aS'need'
p2688
aS'to'
p2689
aS'use'
p2690
ag7
aS'lot'
p2691
aS'of'
p2692
aS'arm'
p2693
aS'strength'
p2694
aS'to'
p2695
aS'keep'
p2696
aS'it'
p2697
aS'under'
p2698
aS'control,'
p2699
aS'and'
p2700
aS'it'
p2701
aS'has'
p2702
aS'very'
p2703
aS'good'
p2704
aS'visibility'
p2705
aS'to'
p2706
aS'see'
p2707
aS'your'
p2708
aS'cut.'
p2709
ag27
tp2710
a((lp2711
S'It'
p2712
aS'came'
p2713
aS'with'
p2714
ag7
aS'good'
p2715
aS'fence'
p2716
aS'that'
p2717
aS'is'
p2718
aS'simple'
p2719
aS'yet'
p2720
aS'precise'
p2721
aS'and'
p2722
aS'thats'
p2723
aS'well'
p2724
aS'made'
p2725
aS'and'
p2726
aS"won't"
p2727
aS'break.'
p2728
ag27
tp2729
a((lp2730
S'Also'
p2731
ag2
aS'like'
p2732
aS'the'
p2733
aS'position'
p2734
aS'of'
p2735
aS'all'
p2736
aS'the'
p2737
aS'controls'
p2738
aS'and'
p2739
aS'the'
p2740
aS'fact'
p2741
aS'that'
p2742
aS'it'
p2743
aS"doesn't"
p2744
aS'have'
p2745
aS'any'
p2746
aS'extra'
p2747
aS'knobs'
p2748
aS'or'
p2749
aS'gizmos.'
p2750
ag27
tp2751
a((lp2752
g2
aS'prefer'
p2753
aS'things'
p2754
aS'that'
p2755
aS'are'
p2756
aS'simple.'
p2757
ag27
tp2758
a((lp2759
g2
aS'prefer'
p2760
aS'to'
p2761
aS'use'
p2762
aS'my'
p2763
aS'mind'
p2764
aS'to'
p2765
aS'figure'
p2766
aS'out'
p2767
aS'how'
p2768
aS"I'm"
p2769
aS'going'
p2770
aS'to'
p2771
aS'build'
p2772
aS'something'
p2773
aS'not'
p2774
aS'how'
p2775
aS'my'
p2776
aS'tools'
p2777
aS'work.'
p2778
ag47
tp2779
a((lp2780
g2
aS'now'
p2781
aS'have'
p2782
aS'it'
p2783
aS'as'
p2784
ag7
aS'permenant'
p2785
aS'fixture'
p2786
aS'in'
p2787
aS'my'
p2788
aS'router'
p2789
aS'table.'
p2790
ag47
tp2791
a((lp2792
S'The'
p2793
aS'router'
p2794
aS'has'
p2795
aS'plenty'
p2796
aS'of'
p2797
aS'power'
p2798
aS'for'
p2799
aS'any'
p2800
aS'type'
p2801
aS'of'
p2802
aS'bit'
p2803
aS'or'
p2804
aS'wood'
p2805
ag2
aS'need'
p2806
aS'to'
p2807
aS'cut,'
p2808
aS'and'
p2809
aS'the'
p2810
aS'speed'
p2811
aS'control'
p2812
aS'knob'
p2813
aS'is'
p2814
aS'easy'
p2815
aS'to'
p2816
aS'get'
p2817
aS'to.'
p2818
ag27
tp2819
a((lp2820
g2
aS'did'
p2821
aS'have'
p2822
aS'to'
p2823
aS'cut'
p2824
aS'off'
p2825
aS'the'
p2826
aS'ears'
p2827
aS'that'
p2828
aS'hold'
p2829
aS'the'
p2830
aS'template'
p2831
aS'guide'
p2832
aS'in'
p2833
aS'place'
p2834
aS'so'
p2835
ag2
aS'could'
p2836
aS'get'
p2837
aS'those'
p2838
aS'big'
p2839
aS'panel'
p2840
aS'raising'
p2841
aS'bits'
p2842
aS'in'
p2843
aS'it.'
p2844
ag70
tp2845
a((lp2846
S'It'
p2847
aS'will'
p2848
aS'take'
p2849
aS'31/2'
p2850
aS'inchers'
p2851
aS'now.'
p2852
ag47
tp2853
a((lp2854
g2
aS'also'
p2855
aS'removed'
p2856
aS'the'
p2857
aS'springs'
p2858
aS'in'
p2859
aS'the'
p2860
aS'plunge'
p2861
aS'tubes'
p2862
aS'to'
p2863
aS'make'
p2864
aS'it'
p2865
aS'easier'
p2866
aS'to'
p2867
aS'raise.'
p2868
ag70
tp2869
a((lp2870
g2
aS'added'
p2871
ag7
aS'crank'
p2872
aS'for'
p2873
aS'those'
p2874
aS'times'
p2875
aS'when'
p2876
ag2
aS'need'
p2877
aS'to'
p2878
aS'make'
p2879
aS'fine'
p2880
aS'adjustments,'
p2881
aS'but'
p2882
ag2
aS'seldom'
p2883
aS'use'
p2884
aS'it.'
p2885
ag70
tp2886
a((lp2887
g2
aS'also'
p2888
aS'put'
p2889
ag7
aS'bend'
p2890
aS'in'
p2891
aS'the'
p2892
aS'wrench'
p2893
aS'so'
p2894
ag2
aS'can'
p2895
aS'remove'
p2896
aS'and'
p2897
aS'install'
p2898
aS'bits'
p2899
aS'from'
p2900
aS'the'
p2901
aS'top'
p2902
aS'of'
p2903
aS'the'
p2904
aS'table.'
p2905
ag70
tp2906
a((lp2907
S'Its'
p2908
aS'not'
p2909
ag7
aS'perfect'
p2910
aS'system'
p2911
aS'but'
p2912
aS'its'
p2913
ag7
aS'very'
p2914
aS'good'
p2915
aS'one.'
p2916
ag27
tp2917
a((lp2918
g2
aS'need'
p2919
aS'it'
p2920
aS'back'
p2921
aS'as'
p2922
ag7
aS'hand'
p2923
aS'held'
p2924
aS'so'
p2925
aS"I'm"
p2926
aS'going'
p2927
aS'to'
p2928
aS'buy'
p2929
aS'another'
p2930
aS'one.'
p2931
ag47
tp2932
a((lp2933
S"I've"
p2934
aS'owned'
p2935
aS'this'
p2936
aS'router'
p2937
aS'for'
p2938
aS'over'
p2939
ag2341
aS'years'
p2940
aS'and'
p2941
aS'am'
p2942
aS'somewhat'
p2943
aS'satisfied'
p2944
aS'with'
p2945
aS'it.'
p2946
ag27
tp2947
a((lp2948
S'It'
p2949
aS'is'
p2950
aS'quiet'
p2951
aS'and'
p2952
aS'has'
p2953
aS'plenty'
p2954
aS'of'
p2955
aS'power.'
p2956
ag27
tp2957
a((lp2958
g2
aS'find'
p2959
aS'that'
p2960
aS'it'
p2961
aS'is'
p2962
aS'stable'
p2963
aS'in'
p2964
aS'my'
p2965
aS'hands'
p2966
aS'and'
p2967
aS"its'"
p2968
aS'weight'
p2969
aS'actually'
p2970
aS'contributes'
p2971
aS'to'
p2972
aS'that'
p2973
aS'stability.'
p2974
ag27
tp2975
a((lp2976
S'That'
p2977
aS'said,'
p2978
ag2
aS'am'
p2979
aS'disappointed'
p2980
aS'in'
p2981
aS'the'
p2982
aS'plunging'
p2983
aS'mechanism.'
p2984
ag70
tp2985
a((lp2986
S'Shortly'
p2987
aS'after'
p2988
ag2
aS'brought'
p2989
aS'it,'
p2990
aS'the'
p2991
aS'plunging'
p2992
aS'shafts'
p2993
aS'started'
p2994
aS'sticking.'
p2995
ag70
tp2996
a((lp2997
S'After'
p2998
aS'repeatly'
p2999
aS'cleaning'
p3000
aS'and'
p3001
aS'recleaning,'
p3002
aS'it'
p3003
aS'still'
p3004
aS'stuck'
p3005
aS'after'
p3006
aS'using'
p3007
aS'it'
p3008
aS'for'
p3009
ag7
aS'little'
p3010
aS'while.'
p3011
ag70
tp3012
a((lp3013
g2
aS'no'
p3014
aS'longer'
p3015
aS'use'
p3016
aS'it'
p3017
aS'as'
p3018
ag7
aS'plunge'
p3019
aS'router,'
p3020
aS'only'
p3021
aS'as'
p3022
ag7
aS'stationary'
p3023
aS'or'
p3024
aS'table'
p3025
aS'mounted'
p3026
aS'router.'
p3027
ag70
tp3028
a((lp3029
S'If'
p3030
aS'the'
p3031
aS'plunging'
p3032
aS'action'
p3033
aS"isn't"
p3034
aS'that'
p3035
aS'important,'
p3036
aS'then'
p3037
aS'this'
p3038
aS'is'
p3039
ag7
aS'great'
p3040
aS'router.'
p3041
ag47
tp3042
a((lp3043
S'If'
p3044
aS'the'
p3045
aS'plunging'
p3046
aS'action'
p3047
aS'is'
p3048
aS'critical'
p3049
aS'to'
p3050
aS'your'
p3051
aS'work,'
p3052
aS'look'
p3053
aS'elsewhere.'
p3054
ag70
tp3055
a((lp3056
g2
aS'love'
p3057
aS'the'
p3058
aS'performance'
p3059
aS'and'
p3060
aS'features'
p3061
aS'of'
p3062
aS'this'
p3063
aS'router.'
p3064
ag27
tp3065
a((lp3066
S'For'
p3067
aS'the'
p3068
aS'money,'
p3069
aS"I'm"
p3070
aS'not'
p3071
aS'sure'
p3072
aS'you'
p3073
aS'can'
p3074
aS'do'
p3075
aS'better.'
p3076
ag27
tp3077
a((lp3078
S"It's"
p3079
aS'very'
p3080
aS'quiet'
p3081
aS'for'
p3082
ag7
aS'universal'
p3083
aS'motor-driven'
p3084
aS'tool,'
p3085
aS'and'
p3086
aS'the'
p3087
aS'height'
p3088
aS'adjustment'
p3089
aS'stick'
p3090
aS'and'
p3091
aS'variable'
p3092
aS'speed'
p3093
aS'control'
p3094
aS'are'
p3095
aS'great.'
p3096
ag27
tp3097
a((lp3098
g2
aS'bought'
p3099
aS'this'
p3100
aS'specifically'
p3101
aS'for'
p3102
ag7
aS'router'
p3103
aS'table'
p3104
ag2
aS'built,'
p3105
aS'and'
p3106
aS'it'
p3107
aS'has'
p3108
aS'performed'
p3109
aS'flawlessly'
p3110
aS'in'
p3111
aS'that'
p3112
aS'capacity.'
p3113
ag47
tp3114
a((lp3115
S"I've"
p3116
aS'done'
p3117
aS'some'
p3118
aS'hand-held'
p3119
aS'routing'
p3120
aS'with'
p3121
aS'it'
p3122
aS'and'
p3123
aS'it'
p3124
aS'works'
p3125
aS'good'
p3126
aS'for'
p3127
aS'that'
p3128
aS'as'
p3129
aS'well.'
p3130
ag47
tp3131
a((lp3132
S'Smooth'
p3133
aS'plunging'
p3134
aS'mechanism.'
p3135
ag27
tp3136
a((lp3137
S'The'
p3138
aS'guide'
p3139
aS'fence'
p3140
aS'for'
p3141
aS'freehand'
p3142
aS'routing'
p3143
aS'is'
p3144
aS'well'
p3145
aS'made'
p3146
aS'and'
p3147
aS'solid.'
p3148
ag27
tp3149
a((lp3150
S'The'
p3151
aS'only'
p3152
aS'thing'
p3153
ag2
aS'hate'
p3154
aS'(and'
p3155
aS'this'
p3156
aS'pretty'
p3157
aS'much'
p3158
aS'goes'
p3159
aS'for'
p3160
aS'any'
p3161
aS'router'
p3162
aS"I've"
p3163
aS'used)'
p3164
aS'is'
p3165
aS'changing'
p3166
aS'the'
p3167
aS'bits.'
p3168
ag47
tp3169
a((lp3170
S"It's"
p3171
aS'oftentimes'
p3172
aS'hard'
p3173
aS'to'
p3174
aS'get'
p3175
ag7
aS'good'
p3176
aS'grip'
p3177
aS'on'
p3178
aS'the'
p3179
aS'router,'
p3180
aS'activate'
p3181
aS'the'
p3182
aS'chuck'
p3183
aS'lock,'
p3184
aS'and'
p3185
aS'get'
p3186
aS'enough'
p3187
aS'muscle'
p3188
aS'behind'
p3189
aS'the'
p3190
aS'wrench'
p3191
aS'to'
p3192
aS'get'
p3193
aS'the'
p3194
aS'collet'
p3195
aS'loosened'
p3196
aS'up.'
p3197
ag70
tp3198
a((lp3199
S'Even'
p3200
aS'with'
p3201
aS'that,'
p3202
ag2
aS'highly'
p3203
aS'recommend'
p3204
aS'this'
p3205
aS'router'
p3206
ag862
aS'outstanding'
p3207
aS'performer.'
p3208
ag27
tp3209
a((lp3210
g2
aS'purchased'
p3211
aS'two'
p3212
aS'of'
p3213
aS'these'
p3214
aS'beauties.'
p3215
ag27
tp3216
a((lp3217
S'For'
p3218
aS'exclusive'
p3219
aS'use'
p3220
aS'in'
p3221
ag7
aS'double'
p3222
aS'router'
p3223
aS'table'
p3224
ag2
aS'have'
p3225
aS'been'
p3226
aS'building.'
p3227
ag47
tp3228
a((lp3229
g2
aS'have'
p3230
ag7
aS'tendency'
p3231
aS'to'
p3232
aS'do'
p3233
aS'quite'
p3234
ag7
aS'bit'
p3235
aS'of'
p3236
aS'research'
p3237
aS'before'
p3238
ag2
aS'drop'
p3239
aS'money'
p3240
aS'on'
p3241
ag7
aS'tool'
p3242
aS'and'
p3243
aS'everyone'
p3244
ag2
aS'talked'
p3245
aS'to'
p3246
aS'loved'
p3247
aS'this'
p3248
aS'router.'
p3249
ag27
tp3250
a((lp3251
S'One'
p3252
aS'cabinet'
p3253
aS'shop'
p3254
aS'has'
p3255
aS'been'
p3256
aS'using'
p3257
aS'one'
p3258
aS'regularly'
p3259
aS'in'
p3260
ag7
aS'router'
p3261
aS'table'
p3262
aS'for'
p3263
aS'11'
p3264
aS'years'
p3265
aS'without'
p3266
ag7
aS'problem.'
p3267
ag27
tp3268
a((lp3269
S'My'
p3270
aS'routers'
p3271
aS'arrived'
p3272
aS'promptly'
p3273
aS'and'
p3274
ag2
aS'actually'
p3275
aS'used'
p3276
aS'one'
p3277
aS'of'
p3278
aS'them'
p3279
aS'in'
p3280
aS'the'
p3281
aS'construction'
p3282
aS'of'
p3283
aS'the'
p3284
aS'router'
p3285
aS'table.'
p3286
ag47
tp3287
a((lp3288
S'The'
p3289
aS'design'
p3290
aS'of'
p3291
aS'the'
p3292
aS'collets'
p3293
aS'is'
p3294
aS'excellent'
p3295
aS'and'
p3296
aS'far'
p3297
aS'exceeds'
p3298
aS'any'
p3299
aS'of'
p3300
aS'the'
p3301
aS'craftman'
p3302
aS'(toy/junk)'
p3303
aS'routers'
p3304
ag2
aS'have'
p3305
aS'previously'
p3306
aS'purchased.'
p3307
ag27
tp3308
a((lp3309
g2
aS'have'
p3310
aS'since'
p3311
aS'used'
p3312
aS'them'
p3313
aS'to'
p3314
aS'cut'
p3315
aS'all'
p3316
aS'the'
p3317
aS'stiles'
p3318
aS'and'
p3319
aS'rails'
p3320
aS'for'
p3321
aS'my'
p3322
aS'first'
p3323
aS'kitchen.'
p3324
ag47
tp3325
a((lp3326
S'They'
p3327
aS'were'
p3328
aS'easy'
p3329
aS'to'
p3330
aS'setup'
p3331
aS'with'
p3332
aS'plenty'
p3333
aS'of'
p3334
aS'power'
p3335
aS'to'
p3336
aS'hog'
p3337
aS'through'
p3338
aS'anything'
p3339
ag2
aS'have'
p3340
aS'encountered.'
p3341
ag27
tp3342
a((lp3343
g2
aS'have'
p3344
aS'less'
p3345
aS'money'
p3346
aS'invested'
p3347
aS'in'
p3348
aS'the'
p3349
aS'router'
p3350
aS'table'
p3351
aS'and'
p3352
aS'dual'
p3353
aS'routers'
p3354
aS'than'
p3355
ag2
aS'would'
p3356
aS'have'
p3357
aS'if'
p3358
ag2
aS'had'
p3359
aS'purchased'
p3360
ag7
aS'single'
p3361
aS'cheap'
p3362
aS'reliant'
p3363
aS'shaper.'
p3364
ag27
tp3365
a((lp3366
S'The'
p3367
aS'setup'
p3368
aS'works'
p3369
aS'awesome,'
p3370
aS'as'
p3371
aS'with'
p3372
aS'any'
p3373
aS'tool'
p3374
ag2
aS'look'
p3375
aS'closely'
p3376
aS'at'
p3377
aS'the'
p3378
aS'individual'
p3379
aS'tool'
p3380
aS'for'
p3381
aS"it's"
p3382
aS'merits,'
p3383
aS'and'
p3384
aS'not'
p3385
aS'just'
p3386
aS'the'
p3387
aS'company'
p3388
aS'as'
p3389
ag7
aS'whole.'
p3390
ag27
tp3391
a((lp3392
g2
aS'say'
p3393
aS'this'
p3394
aS'because'
p3395
ag2
aS'am'
p3396
aS'not'
p3397
aS'particulary'
p3398
aS'fond'
p3399
aS'of'
p3400
aS'the'
p3401
aS'hitachi'
p3402
aS'compound'
p3403
aS'miter'
p3404
aS'saw.'
p3405
ag47
tp3406
a((lp3407
S'As'
p3408
ag2
aS'find'
p3409
aS'it'
p3410
aS'inheritly'
p3411
aS'inaccurate'
p3412
aS'by'
p3413
aS'design.'
p3414
ag47
tp3415
a((lp3416
g2
aS'would'
p3417
aS'however'
p3418
aS'highly'
p3419
aS'recommend'
p3420
aS'the'
p3421
aS'm12v'
p3422
aS'router'
p3423
ag1906
ag27
tp3424
a((lp3425
S"I'm"
p3426
aS'not'
p3427
aS'overly'
p3428
aS'fond'
p3429
aS'of'
p3430
aS'GREEN'
p3431
aS'but'
p3432
aS'when'
p3433
ag2
aS'used'
p3434
aS'this'
p3435
aS'Hitachi'
p3436
aS'M12V'
p3437
aS'it'
p3438
aS'turns'
p3439
aS'out'
p3440
aS'that'
p3441
aS'now'
p3442
aS"I'm"
p3443
aS'very'
p3444
aS'fond'
p3445
aS'of'
p3446
aS'it.'
p3447
ag27
tp3448
a((lp3449
S'This'
p3450
aS'router'
p3451
aS'does'
p3452
aS'GREAT'
p3453
aS'in'
p3454
aS'hand'
p3455
aS'held'
p3456
aS'jobs'
p3457
aS'and'
p3458
aS'Router'
p3459
aS'Tables.'
p3460
ag47
tp3461
a((lp3462
g2
aS'mounted'
p3463
aS'mine'
p3464
aS'in'
p3465
ag7
aS'home'
p3466
aS'brew'
p3467
aS'table'
p3468
aS'and'
p3469
aS'used'
p3470
ag7
aS'router'
p3471
aS'lift.'
p3472
ag47
tp3473
a((lp3474
S'The'
p3475
aS'smooth'
p3476
aS'operation'
p3477
aS'variable'
p3478
aS'speed'
p3479
aS'and'
p3480
ag7
aS'set'
p3481
aS'of'
p3482
aS'good'
p3483
aS'Jasada'
p3484
aS'Bits'
p3485
aS'will'
p3486
aS'provide'
p3487
aS'just'
p3488
aS'the'
p3489
aS'right'
p3490
aS'combination'
p3491
aS'for'
p3492
aS'great'
p3493
aS'predictable'
p3494
aS'results.'
p3495
ag27
tp3496
a((lp3497
S'Its'
p3498
aS'well'
p3499
aS'made'
p3500
aS'and'
p3501
aS'user'
p3502
aS'friendly.'
p3503
ag27
tp3504
a((lp3505
S"You'll"
p3506
aS'love'
p3507
aS'it!'
p3508
ag27
tp3509
a((lp3510
S'This'
p3511
aS'router'
p3512
aS'is'
p3513
ag1738
aS'of'
p3514
ag1327
aS'in'
p3515
aS'my'
p3516
aS'shop.'
p3517
ag47
tp3518
a((lp3519
S'It'
p3520
aS'is'
p3521
aS'currently'
p3522
aS'permanently'
p3523
aS'mounted'
p3524
aS'(3'
p3525
aS'years'
p3526
aS'now)'
p3527
aS'in'
p3528
aS'my'
p3529
aS'router'
p3530
aS'table'
p3531
aS'and'
p3532
aS'will'
p3533
aS'most'
p3534
aS'likely'
p3535
aS'stay'
p3536
aS'there'
p3537
aS'until'
p3538
aS'its'
p3539
aS'shot.'
p3540
ag27
tp3541
a((lp3542
g2
aS'have'
p3543
aS'added'
p3544
aS'the'
p3545
aS'router'
p3546
aS'raizer'
p3547
aS'kit(simple'
p3548
aS'installation)'
p3549
aS'to'
p3550
aS'it'
p3551
aS'and'
p3552
aS'cannot'
p3553
aS'live'
p3554
aS'without'
p3555
aS'this'
p3556
aS'setup!'
p3557
ag47
tp3558
a((lp3559
S'This'
p3560
aS'router'
p3561
aS'has'
p3562
aS'soft'
p3563
aS'start'
p3564
aS'and'
p3565
aS'runs'
p3566
aS'smooth'
p3567
aS'and'
p3568
aS'true.'
p3569
ag27
tp3570
a((lp3571
g2
aS'use'
p3572
aS'the'
p3573
aS'router'
p3574
aS'with'
p3575
ag7
ag1031
aS'1/2in'
p3576
aS'raised'
p3577
aS'panel'
p3578
aS'bit'
p3579
aS'with'
p3580
aS'no'
p3581
aS'problems.'
p3582
ag27
tp3583
a((lp3584
S'It'
p3585
aS'has'
p3586
aS'enough'
p3587
aS'power'
p3588
aS'to'
p3589
aS'hog'
p3590
aS'out'
p3591
aS'all'
p3592
aS'the'
p3593
aS'material'
p3594
aS'in'
p3595
aS'one'
p3596
aS'pass,'
p3597
aS'but'
p3598
ag2
aS'usually'
p3599
aS'take'
p3600
aS'multiple'
p3601
aS'to'
p3602
aS'prevent'
p3603
aS'blowout'
p3604
aS'and'
p3605
ag7
aS'smoother'
p3606
aS'finish.'
p3607
ag27
tp3608
a((lp3609
S'For'
p3610
aS'the'
p3611
aS'price,'
p3612
ag2
aS'am'
p3613
aS'considering'
p3614
aS'purchasing'
p3615
ag7
aS'spare'
p3616
aS'just'
p3617
aS'to'
p3618
aS'have'
p3619
aS'as'
p3620
ag7
aS'backup.'
p3621
ag27
tp3622
a((lp3623
S'You'
p3624
aS'just'
p3625
aS"can't"
p3626
aS'go'
p3627
aS'wrong'
p3628
aS'with'
p3629
aS'this'
p3630
aS'one!'
p3631
ag27
tp3632
a((lp3633
S'Enjoy.'
p3634
ag27
tp3635
a((lp3636
S'This'
p3637
aS'is'
p3638
aS'an'
p3639
aS'excellent'
p3640
aS'router'
p3641
aS'for'
p3642
aS'the'
p3643
aS'price.'
p3644
ag27
tp3645
a((lp3646
S'This'
p3647
aS'is'
p3648
aS'my'
p3649
aS'second'
p3650
aS'one.'
p3651
ag47
tp3652
a((lp3653
S'The'
p3654
aS'first'
p3655
aS'one'
p3656
aS'lasted'
p3657
aS'about'
p3658
aS'6'
p3659
aS'years'
p3660
aS'of'
p3661
aS'heavy'
p3662
aS'use.'
p3663
ag27
tp3664
a((lp3665
S'This'
p3666
aS'is'
p3667
ag7
aS'well-made'
p3668
aS'and'
p3669
aS'powerful'
p3670
aS'tool.'
p3671
ag27
tp3672
a((lp3673
S'At'
p3674
aS'the'
p3675
aS'last'
p3676
aS'Anahiem'
p3677
aS'WW'
p3678
aS'Show'
p3679
ag2
aS'decided'
p3680
aS'to'
p3681
aS'get'
p3682
aS'the'
p3683
aS'M12V.'
p3684
ag47
tp3685
a((lp3686
g2
aS'was'
p3687
aS'some'
p3688
aS'what'
p3689
aS'sceptical'
p3690
aS'when'
p3691
ag2
aS'seen'
p3692
aS'the'
p3693
aS'price'
p3694
aS'deference'
p3695
aS'between'
p3696
aS'the'
p3697
aS'other'
p3698
aS'makers'
p3699
aS'of'
p3700
aS'comparible'
p3701
aS'HP.'
p3702
ag70
tp3703
a((lp3704
g2
aS'bought'
p3705
aS'it!'
p3706
ag47
tp3707
a((lp3708
g2
aS'have'
p3709
ag2176
aS'routers,'
p3710
ag2
aS'use'
p3711
aS'them'
p3712
aS'all!'
p3713
ag47
tp3714
a((lp3715
g2
aS'make'
p3716
aS'furniture'
p3717
aS'and'
p3718
aS'cabinetry.'
p3719
ag47
tp3720
a((lp3721
g2
aS'cut'
p3722
aS'30-50'
p3723
aS'raised'
p3724
aS'panel'
p3725
aS'doors'
p3726
ag7
aS'month'
p3727
aS'using'
p3728
aS'every'
p3729
aS'specie'
p3730
aS'of'
p3731
aS'wood'
p3732
aS'imaginable.'
p3733
ag47
tp3734
a((lp3735
S'Maple,'
p3736
aS'Koa'
p3737
aS'and'
p3738
aS'Cherry'
p3739
aS'giving'
p3740
aS'us'
p3741
aS'the'
p3742
aS'hardest'
p3743
aS'time'
p3744
aS'with'
p3745
aS'burning'
p3746
aS'and'
p3747
aS'splintering.'
p3748
ag47
tp3749
a((lp3750
S'The'
p3751
aS'M12V'
p3752
aS'has'
p3753
aS'been'
p3754
aS'great.'
p3755
ag27
tp3756
a((lp3757
S'The'
p3758
aS'height'
p3759
aS'adjustment'
p3760
aS'works'
p3761
aS'well-'
p3762
aS'not'
p3763
aS'perfect.'
p3764
ag27
tp3765
a((lp3766
S'The'
p3767
aS'wood'
p3768
aS'can'
p3769
aS'be'
p3770
aS'pushed'
p3771
aS'thru'
p3772
aS'fast'
p3773
aS'or'
p3774
aS'slow'
p3775
aS'with'
p3776
aS'little'
p3777
aS'bog.'
p3778
ag27
tp3779
a((lp3780
S'The'
p3781
aS'true'
p3782
aS'test'
p3783
aS'is'
p3784
aS'its'
p3785
aS'ability'
p3786
aS'to'
p3787
aS'be'
p3788
aS'forgiving'
p3789
aS'when'
p3790
aS'coping'
p3791
ag7
aS'rail.'
p3792
ag47
tp3793
a((lp3794
S'What'
p3795
ag2
aS'really'
p3796
aS'like'
p3797
aS'about-'
p3798
aS'its'
p3799
aS'quite,'
p3800
aS'it'
p3801
aS'can'
p3802
aS'handle'
p3803
aS'my'
p3804
aS'workload'
p3805
aS'and'
p3806
aS'it'
p3807
aS'was'
p3808
aS'so'
p3809
aS'cheap'
p3810
aS'that'
p3811
ag2
aS'can'
p3812
aS'throw'
p3813
aS'it'
p3814
aS'away'
p3815
aS'and'
p3816
aS'buy'
p3817
aS'another'
p3818
aS'one'
p3819
aS'without'
p3820
aS'blinking.'
p3821
ag27
tp3822
a((lp3823
S'Good'
p3824
aS'luck'
p3825
aS'and'
p3826
aS'cut'
p3827
aS'wood!!!!'
p3828
ag47
tp3829
a((lp3830
S'This'
p3831
aS'router'
p3832
aS'was'
p3833
ag7
aS'huge'
p3834
aS'disapointment.'
p3835
ag70
tp3836
a((lp3837
S'The'
p3838
aS'depth'
p3839
aS'adjustment'
p3840
aS'was'
p3841
aS'sloppy.'
p3842
ag70
tp3843
a((lp3844
S'The'
p3845
aS'speed'
p3846
aS'control'
p3847
aS'is'
p3848
aS'recessed'
p3849
aS'too'
p3850
aS'far'
p3851
aS'in'
p3852
aS'the'
p3853
aS'housing'
p3854
aS'and'
p3855
aS'required'
p3856
ag7
aS'tool'
p3857
aS'(screwdriver'
p3858
aS'or'
p3859
aS'dowel'
p3860
aS'rod)'
p3861
aS'to'
p3862
aS'effect'
p3863
aS'any'
p3864
aS'speed'
p3865
aS'change.'
p3866
ag70
tp3867
a((lp3868
S'It'
p3869
aS'was'
p3870
aS'impossible'
p3871
aS'to'
p3872
aS'change'
p3873
aS'the'
p3874
aS'speed'
p3875
aS'with'
p3876
aS'just'
p3877
aS'my'
p3878
aS'fingers.'
p3879
ag70
tp3880
a((lp3881
S'My'
p3882
aS'son'
p3883
aS'tried'
p3884
aS'it'
p3885
aS'and'
p3886
aS'he'
p3887
aS'too'
p3888
aS"couldn't"
p3889
aS'change'
p3890
aS'the'
p3891
aS'speed'
p3892
aS'without'
p3893
aS'an'
p3894
aS'assist.'
p3895
ag70
tp3896
a((lp3897
g2
aS'did'
p3898
aS'like'
p3899
aS'the'
p3900
aS'heft'
p3901
aS'of'
p3902
aS'the'
p3903
aS'machine.'
p3904
ag27
tp3905
a((lp3906
S'It'
p3907
aS'felt'
p3908
aS'rather'
p3909
aS'stable'
p3910
aS'in'
p3911
aS'my'
p3912
aS'hands'
p3913
aS'(heavy'
p3914
aS'though.)'
p3915
ag47
tp3916
a((lp3917
g2
aS'sent'
p3918
aS'it'
p3919
aS'back,'
p3920
aS'as'
p3921
ag2
aS'think'
p3922
aS'that'
p3923
aS'the'
p3924
aS'speed'
p3925
aS'control'
p3926
aS'is'
p3927
aS'either'
p3928
aS'poorly'
p3929
aS'designed'
p3930
aS'or'
p3931
aS'defective.'
p3932
ag70
tp3933
a((lp3934
S'All'
p3935
aS'in'
p3936
aS'all,'
p3937
aS'not'
p3938
aS'very'
p3939
aS'good.'
p3940
ag70
tp3941
a((lp3942
g2
aS'was'
p3943
aS'skeptical'
p3944
aS'about'
p3945
aS'this'
p3946
aS'router'
p3947
aS'due'
p3948
aS'to'
p3949
aS'low'
p3950
aS'price'
p3951
aS'but'
p3952
aS'have'
p3953
aS'been'
p3954
aS'totally'
p3955
aS'impressed'
p3956
aS'using'
p3957
aS'it.'
p3958
ag47
tp3959
a((lp3960
g2
aS'also'
p3961
aS'have'
p3962
aS'the'
p3963
aS'very'
p3964
aS'popular'
p3965
aS'Bosch'
p3966
aS'1617EVSPK'
p3967
aS'kit'
p3968
aS'and'
p3969
aS'had'
p3970
aS'planned'
p3971
aS'to'
p3972
aS'use'
p3973
aS'it'
p3974
aS'on'
p3975
aS'my'
p3976
aS'cabinets,'
p3977
aS'routing'
p3978
aS'dados'
p3979
aS'for'
p3980
aS'shelves.'
p3981
ag47
tp3982
a((lp3983
S'Unfortunately,'
p3984
aS'the'
p3985
aS'Bosch'
p3986
aS'fixed'
p3987
aS'base'
p3988
aS'has'
p3989
aS'no'
p3990
aS'flat'
p3991
aS'edge'
p3992
aS'to'
p3993
aS'ride'
p3994
aS'against'
p3995
ag7
aS'guide,'
p3996
aS'and'
p3997
aS'both'
p3998
aS'bases'
p3999
aS'have'
p4000
ag7
aS'sub-base'
p4001
aS'that'
p4002
aS'extends'
p4003
aS'past'
p4004
aS'the'
p4005
aS'metal'
p4006
aS'base'
p4007
aS'to'
p4008
aS'prevent'
p4009
aS'using'
p4010
aS'against'
p4011
aS'any'
p4012
aS'kind'
p4013
aS'of'
p4014
aS'guide.'
p4015
ag47
tp4016
a((lp4017
S'The'
p4018
aS'Hitachi,'
p4019
aS'on'
p4020
aS'the'
p4021
aS'other'
p4022
aS'hand'
p4023
aS'has'
p4024
ag7
aS'beautiful'
p4025
aS'large'
p4026
aS'flat'
p4027
aS'edge'
p4028
aS'to'
p4029
aS'run'
p4030
aS'against'
p4031
ag7
aS'guide,'
p4032
aS'and'
p4033
aS'the'
p4034
aS'sub-base'
p4035
aS'is'
p4036
aS'recessed'
p4037
aS'so'
p4038
aS'as'
p4039
aS'not'
p4040
aS'to'
p4041
aS'interfere.'
p4042
ag47
tp4043
a((lp4044
S'The'
p4045
aS'power'
p4046
aS'is'
p4047
aS'incredible,'
p4048
aS'it'
p4049
aS'cut'
p4050
aS'through'
p4051
aS'MDF'
p4052
aS'and'
p4053
aS'plywood'
p4054
aS'like'
p4055
aS'butter.'
p4056
ag27
tp4057
a((lp4058
S'The'
p4059
aS'edge'
p4060
aS'guide'
p4061
aS'has'
p4062
ag7
aS'nice'
p4063
aS'micro'
p4064
aS'adjust'
p4065
aS'feature'
p4066
aS'that'
p4067
aS'works'
p4068
aS'well.'
p4069
ag27
tp4070
a((lp4071
S'The'
p4072
aS'only'
p4073
aS'not-so-positive'
p4074
aS'comment'
p4075
ag2
aS'have'
p4076
aS'is'
p4077
aS'about'
p4078
aS'the'
p4079
aS'depth'
p4080
aS'adjustment,'
p4081
aS'it'
p4082
aS'is'
p4083
aS'not'
p4084
aS'easy'
p4085
aS'to'
p4086
aS'micro-adjust'
p4087
aS'accurately.'
p4088
ag70
tp4089
a((lp4090
g2
aS'do'
p4091
aS'not'
p4092
aS'count'
p4093
aS'this'
p4094
aS'as'
p4095
ag7
aS'negative,'
p4096
aS'however,'
p4097
aS'because'
p4098
aS'it'
p4099
aS'is'
p4100
aS'not'
p4101
aS'that'
p4102
aS'much'
p4103
aS'of'
p4104
ag7
aS'nuisance'
p4105
aS'and'
p4106
aS'at'
p4107
aS'the'
p4108
aS'price'
p4109
aS'for'
p4110
aS'what'
p4111
aS'you'
p4112
aS'get'
p4113
aS'this'
p4114
aS'router'
p4115
aS'is'
p4116
aS'way'
p4117
aS'too'
p4118
aS'good'
p4119
aS'to'
p4120
aS'pass'
p4121
aS'up!!!'
p4122
ag27
tp4123
a((lp4124
g2
aS'have'
p4125
ag3659
aS'routers,'
p4126
aS'but'
p4127
aS'have'
p4128
aS'owned'
p4129
aS'about'
p4130
aS'10'
p4131
aS'over'
p4132
aS'the'
p4133
aS'years.'
p4134
ag47
tp4135
a((lp4136
S'If'
p4137
aS'one'
p4138
aS'fails'
p4139
aS'or'
p4140
aS'simply'
p4141
aS"doesn't"
p4142
aS'perform'
p4143
ag2
aS'know'
p4144
aS"I'll"
p4145
aS'let'
p4146
aS'it'
p4147
aS'sit'
p4148
aS'on'
p4149
aS'the'
p4150
aS'shelf'
p4151
aS'so'
p4152
ag2
aS'either'
p4153
aS'sell'
p4154
aS'it'
p4155
aS'or'
p4156
aS'give'
p4157
aS'it'
p4158
aS'away.'
p4159
ag47
tp4160
a((lp4161
S'The'
p4162
aS'ones'
p4163
aS"I've"
p4164
aS'kept'
p4165
aS'(Porter'
p4166
aS'Cables,'
p4167
aS'Dewalts,'
p4168
aS'Bosch,'
p4169
aS'and'
p4170
aS'this'
p4171
aS'Hitachi)'
p4172
aS'have'
p4173
aS'proven'
p4174
aS'their'
p4175
aS'worth'
p4176
aS'over'
p4177
aS'the'
p4178
aS'years,'
p4179
aS'however,'
p4180
aS'when'
p4181
ag2
aS'need'
p4182
ag7
aS'real'
p4183
aS'workhorse,'
p4184
ag2
aS'grab'
p4185
aS'this'
p4186
aS'router.'
p4187
ag27
tp4188
a((lp4189
g2
aS'recently'
p4190
aS'had'
p4191
aS'to'
p4192
aS'run'
p4193
ag7
aS'3/4"'
p4194
aS'straight'
p4195
aS'bit'
p4196
aS'through'
p4197
aS'hard'
p4198
aS'maple'
p4199
aS'to'
p4200
aS'make'
p4201
ag7
aS'deep'
p4202
aS'dado'
p4203
aS'and'
p4204
aS'was'
p4205
aS'amazed'
p4206
aS'that'
p4207
aS'this'
p4208
aS'machine'
p4209
aS"didn't"
p4210
aS'even'
p4211
aS'slow'
p4212
aS'down.'
p4213
ag27
tp4214
a((lp4215
g2
aS'could'
p4216
aS'take'
p4217
aS'1/2"'
p4218
aS'passes'
p4219
aS'and'
p4220
aS'it'
p4221
aS'still'
p4222
aS"didn't"
p4223
aS'skip'
p4224
ag7
aS'beat.'
p4225
ag27
tp4226
a((lp4227
S'As'
p4228
aS'much'
p4229
aS'as'
p4230
ag2
aS'like'
p4231
aS'my'
p4232
aS'other'
p4233
aS'routers,'
p4234
ag2
aS'know'
p4235
aS'their'
p4236
aS'limitations'
p4237
aS'because'
p4238
aS"I've"
p4239
aS'pushed'
p4240
aS'them'
p4241
aS'all'
p4242
aS'to'
p4243
aS'them.'
p4244
ag47
tp4245
a((lp4246
S"I've"
p4247
aS'yet'
p4248
aS'to'
p4249
aS'find'
p4250
aS'the'
p4251
aS'limitation'
p4252
aS'for'
p4253
aS'this'
p4254
aS'Hitachi'
p4255
aS'(my'
p4256
aS'only'
p4257
aS'Hitachi'
p4258
aS'tool,'
p4259
aS'by'
p4260
aS'the'
p4261
aS'way)'
p4262
aS'and'
p4263
aS'quite'
p4264
aS'frankly,'
p4265
ag2
aS"don't"
p4266
aS'know'
p4267
aS'that'
p4268
ag2
aS'have'
p4269
aS'the'
p4270
aS'muscle'
p4271
aS'to'
p4272
aS'push'
p4273
aS'this'
p4274
aS'machine'
p4275
aS'any'
p4276
aS'harder.'
p4277
ag27
tp4278
a((lp4279
S'Bottom'
p4280
aS'line'
p4281
aS'is'
p4282
aS'that'
p4283
aS'at'
p4284
aS'$160,'
p4285
aS'this'
p4286
aS'is'
p4287
aS'an'
p4288
aS'absolute'
p4289
aS'steal.'
p4290
ag27
tp4291
a((lp4292
S"I've"
p4293
aS'got'
p4294
ag7
aS'buddy'
p4295
aS"who's"
p4296
aS'trying'
p4297
aS'to'
p4298
aS'offload'
p4299
aS'his'
p4300
aS'almost'
p4301
aS'new'
p4302
aS'$300'
p4303
aS'Speedmatic'
p4304
aS'because'
p4305
aS'he'
p4306
aS'saw'
p4307
aS'what'
p4308
aS'this'
p4309
aS'router'
p4310
aS'can'
p4311
aS'do.'
p4312
ag27
tp4313
a((lp4314
S'It'
p4315
aS'is'
p4316
aS'without'
p4317
aS'even'
p4318
ag7
aS'slight'
p4319
aS'doubt,'
p4320
aS'my'
p4321
aS'new'
p4322
aS'favorite.'
p4323
ag27
tp4324
a((lp4325
g2
aS'reciently'
p4326
aS'purchased'
p4327
aS'this'
p4328
aS'when'
p4329
ag7
ag1738
aS'1/2hp'
p4330
aS'plunge'
p4331
aS'router'
p4332
aS'(different'
p4333
aS'name'
p4334
aS'brand)'
p4335
aS"couldn't"
p4336
aS'hack'
p4337
aS'it.'
p4338
ag47
tp4339
a((lp4340
S'The'
p4341
aS'Hitachi'
p4342
aS'M12V'
p4343
aS'is'
p4344
ag7
aS'dream'
p4345
aS'to'
p4346
aS'work'
p4347
aS'with,'
p4348
aS'smooth'
p4349
aS'starts,'
p4350
aS'adjustable'
p4351
aS'speeds,'
p4352
aS'micro-adjustable'
p4353
aS'depth,'
p4354
aS'and'
p4355
aS'plenty'
p4356
aS'of'
p4357
aS'power'
p4358
aS'to'
p4359
aS'spare.'
p4360
ag27
tp4361
a((lp4362
g2
aS"couldn't"
p4363
aS'believe'
p4364
aS'what'
p4365
ag2
aS'had'
p4366
aS'been'
p4367
aS'missing.'
p4368
ag27
tp4369
a((lp4370
S'If'
p4371
aS"you're"
p4372
aS'looking'
p4373
aS'for'
p4374
ag7
aS'3hp'
p4375
aS'plunge'
p4376
aS'router,'
p4377
aS'the'
p4378
aS'Hitachi'
p4379
aS'M12V'
p4380
aS'is'
p4381
aS'your'
p4382
aS'best'
p4383
aS'bet'
p4384
aS'to'
p4385
aS'stretch'
p4386
aS'your'
p4387
aS'equipment'
p4388
aS'budget.'
p4389
ag27
tp4390
a((lp4391
S"I'll"
p4392
aS'be'
p4393
aS'getting'
p4394
ag7
aS'second'
p4395
aS'one'
p4396
aS'for'
p4397
aS'my'
p4398
aS'router'
p4399
aS'table!'
p4400
ag27
tp4401
a((lp4402
g2
aS'have'
p4403
aS'been'
p4404
aS'impressed'
p4405
aS'with'
p4406
aS'the'
p4407
aS'power'
p4408
aS'of'
p4409
aS'the'
p4410
aS'Hitachi'
p4411
aS'M12V.'
p4412
ag27
tp4413
a((lp4414
S'It'
p4415
aS"doesn't"
p4416
aS'bog'
p4417
aS'down'
p4418
aS'under'
p4419
aS'load.'
p4420
ag27
tp4421
a((lp4422
S'Cuts'
p4423
aS'are'
p4424
aS'easy'
p4425
aS'and'
p4426
aS'smooth.'
p4427
ag27
tp4428
a((lp4429
g2
aS'use'
p4430
aS'it'
p4431
aS'on'
p4432
ag7
aS'router'
p4433
aS'table,'
p4434
aS'and'
p4435
aS'it'
p4436
aS'is'
p4437
aS'works'
p4438
aS'well.'
p4439
ag27
tp4440
a((lp4441
S'The'
p4442
aS'major'
p4443
aS'reasons'
p4444
ag2
aS"didn't"
p4445
aS'give'
p4446
aS'it'
p4447
ag7
aS'five'
p4448
aS'are:'
p4449
aS'One,'
p4450
ag2
aS"didn't"
p4451
aS'think'
p4452
aS'the'
p4453
aS'fine'
p4454
aS'adjustment'
p4455
aS'worked'
p4456
aS'well.'
p4457
ag70
tp4458
a((lp4459
g2
aS'replaced'
p4460
aS'it'
p4461
aS'with'
p4462
ag7
aS'Router'
p4463
aS'Raizer'
p4464
aS'and'
p4465
aS'it'
p4466
aS'works'
p4467
aS'much'
p4468
aS'better.'
p4469
ag70
tp4470
a((lp4471
S'Two,'
p4472
aS'the'
p4473
aS'single'
p4474
aS'wrench'
p4475
aS'just'
p4476
aS"doesn't"
p4477
aS'work'
p4478
aS'well.'
p4479
ag70
tp4480
a((lp4481
S'The'
p4482
aS'sliding'
p4483
aS'latch'
p4484
aS'is'
p4485
aS'does'
p4486
aS'not'
p4487
aS'stay'
p4488
aS'in'
p4489
aS'place.'
p4490
ag70
tp4491
a((lp4492
S'It'
p4493
aS'is'
p4494
aS'almost'
p4495
aS'all'
p4496
aS'you'
p4497
aS'can'
p4498
aS'do'
p4499
aS'to'
p4500
aS'change'
p4501
aS'bits'
p4502
aS'with'
p4503
aS'two'
p4504
aS'hands'
p4505
aS'(you'
p4506
aS'need'
p4507
aS'three).'
p4508
ag47
tp4509
a((lp4510
g2
aS'am'
p4511
aS'trying'
p4512
aS'to'
p4513
aS'purchase'
p4514
ag7
aS'second'
p4515
aS'wrench,'
p4516
aS'and'
p4517
ag2
aS'think'
p4518
aS'it'
p4519
aS'will'
p4520
aS'improve'
p4521
aS'the'
p4522
aS'function'
p4523
aS'greatly.'
p4524
ag47
tp4525
a((lp4526
S'Other'
p4527
aS'than'
p4528
aS'this,'
p4529
ag2
aS'am'
p4530
aS'very'
p4531
aS'pleased'
p4532
aS'with'
p4533
aS'the'
p4534
aS'router'
p4535
aS'and'
p4536
aS'would'
p4537
aS'buy'
p4538
aS'it'
p4539
aS'again.'
p4540
ag27
tp4541
a((lp4542
g2
aS'really'
p4543
aS'liked'
p4544
aS'the'
p4545
aS'price...'
p4546
ag27
tp4547
a((lp4548
g2
aS'use'
p4549
aS'the'
p4550
aS'Hitachi'
p4551
aS'M12V'
p4552
aS'in'
p4553
ag7
aS'router'
p4554
aS'table.'
p4555
ag47
tp4556
a((lp4557
S'It'
p4558
aS'is'
p4559
ag7
aS'little'
p4560
aS'large'
p4561
aS'for'
p4562
aS'my'
p4563
aS'table'
p4564
aS'(Rockler),'
p4565
aS'but'
p4566
aS'that'
p4567
aS"isn't"
p4568
aS'the'
p4569
aS'fault'
p4570
aS'of'
p4571
aS'the'
p4572
aS'router.'
p4573
ag47
tp4574
a((lp4575
S'Because'
p4576
aS'of'
p4577
aS'this'
p4578
ag2
aS'have'
p4579
aS'removed'
p4580
aS'the'
p4581
aS'handles.'
p4582
ag47
tp4583
a((lp4584
g2
aS'like'
p4585
aS'the'
p4586
aS'speed'
p4587
aS'control.'
p4588
ag27
tp4589
a((lp4590
S'It'
p4591
aS'works'
p4592
aS'well'
p4593
aS'with'
p4594
aS'the'
p4595
aS'larger'
p4596
aS'bits.'
p4597
ag47
tp4598
a((lp4599
S'(I'
p4600
aS'prefer'
p4601
aS'1/2'
p4602
aS'inch'
p4603
aS'bits).'
p4604
ag47
tp4605
a((lp4606
S'It'
p4607
aS'has'
p4608
aS'plenty'
p4609
aS'of'
p4610
aS'power.'
p4611
ag27
tp4612
a((lp4613
S'The'
p4614
aS'fine'
p4615
aS'adustment'
p4616
aS'knob'
p4617
aS'which'
p4618
aS'came'
p4619
aS'with'
p4620
aS'the'
p4621
aS'router'
p4622
aS'was'
p4623
aS'very'
p4624
aS'difficult'
p4625
aS'to'
p4626
aS'use'
p4627
aS'on'
p4628
ag7
aS'router'
p4629
aS'table.'
p4630
ag70
tp4631
a((lp4632
S'Finally,'
p4633
ag2
aS'gave'
p4634
aS'up'
p4635
aS'and'
p4636
ag2
aS'purchased'
p4637
ag7
aS'Router'
p4638
aS'Razier.'
p4639
ag70
tp4640
a((lp4641
S'After'
p4642
aS'getting'
p4643
aS'it'
p4644
aS'installed'
p4645
aS'(which'
p4646
aS"wasn't"
p4647
aS'an'
p4648
aS'easy'
p4649
aS'task),'
p4650
aS'it'
p4651
aS'makes'
p4652
aS'fine'
p4653
aS'adjustments'
p4654
aS'easy.'
p4655
ag47
tp4656
a((lp4657
S'The'
p4658
aS'one'
p4659
aS'wrench'
p4660
aS'systems'
p4661
aS'makes'
p4662
aS'changing'
p4663
aS'bits'
p4664
aS'somewhat'
p4665
aS'difficult.'
p4666
ag47
tp4667
a((lp4668
g2
aS'am'
p4669
aS'seriously'
p4670
aS'considering'
p4671
aS'purchasing'
p4672
aS'another'
p4673
aS'wrench'
p4674
aS'and'
p4675
aS'just'
p4676
aS'not'
p4677
aS'using'
p4678
aS'the'
p4679
aS'"sliding'
p4680
aS'wrench"'
p4681
aS'which'
p4682
aS'comes'
p4683
aS'on'
p4684
aS'the'
p4685
aS'router.'
p4686
ag70
tp4687
a((lp4688
S'All'
p4689
aS'in'
p4690
aS'all'
p4691
ag2
aS'am'
p4692
aS'pleased'
p4693
aS'with'
p4694
aS'the'
p4695
aS'router.'
p4696
ag27
tp4697
a((lp4698
S'The'
p4699
aS'power,'
p4700
aS'low'
p4701
aS'noise'
p4702
aS'operation,'
p4703
aS'and'
p4704
aS'speed'
p4705
aS'control'
p4706
aS'makes'
p4707
aS'up'
p4708
aS'for'
p4709
aS'the'
p4710
aS'problems'
p4711
ag2
aS'have'
p4712
aS'experienced.'
p4713
ag27
tp4714
a((lp4715
g2
aS'have'
p4716
aS'owned'
p4717
aS'this'
p4718
aS'router'
p4719
aS'for'
p4720
aS'nearly'
p4721
aS'five'
p4722
aS'years.'
p4723
ag47
tp4724
a((lp4725
S'Until'
p4726
aS'recently'
p4727
aS'it'
p4728
aS'was'
p4729
aS'my'
p4730
aS'only'
p4731
aS'router.'
p4732
ag47
tp4733
a((lp4734
S'Most'
p4735
aS'of'
p4736
aS'the'
p4737
aS'time'
p4738
ag2
aS'use'
p4739
aS'it'
p4740
aS'mounted'
p4741
aS'in'
p4742
ag7
aS'table,'
p4743
aS'but'
p4744
aS'obviously'
p4745
ag2
aS'also'
p4746
aS'used'
p4747
aS'it'
p4748
aS'for'
p4749
aS'hand'
p4750
aS'held'
p4751
aS'work.'
p4752
ag47
tp4753
a((lp4754
S'It'
p4755
aS'it'
p4756
aS'is'
p4757
ag7
aS'bit'
p4758
aS'heavy'
p4759
aS'for'
p4760
aS'hand'
p4761
aS'held'
p4762
aS'work,'
p4763
aS'but'
p4764
aS'any'
p4765
aS'router'
p4766
aS'this'
p4767
aS'size'
p4768
aS'will'
p4769
aS'be.'
p4770
ag70
tp4771
a((lp4772
S'Recenly'
p4773
aS'the'
p4774
aS'variable'
p4775
aS'speed'
p4776
aS'control'
p4777
aS'went'
p4778
aS'out.'
p4779
ag70
tp4780
a((lp4781
S'It'
p4782
aS'would'
p4783
aS'work'
p4784
aS'fine'
p4785
aS'for'
p4786
ag7
aS'while'
p4787
aS'then'
p4788
aS'as'
p4789
aS'the'
p4790
aS'motor'
p4791
aS'warmed'
p4792
aS'up'
p4793
aS'it'
p4794
aS'would'
p4795
aS'die.'
p4796
ag70
tp4797
a((lp4798
S'The'
p4799
aS'authorized'
p4800
aS'Hitachi'
p4801
aS'service'
p4802
aS'center'
p4803
aS'said'
p4804
aS'they'
p4805
aS"didn't"
p4806
aS'know'
p4807
aS'what'
p4808
aS'was'
p4809
aS'wrong'
p4810
aS'as'
p4811
aS'they'
p4812
aS'hardly'
p4813
aS'ever'
p4814
aS'get'
p4815
aS'these'
p4816
aS'things'
p4817
aS'in'
p4818
aS'for'
p4819
aS'service.'
p4820
ag47
tp4821
a((lp4822
g2
aS'bypassed'
p4823
aS'the'
p4824
aS'speed'
p4825
aS'control,'
p4826
aS'which'
p4827
aS'was'
p4828
aS'easy'
p4829
aS'to'
p4830
aS'do,'
p4831
aS'now'
p4832
aS'it'
p4833
aS'works'
p4834
aS'again,'
p4835
aS'but'
p4836
aS'with'
p4837
aS'no'
p4838
aS'speed'
p4839
aS'control.'
p4840
ag47
tp4841
a((lp4842
g2
aS"didn't"
p4843
aS'use'
p4844
aS'the'
p4845
aS'speed'
p4846
aS'control'
p4847
aS'that'
p4848
aS'often'
p4849
aS'so'
p4850
aS'that'
p4851
aS'is'
p4852
aS'not'
p4853
ag7
aS'big'
p4854
aS'deal.'
p4855
ag47
tp4856
a((lp4857
S'The'
p4858
aS'only'
p4859
aS'other'
p4860
aS'problem'
p4861
aS'with'
p4862
aS'this'
p4863
aS'router'
p4864
aS'that'
p4865
ag2
aS'have'
p4866
aS'encountered'
p4867
aS'is'
p4868
aS'the'
p4869
aS'plunge'
p4870
aS'action'
p4871
aS'will'
p4872
aS'start'
p4873
aS'to'
p4874
aS'stick,'
p4875
aS'then'
p4876
aS'it'
p4877
aS'needs'
p4878
aS'to'
p4879
aS'be'
p4880
aS'cleaned'
p4881
aS'and'
p4882
aS'lubricated.'
p4883
ag70
tp4884
a((lp4885
S'Overall'
p4886
aS'it'
p4887
aS'is'
p4888
ag7
aS'great'
p4889
aS'value.'
p4890
ag27
tp4891
a((lp4892
S'For'
p4893
aS'the'
p4894
aS'price'
p4895
ag2
aS"don't"
p4896
aS'think'
p4897
aS'you'
p4898
aS'can'
p4899
aS'beat'
p4900
aS'it.'
p4901
ag27
tp4902
a((lp4903
S'This'
p4904
aS'is'
p4905
ag7
aS'fantastic'
p4906
aS'tool'
p4907
aS'to'
p4908
aS'use.'
p4909
ag27
tp4910
a((lp4911
S'Only'
p4912
aS'problem'
p4913
aS'is'
p4914
aS'that'
p4915
aS'is'
p4916
ag7
aS'bit'
p4917
aS'heavy.'
p4918
ag70
tp4919
a((lp4920
S'This'
p4921
aS'is'
p4922
ag7
aS'quality'
p4923
aS'product,'
p4924
aS'not'
p4925
aS'to'
p4926
aS'be'
p4927
aS'confused'
p4928
aS'with'
p4929
aS'teh'
p4930
aS'cheap'
p4931
aS'junk'
p4932
aS'that'
p4933
aS'Hitachi'
p4934
aS'gets'
p4935
aS'manufactured'
p4936
aS'in'
p4937
aS'China.'
p4938
ag27
tp4939
a((lp4940
g2
aS'have'
p4941
aS'purchased'
p4942
ag492
aS'used'
p4943
ag870
aS'of'
p4944
aS'these'
p4945
aS'routers'
p4946
aS'in'
p4947
aS'the'
p4948
aS'past'
p4949
ag1031
aS'years.'
p4950
ag47
tp4951
a((lp4952
S'They'
p4953
aS'last'
p4954
aS'about'
p4955
ag1738
aS'1/2'
p4956
aS'years'
p4957
aS'until'
p4958
aS'the'
p4959
aS'problems'
p4960
aS'start.'
p4961
ag70
tp4962
a((lp4963
S'My'
p4964
aS'first'
p4965
aS'router'
p4966
aS'is'
p4967
ag7
aS'safety'
p4968
aS'hazard'
p4969
aS'if'
p4970
aS'you'
p4971
aS'do'
p4972
aS'not'
p4973
aS'pay'
p4974
aS'attention'
p4975
aS'and'
p4976
aS'are'
p4977
aS'not'
p4978
aS'very'
p4979
aS'careful.'
p4980
ag70
tp4981
a((lp4982
S'First,'
p4983
ag2
aS'must'
p4984
aS'say'
p4985
aS'that'
p4986
ag2
aS'am'
p4987
ag7
aS'professional'
p4988
aS'woodworker,'
p4989
aS'so,'
p4990
aS'this'
p4991
aS'router'
p4992
aS'was'
p4993
aS'used'
p4994
aS'every'
p4995
aS'day.'
p4996
ag47
tp4997
a((lp4998
S'Mainly'
p4999
aS'using'
p5000
aS'core'
p5001
aS'box'
p5002
aS'bits'
p5003
ag492
aS'bull'
p5004
aS'nose'
p5005
aS'bits'
p5006
aS'as'
p5007
aS'well'
p5008
aS'as'
p5009
aS'round'
p5010
aS'over'
p5011
aS'bits.'
p5012
ag47
tp5013
a((lp5014
g2
aS'use'
p5015
aS'it'
p5016
aS'on'
p5017
aS'woods'
p5018
aS'from'
p5019
aS'the'
p5020
aS'hardest'
p5021
aS'of'
p5022
aS'maples'
p5023
ag492
aS'osage'
p5024
aS'to'
p5025
aS'cedars.'
p5026
ag47
tp5027
a((lp5028
S'When'
p5029
aS'the'
p5030
aS'router'
p5031
aS'is'
p5032
aS'working'
p5033
aS'it'
p5034
aS'is'
p5035
ag7
aS'very'
p5036
aS'nice'
p5037
aS'machine'
p5038
aS'for'
p5039
aS'the'
p5040
aS'money.'
p5041
ag27
tp5042
a((lp5043
S'But,'
p5044
aS'the'
p5045
aS'first'
p5046
aS'one'
p5047
aS'just'
p5048
aS'stopped'
p5049
aS'working'
p5050
aS'while'
p5051
aS'pushing'
p5052
aS'through'
p5053
aS'the'
p5054
aS'workpiece.'
p5055
ag47
tp5056
a((lp5057
S'Then,'
p5058
aS'without'
p5059
aS'warning,'
p5060
aS'it'
p5061
aS'took'
p5062
aS'off'
p5063
aS'again.'
p5064
ag47
tp5065
a((lp5066
S'Luckily'
p5067
aS'the'
p5068
aS'soft'
p5069
aS'start'
p5070
aS'helped'
p5071
aS'before'
p5072
aS'it'
p5073
aS'took'
p5074
aS'the'
p5075
aS'wood'
p5076
aS'and'
p5077
aS'tossed'
p5078
aS'it'
p5079
aS'or'
p5080
aS'worse'
p5081
aS'case,'
p5082
ag7
aS'finger.'
p5083
ag70
tp5084
a((lp5085
g2
aS'use'
p5086
aS'these'
p5087
aS'routers'
p5088
aS'under'
p5089
ag7
aS'table.'
p5090
ag47
tp5091
a((lp5092
S'Outside'
p5093
aS'of'
p5094
aS'needing'
p5095
aS'an'
p5096
aS'extension'
p5097
aS'for'
p5098
aS'half'
p5099
aS'inch'
p5100
aS'bits,'
p5101
aS'which'
p5102
aS'is'
p5103
ag7
aS'problem'
p5104
aS'for'
p5105
aS'most'
p5106
aS'machines'
p5107
aS'of'
p5108
aS'this'
p5109
aS'type.'
p5110
ag47
tp5111
a((lp5112
S'Once'
p5113
ag7
aS'depth'
p5114
aS'is'
p5115
aS'locked,'
p5116
aS'it'
p5117
aS'will'
p5118
aS'jump'
p5119
aS'off'
p5120
ag7
aS'little'
p5121
aS'while'
p5122
aS'working.'
p5123
ag70
tp5124
a((lp5125
S'You'
p5126
aS'must'
p5127
aS'keep'
p5128
aS'double'
p5129
aS'checking'
p5130
aS'depths.'
p5131
ag70
tp5132
a((lp5133
S'But,'
p5134
aS'for'
p5135
aS'the'
p5136
aS'money'
p5137
aS'it'
p5138
aS'is'
p5139
ag7
aS'good'
p5140
aS'machine.'
p5141
ag27
tp5142
a((lp5143
S'Well,'
p5144
aS'my'
p5145
aS'second'
p5146
aS'one'
p5147
aS'is'
p5148
aS'now'
p5149
aS'beginning'
p5150
aS'to'
p5151
aS'hicup'
p5152
ag7
aS'bit'
p5153
aS'after'
p5154
aS'about'
p5155
ag1738
aS'1/2'
p5156
aS'years.'
p5157
ag70
tp5158
a((lp5159
S'The'
p5160
aS'electronic'
p5161
aS'speed'
p5162
aS'control'
p5163
aS'is'
p5164
aS'not'
p5165
aS'doing'
p5166
aS"it's"
p5167
aS'job'
p5168
aS'and'
p5169
aS'the'
p5170
aS'router'
p5171
aS'begins'
p5172
aS'to'
p5173
aS'speed'
p5174
aS'up'
p5175
aS'and'
p5176
aS'slow'
p5177
aS'down'
p5178
aS'at'
p5179
aS'will.'
p5180
ag70
tp5181
a((lp5182
g2
aS'am'
p5183
aS'now'
p5184
aS'waiting'
p5185
aS'for'
p5186
aS'this'
p5187
aS'one'
p5188
aS'to'
p5189
aS'stop.'
p5190
ag47
tp5191
a((lp5192
S'For'
p5193
aS'the'
p5194
aS'hobbiest,'
p5195
aS"it's"
p5196
aS'probably'
p5197
ag7
aS'nice'
p5198
aS'buy.'
p5199
ag27
tp5200
a((lp5201
S'For'
p5202
aS'the'
p5203
aS'person'
p5204
aS'that'
p5205
aS'uses'
p5206
aS'the'
p5207
aS'equipment'
p5208
aS'every'
p5209
aS'day,'
p5210
aS'pay'
p5211
aS'the'
p5212
aS'extra'
p5213
aS'and'
p5214
aS'get'
p5215
ag7
aS'reliable'
p5216
ag492
aS'safer'
p5217
aS'unit.'
p5218
ag27
tp5219
a((lp5220
S'If'
p5221
aS'this'
p5222
aS'machine'
p5223
aS'just'
p5224
aS'stops'
p5225
aS'on'
p5226
aS'you,'
p5227
aS'unplug'
p5228
aS'it'
p5229
aS'quickly'
p5230
aS'and'
p5231
aS'get'
p5232
aS'out'
p5233
aS'of'
p5234
aS'the'
p5235
aS'way!'
p5236
ag70
tp5237
a.