(dp0
S' So far, in the month that I have had it, I have had to take it in for service twice.'
p1
NsS' For about $5! 6 dollars, you can get an "extended warranty" and apple will replace the battery within 2 years if it dies.'
p2
NsS' Let me say first, that I have always been a hater of all things Apple.'
p3
NsS"IN SUMMARY: This is a good, basic player.  It's not for everyone, and if you're in the market for one I suggest that you try to put aside the huge popularity of the iPod and look harshly at the actual features that the other players on the market have, and see how they stack up."
p4
NsS' I use it to listen to language tapes and to play "Earl" by the Dixie Chicks incessantly.'
p5
NsS' I mean, it would be nice if one day, iTunes can actually offer their customers a monthly service that allows iPod owners to load their iPods up with unlimited music with one set fee, as an option to the pay-99cents-a-track path.'
p6
NsS' The product I rate five stars,'
p7
(dp8
S'product'
p9
S'+2'
p10
ssS'It DESERVES a perfect 5-stars.'
p11
NsS" I was shopping for a MP3 player recently, and had the opportunity to play with my cousin's 20GB iPod at some length to see how I liked it."
p12
NsS' The Sony Walkman and Creative Zen Touch get 30 and 24 hours per charge, respe'
p13
NsS"I just don't like it, the weird thing is, I don't know why I dislike it."
p14
NsS'Match them pretty well to boot.'
p15
NsS'It is best to protect the iPod in a case of some kind.'
p16
NsS' In conclusion, I gave the iPod a 4/5 because anything this expensive should would work just about flawlessly.'
p17
(dp18
S'iPod'
p19
S'+2'
p20
ssS'So reliability is the winner here for the iPod.'
p21
(dp22
S'reliability'
p23
S'+2'
p24
ssS'\tPure And Simple, Wonderful Stuff.'
p25
NsS'  Mac has at least cornered the mp3 player market across the board.'
p26
NsS"That's a lot of money Apple are making from a very powerful, influential and trendy product."
p27
NsS"I guess that's a pretty minor deal, but it can be annoying."
p28
NsS"There's got to be a better solution..."
p29
NsS' All in all, the good far outweighs the bad.'
p30
NsS" The problem with this is that a) it takes a LOT of time if you have many files and b) audio quality is somewhat lost (if you're an audiophile, this will bother you - frankly, I can't tell the difference)."
p31
NsS"  After talking to the salesman, I instead bought the 4G, 20GB (that stands for 4th generation; it looks like a mini - same features), and didn't know that a lot of the ipods out there for sell, including on amazon, are still 3G."
p32
NsS" Actually I had two: the first one stopped working within a month so I took it back, and they exchanged it (which is evidently pretty extraordinary - guess I lucked out.  I didn't tell them I had dropped it once)."
p33
NsS'One of the other reviewers said get the neoprene case from marware, which is great advice.'
p34
NsS" At $290 (the price I paid) it's quite a bargain."
p35
NsS" It's really no big deal to me, but is worth mentioning."
p36
NsS' The first one I received skipped songs randomly.'
p37
NsS' CUSTOMER SERVICE: Awful. Listen to this one, remember the battery statement I made earlier.'
p38
(dp39
S'CUSTOMER SERVICE'
p40
S'-3'
p41
ssS'Apple needs to step it up and get better, longer lasting batteries.'
p42
NsS'I like it.'
p43
NsS'That may be due to the fact that I used the menus a lot, and had it hooked up to the Griffin iTrip (The iTrip works great) for most of that time.'
p44
NsS' The song quality of the iPod is excellent, and the included ear buds are actually more than satisfactory, for most users.'
p45
(dp46
S'ear buds'
p47
S'+3'
p48
sS'song quality'
p49
S'+3'
p50
ssS' I have about 6 gb used on my iPod so far (well over 1000 songs), and as far as I can tell, all of them play at near-cd quality.'
p51
(dp52
S'quality'
p53
S'+2'
p54
ssS'Good sound-- Plays very nicely, even though the stock headphones are kind of weak Durable-- not the most durable because its mostly plastic, but very compact and sturdy'
p55
(dp56
S'sound'
p57
S'+2'
p58
sS'compact'
p59
S'+1'
p60
sS'Durable'
p61
S'+2'
p62
ssS'. iTunes-- this is a love-hate relationship program; usually people with Mac like this program than people with a PC, but depending on your computer expertise, this could be a difficult program to use, and it is required for an iPod.'
p63
(dp64
S'iTunes'
p65
S'+1'
p66
ssS'Because it is a hard drive, it has moving parts unlike other MP3 players, perhaps making it more prone to catastrophic damage.'
p67
NsS" That's the only advice I would give to someone considering an iPod purchase: you really may not really need 20GB or 40GB."
p68
NsS'Holy cow! It really does scratch easily!'
p69
(dp70
S'scratch'
p71
S'-2'
p72
ssS'iTunes is a great piece of software, and you can also buy songs from the iTunes Store at 99 cents per download.'
p73
NsS'iPod will change the way you enjoy music!'
p74
NsS"If you look on Google or around the web's many search engines, you can find a site that will replace the battery at a cheaper price."
p75
NsS"No inbox accessories-- An arm strap, belt strap, case, or anything would be nice, but nope... Moveable parts-- This makes me almost want to keep my 3rd gen over a 4th; with moveable parts, its easy to damage an iPod at a gym, so this is for more casual listeners; note the iPod Mini doesn't have moveable parts and is made of titanium."
p76
(dp77
S'accessories'
p78
S'-1'
p79
ssS' First, let me say that I got the 20gb iPod for Christmas, and I most likely would not have spent the $300 myself.'
p80
(dp81
S'iPod'
p82
S'-1'
p83
ssS'   I LOVE THIS IPOD!  So why, you ask, did I give it only one star?'
p84
NsS'  It was worth it, as I use it to this very day.'
p85
NsS" However, having said that, this could just be because I haven't really had enough time to experience it in its entirety."
p86
NsS"  Cons of the 40 GB: Much more expensive just for some extra space and a docking station, both of which you don't really need."
p87
NsS' For this reason, it is very easy to drop.'
p88
NsS'I Love My iPod!'
p89
NsS'The battery holds a charge for a very long time (maybe 15 or so hours of use) so realistically there are no real range or endurance issues associated with iPod use.'
p90
(dp91
S'battery'
p92
S'+1'
p93
ssS" the when i called they said they werent responsible for open packages because they couldnt verify it being open when i received it (why else would i want to return it if not for this? if the product was defective i would have complained so) and that if i returned it i would have to pay a 15% restocking fee!  i'm at my wits end with this company."
p94
NsS"I still have my Nitrus and stand by it so far - a month has nearly passed and it's still working flawlessly."
p95
NsS' This one has a color display, which I like a lot, being very visual.'
p96
(dp97
S'display'
p98
S'+2'
p99
ssS' I thought the clickwheel sounded great, but after trying it found it awkward.'
p100
NsS' This is really the only downside to the iPod - setting it up and downloading music.'
p101
NsS'THE CLICKWHEEL: Again, I realize that most people think this is the greatest thing since sliced bread.'
p102
NsS'I love the features on the iPod and the many things you can do with it.'
p103
(dp104
S'features'
p105
S'+2'
p106
ssS'Finding all the albums, songs etc is much easier than you would think it would be even if you have 20 gig (well 18 gig) worth of music.'
p107
(dp108
S'Finding'
p109
S'+2][u'
p110
ssS' My ONLY complaint thus far is the process of downloading tracks to the iPod itself - the iTunes software is really a hassle, above all else the whole concept of WMA and the faulty built-in converter'
p111
NsS' The list is endless.'
p112
NsS'I love it.'
p113
NsS'Thank you Apple!  You make fabulous products.'
p114
(dp115
S'Apple'
p116
S'+2'
p117
ssS'Anyhow, adding music to the player is easy.'
p118
NsS'  Comments: Overall this is still a great value, but is kind of overrated in the sense that there are beater deals on the market.'
p119
(dp120
S'Overall'
p121
S'+1'
p122
ssS'i didnt touch the product.'
p123
NsS' I ordered the mini from amazon, and while waiting for it to arrive I wandered into the Apple store.'
p124
NsS"I'd never had an MP3 player before, so this was a new one on me."
p125
NsS' You can also use it as an external hard drive to back-up documents, photographs, etc.'
p126
NsS" Then I had the second one in my boyfriend's car, and his car got jacked."
p127
NsS'Given that, I find the iPod solution reasonable: keep the case sealed and let the battery be changed by a technician once every 2-3 years.'
p128
NsS"The iPod does come with other nifty software accoutrements, but honestly I haven't used them much as I use the iPod to listen to music while I run or on a plane."
p129
NsS" If you want to know exclusively about the iPod, you'll find that here too!  RIO VS. IPOD  For Christmas I was given a Rio Nitrus (1.5 GB) and was extremely pleased with it."
p130
NsS"This is the best purchase I've made in a very long time."
p131
(dp132
S'purchase'
p133
S'+2'
p134
ssS"  While he's not the most careful guy in the world, it was really beat up consider the minimal amount he uses the thing, and talking to other people who have iPods confirmed that the player scratches very easily- and from personal experience, they look terrible scratched up."
p135
NsS"In the meantime, users will obviously begin to install their software - and since the charger takes up the underbelly of the iPod and USB connection to the computer, it's impossible to hook it up to your PC during installation without unplugging the charge adapter and actually turning the iPod on - which we're not supposed to do for 2 - 4 hours!"
p136
NsS'However, in my mind, $299 is a lot to pay for a device that will only last 18 MONTHS.'
p137
(dp138
S'pay'
p139
S'-3'
p140
ssS"Regardless though, it did set me back financially but now, I'm glad I have one."
p141
NsS" I had to constantly peel mine off to see which was which, so I finally just got rid of the cushions and don't even notice the difference."
p142
NsS"I had ordered a customized one from Apple.com, so I couldn't exchange it."
p143
NsS'Fortunately his insurance covered it (also extraordinary), and as luck would have it, this new gen of iPods came out the same week he got the check.'
p144
NsS"Confused yet? Don't be."
p145
NsS'  I also got to see just how utterly addicted I am to my iPod in the few weeks I had to go without one.'
p146
NsS"Not perfect, but I'm still enamored...\t I've had an iRiver MP3 player for a year or so now, and it's really great for listening to the radio."
p147
NsS' All the "cool" features of the mini, but with 20GB instead of 5.'
p148
(dp149
S'features'
p150
S'+2'
p151
ssS"First of all, I've never been big on earbuds - they're just not that comfortable."
p152
(dp153
S'earbuds'
p154
S'-2][p'
p155
ssS' PC users must have a processor of 500 MHZ or faster, Windows 2000 with Service Pack 4 or later or Windows XP, with the ports either built-in or expanded with a card.'
p156
NsS'  So I got a free 5G upgrade out of that misfortune.'
p157
NsS' One caveat I have is that I understand the iPod does not save the photos in such a way that the quality of the image is preserved.'
p158
(dp159
S'photo quality'
p160
S'-1'
p161
ssS'Two DVDs to capture all 2,400 tracks.'
p162
NsS' Not that anybody would revert back to their old-skool walkman just because you can knock it around more.'
p163
NsS"  It's very fast and easy to create custom playlists for upload."
p164
NsS'  Plus, if you order from Amazon.com, they will exchange it for you no problem.'
p165
(dp166
S'Amazon'
p167
S'+2'
p168
ssS'I have an ipod and it is a great buy.'
p169
(dp170
S'ipod'
p171
S'+2'
p172
ssS'This new click wheel iPod allows you to navigate through the menus and song via a touch-wheel for scrolling and click-able buttons for selection.'
p173
(dp174
S'click wheel'
p175
S'+2'
p176
ssS'Someone told me that he had a 40 GB iPod, and after his computer crashed he lost his paid iTunes music files.'
p177
NsS'Well reviewing a product like this is definitely complicated, because do I rate my personal connotation on it?'
p178
NsS"  *\tYou can't turn the volume up very high, but I think this might be for health reasons. *"
p179
(dp180
S'volume'
p181
S'-1'
p182
ssS'After hearing about the new Napster service for portable MP3 players, I was anxious to try it out.'
p183
NsS"Whether you're on the go or just want to lounge around the house listening to music, you could definitely do much, much worse than purchasing this durable and reliable product from Apple."
p184
NsS' I disagree.'
p185
NsS"I'm not a big audiophile, but I have no objections to how it sounds."
p186
NsS'No need to install the iTunes.'
p187
NsS'I returned my 20G iPod 7 months ago and got a Gmini instead.'
p188
NsS"The iPod's battery, 1.5 years."
p189
NsS'Yeah, pretty weak.'
p190
NsS".  But the iPod itself is totally flawless as far as I'm concerned, and the best MP3 player on the market."
p191
NsS'  The thing has survived plenty of falls with little or no damage, except the inevitable scratches.'
p192
(dp193
S'scratches'
p194
S'-2'
p195
ssS'Eventually I had to uninstall the whole works and reinstall it from scratch, and from then on it has worked like a dream.'
p196
NsS'  A lot of people go for the iPod because of its reputation, but if you honestly shop around and check out the reviews on Cnet and things like that, you can find a better 20GB HD MP3 player.'
p197
NsS' Overall, this product is AWESOME.'
p198
(dp199
S'product'
p200
S'+2'
p201
ssS' Great Design-- Very sleek and touch wheel has still never been successfully copied (vertal ones are the only competition); and now the wheel clicks, taking away a lot of headaches from 3rd gen and very navigable in the menus.'
p202
(dp203
S'Design'
p204
S'+3'
p205
ssS'A lot of this has to do with being so excited when you first get it that you get beside yourself and have to force yourself to slow down.  ;)  I love the shuffle function, which virtually eliminates the need to touch it at all.'
p206
NsS" This is definately worth the money to have, but certain aspects of it doesn't make it the best."
p207
NsS' You can put songs in multiple categories, which is great.!'
p208
NsS' Is extremely senstive to bumps and knocks.'
p209
NsS' The interface took a little getting used to.'
p210
(dp211
S'interface'
p212
S'-1'
p213
ssS'Good, But Not For Everyone'
p214
NsS"I have wanted one for a long time, but just didn't want to spend the money."
p215
NsS"Apple's iPod battery replacement service costs $100!"
p216
(dp217
S'battery'
p218
S'-2'
p219
ssS" But really, EVERYONE I've seen with an iPod leaves them off."
p220
NsS"Ask yourself how often you've seen battery covers break on consumer electronics."
p221
NsS'So, I downloaded another program (Switch freeware) and manually changed the WMA files to MP3, then downloaded them to the iPod.'
p222
NsS'  The ease of use of the iPod is a major attribute.'
p223
(dp224
S'use'
p225
S'+2'
p226
ssS'But enought of the negativity.'
p227
NsS"Other than the fact that one can't delete a file directly from the iPod, the interface is excellent and mind-numbingly simple to use."
p228
(dp229
S'interface'
p230
S'+2'
p231
sS' use'
p232
S'+3'
p233
ssS'  Think about that if you are worried about battery life.'
p234
NsS'  All in all, it does what it is supposed to do with minimal frustration.'
p235
NsS' Battery life keeps improving on the iPod, and a new iPod will give you up to twelve hours of play time, per charge.'
p236
(dp237
S'Battery life'
p238
S'+1'
p239
ssS' I would strongly recommend you get one !!'
p240
NsS"*\tThe 20 GB version doesn't actually have 20 GB, but 18.5 GB, which makes a difference of roughly 300 songs. *"
p241
NsS' Really easy to use.'
p242
(dp243
S'use'
p244
S'+2'
p245
ssS"It's still an absolutely unbeatable value for the amazing technology you're getting, so don't let a few petty cons dissaude you from owning THE coolest thing on the planet right now for any music lover."
p246
NsS'  The major change from the previous model, other than the extra 5G for the same price, is that this one is slightly smaller and lighter, and the already minimal buttons (menu, play/pause, forward and back) have now been assigned to the four quarters of the click wheel, so that even less brain power is required to search through your 10,000 stolen mp3s.'
p247
NsS'Why would they let anything compete with them when they are making millions from song downloads by iPod owners who have no other choice?'
p248
NsS"But unlike most fashion statements (if this could indeed be seen as one?) this concept is a logical one - the black cushions often cover up the letters on the earbuds that designate whether they're for your left or right ear."
p249
NsS'The ear buds that come with it look cheap, but the sound quality is amazing.'
p250
(dp251
S'sound'
p252
S'+3'
p253
ssS" I didn't think I would need more than the 5GB that the mini has, but... once I downloaded a few audio books on top of my CD's -- I'm GLAD I have the extra memory."
p254
NsS"Like I said, I've had my ipod for six short months and I'd estimate the battery life to be about four hours at the most."
p255
NsS" I haven't used it to purchase any files, so I don't know about that."
p256
NsS'It allows fast and easy navigation.'
p257
NsS" Mac is really big on streamlining everything (maybe that's why you never get a decent manual with any of their products)."
p258
NsS" They are EXTREMELY convient and you don't have to buy them seperately Has I-Tunes, which provides qulity music at low prices."
p259
(dp260
S'I-Tunes'
p261
S'+1'
p262
ssS'Most importantly because the iPods warranty is far superior to both these, the Creative Zens is only 90 days, way too short.'
p263
NsS' The iPod is a very nice product, which given reasonable care, should give a lot of service.'
p264
(dp265
S'iPod'
p266
S'+2'
p267
ssS' The only problem is the battery life.'
p268
(dp269
S'battery'
p270
S'-2'
p271
ssS"It's a good way to pass the time."
p272
NsS'Both platforms work seamlessly with the iPod.'
p273
NsS'I had similar trouble with my Soundgarden CD - the ripped tracks continually failed to convert properly to MP3.'
p274
NsS'I use my iPod all the time.'
p275
NsS'Finally, compare the iPod to other players on a cost/Gb, and also consider ease of use.'
p276
(dp277
S'iPod'
p278
S'+2'
p279
sS'use'
p280
S'+2'
p281
ssS' The only area I wish Apple had improved upon would be the screen.'
p282
NsS'The sound is INCREDIBLE; very clean, very wide dynamic range of bass, mids and highs, and can be very loud if I turn it up full blast.'
p283
(dp284
S'sound'
p285
S'+3'
p286
sS'bass'
p287
S'+3'
p288
ssS' As with most headphones that come with any type of music player,I recommend throwing these into the nearest river, unless you like having hard, round pieces of plastic in your ears.'
p289
(dp290
S'headphones'
p291
S'-3'
p292
ssS'However, after holding an ipod at circuit city, I knew I had to have one.'
p293
NsS' Also, some other MP3 players such as the Nitrus allow you to play WMA (Windows Media Audio) files, whereas the iPod does NOT.'
p294
(dp295
S'play WMA'
p296
S'-2'
p297
ssS"For Mac owners, you'll need Mac OS X 10.1.5 or later (10.3.4 or later is recommended) and your machine must have the appropriate ports built-in."
p298
NsS'It takes seconds to work the menus and go from song to song.'
p299
NsS"Don't get this...keep browsing."
p300
NsS'The first install did not work correctly and would never transfer music to the iPod (but did allow me to register with Apple and load songs into iTunes).'
p301
NsS' Features: click wheel to navigate; ability to work with Windows or Mac; optional backlighting (you can have it on all the time, or have it shut off to save battery power after 5, 10, or 20 seconds); ability to download PDA info; automatic or manual download from iTunes when iPod is plugged into your computer.'
p302
(dp303
S'wheel'
p304
S'+2'
p305
sS'iTunes'
p306
S'+2'
p307
sS' backlighting'
p308
S'+2'
p309
ssS" With the iPod, you can also store documents and contact files (from programs such as Microsoft Outlook) when it's connected to your PC as an external hard drive."
p310
(dp311
S'hard drive'
p312
S'+1'
p313
ssS'They have the nerve to charge you $30 for a warrantied iPod.'
p314
NsS' Has a great helpline.'
p315
(dp316
S'helpline'
p317
S'+2'
p318
ssS'There is no FM tuner, while there is no FM tuner on the Creative Zen (on the micro version of the Zen there is a tuner), the iRiver H10-20GB, the Rio Karma, and the iAudio X5 have FM tuners.'
p319
(dp320
S'FM tuner'
p321
S'-3'
p322
ssS' I go everywhere with it, on campus, in the gym and at work too !'
p323
NsS"iRiver's battery lasts four to five years."
p324
NsS'  The only thing that protrudes slightly is the "hold" switch.'
p325
NsS" Finally, if your battery gives out, you can use any number of reputable iPod services to swap it out for <$50 and you're good to go for another 2.5 years (or longer if battery technology improves.)"
p326
NsS' The backlit screen of the iPod is also easy to read.'
p327
NsS' Wow... just less than 15 minutes and the back of it already has a scratch!'
p328
NsS' I had the 15G iPod of the previous incarnation.'
p329
NsS' No Memory Stick slots-- Although a rare feature, it would be nice to have extra storage, not that it needs it Built-in Lithium Battery-- A huge hassle to bring this back; draining the battery once you get it helps, but removable/replaceable ones are a lot more convenient'
p330
(dp331
S'Battery'
p332
S'-2'
p333
sS'Memory Stick slots'
p334
S'-2'
p335
ssS'  It charges quickly and holds a charge for a very long time.'
p336
NsS' I wish I had a long time ago.'
p337
NsS'In addition, I do not think the battery lasts much more than eight to ten hours, and it can take four hours for a full charge.'
p338
(dp339
S'battery'
p340
S'-2'
p341
ssS" I have less than 3 GB worth of music, and I don't have any more music in my collection."
p342
NsS" Although iPods have been around for a few years, they didn't really get hot until now."
p343
NsS' If this sounds confusing, just make sure you have your iPod plugged in when you install the iTunes software!'
p344
NsS' But is it worth all the hype?'
p345
NsS'While they have released those "tattoos" for the players, I think those just look cheap and gaudy, especially since they leave the corners of the iPod exposed.'
p346
NsS'When I finally got it, I was amazed by how asthetically pleasing everything was, including the packaging.'
p347
NsS'You can transfer music from one PC to the other.'
p348
NsS" I'm writing about the 4G IPOD 20GB model."
p349
NsS' Be sure you test this first to see if it does feel intuitive for you, rather than just going on the fact that it does sound pretty neat.'
p350
NsS"Hold Button-- suprisingly not all MP3s have this; this allows you  to have all the buttons unusable, so that you don't accidently hit something in your pocket."
p351
(dp352
S'Hold'
p353
S'+1'
p354
ssS' It sounds 10 times better if you use the little black foam cushions that slip over the buds.'
p355
NsS' Way to go Apple!'
p356
(dp357
S'Apple'
p358
S'+2'
p359
ssS' The sound quality is excellent, accessing the music is easy, and the controls are generally well thought out.'
p360
(dp361
S'sound'
p362
S'+3'
p363
sS'controls'
p364
S'+2'
p365
ssS"The biggest red flag for me was the fact that although my cousin's player was relatively new, it was riddled with scratches."
p366
(dp367
S'scratches'
p368
S'-2'
p369
ssS'For looks, well iPod is head and shoulders better, both the iRiver and Creative Zen look positively ugly when next to a gleaming iPod.'
p370
(dp371
S'looks'
p372
S'+2'
p373
ssS" And I'm really not that rough with things!"
p374
NsS" Doesn't have alot of good games on it."
p375
(dp376
S'games'
p377
S'-1'
p378
ssS'Does not come with the dock, remote control, or carrying case like the 3rd generation units - but you get $100 off the price, so you can still end up with the same accessories, and a new generation iPod for the same money.'
p379
NsS' This is the first line of Apple products I have owned (we also have an iPod mini and are about to purchase a shuffle).'
p380
NsS" As for iTunes, I don't find it to be as good as the Windows Media Player as a computer mp3 player, but it is good enough."
p381
(dp382
S'iTunes'
p383
S'+1'
p384
ssS'but I had to give you four because the service for my brand-new iPod was terribly slow.'
p385
(dp386
S'service'
p387
S'-2'
p388
ssS'Amazing.'
p389
NsS'  With accessories, you can make the iPod into a digital recorder, broadcast it remotely through stereo speakers using wireless technology, and play it through your car speakers using either a CD adaptor or FM stereo broadcaster.'
p390
(dp391
S'accessories'
p392
S'+1'
p393
ssS'I was worried about what the sound quality would be like, but that seems to be just as good as the actual CD sound.'
p394
(dp395
S'sound quality'
p396
S'+2'
p397
ssS' Pros: Large Hard Drive for the $$-- 20GB and 40GB are both affordable.'
p398
(dp399
S' affordable'
p400
S'+2'
p401
sS'Hard Drive'
p402
S'+2'
p403
ssS' The iPod package comes with everything you need, the AC adaptor, firewire cable (quicker than USB, but slower than USB 2 which it also gives), those snazzy and powerfull headphones, and of course the player.'
p404
(dp405
S'package'
p406
S'+2'
p407
ssS' I am a total iPod addict.'
p408
NsS'  These are nice ones, and you get great sound at first, but again, they break if you even think mean things about them.'
p409
NsS'Or simply rate its performance in relation to other products?'
p410
NsS'I love the slim design; the weight would only be an issue if it were bulky.'
p411
(dp412
S'design'
p413
S'+2'
p414
ssS' Quite simply, BUY THE IPOD, whatever size you wish.'
p415
NsS' In fact you may get a newer-better-cheaper device before you get to that point.'
p416
NsS" There technical service isn't helpful either; they just read what's on their website and charge you $50 (+ toll fees) to do it."
p417
(dp418
S'technical service'
p419
S'-3'
p420
ssS'Versatile and stylish.'
p421
(dp422
S'Versatile'
p423
S'+2'
p424
ssS"However, it fell into one of Apple's worst reputations."
p425
NsS"It's a plug n play device, recognized as MASS STORAGE DEVICE on any windows xp computer."
p426
NsS' What was the biggest must-have item of 2004?'
p427
NsS'The Click Wheel is a great design, something no one else came up with (however, the iRiver has a touchpad).'
p428
NsS"iRiver's seems a lot more sturdier than the iPod's."
p429
NsS" It's a lot of fun and really tests your reflexes."
p430
NsS' I was quite happy after months of saving part of my pay-check to go to the store and finally get an iPod.'
p431
NsS" Think about it for a minute - the 20 GB holds 5,000 songs: more than you're ever likely to need at any one time."
p432
NsS'Do your research before you buy it, and especially talk to other owners.'
p433
NsS'  Buy the 20GB instead of the Mini'
p434
NsS' When this happens I have to toggle the lock switch on and off to get it to work properly.'
p435
NsS'The bass is deep and the treble is clear.'
p436
(dp437
S'treble'
p438
S'+2'
p439
sS'bass'
p440
S'+3'
p441
ssS' I recommend Shures (shure.com).'
p442
NsS' So it was not any surprise that I could not try out this new type of service.'
p443
NsS' The I-Pod certainly helps me with my music and I can take it anywhere with me.'
p444
NsS"The thousands of songs at your fingertips thing, you just can't beat that with a stick."
p445
NsS'Hard drive screws up occasionally'
p446
(dp447
S'Hard drive'
p448
S'-1'
p449
ssS' To be sure, I am not looking forwards to paying for the battery replacement, whenever that may come.'
p450
NsS' Organizing music is a breeze too.'
p451
NsS' The!  sound quality is great.'
p452
(dp453
S'sound quality'
p454
S'+3'
p455
ssS'Both are EXTREMELY user friendly and take minutes to get used to.'
p456
NsS'The actual experience of USING the iPod is magnificent.'
p457
(dp458
S'USING'
p459
S'+2'
p460
ssS'After a year, your battery is dead and you need to replace it with a new one.'
p461
NsS'great product with Limited Services'
p462
NsS" Now if you do decide to take the iPod on the road, my suggestion is to forego any purchasing of the FM Transmitter devices, unless you live out in the middle of Mississipi because frankly, you'll need a next-clear FM channel on your radio to get any sembelance of a clear signal."
p463
NsS" held out for the 4th generation 20GB iPod when I heard that it was coming equiped with the 'click wheel', that had previously only been available for the iPod 'mini'."
p464
NsS'then when i argued with them they told me that they would pick it up.'
p465
NsS"There's no two ways about it, I have been less than impressed with my own iPod 20 GB when it arrived two weeks ago."
p466
NsS'This is a great device, but there are its pros and cons.'
p467
NsS'There\'s even an equalizer (under "settings") that allows you to adjust the sound for acoustic, bass booster, bass reducer, classical, dance, "deep", and electronic.'
p468
(dp469
S'equalizer'
p470
S'+2'
p471
ssS' The only other problem I have noticed is that on some uploads it will switch around CD song titles (all on the same artist, it just mixes up the titles).'
p472
NsS'God Save Apple\t I have been an Apple person since 1984, when I got my first Mac.'
p473
NsS"This is really stupid to me. 18 months for a battery isn't good, actually, it's medicore."
p474
NsS"  EASE OF USE/DESIGN: The iPod is a very easy to use MP3 player, and if you can't figure this out, you shouldn't even own one."
p475
(dp476
S'use'
p477
S'+3'
p478
ssS"A lot of the reviews I've read talk about IPODS in general."
p479
NsS"  Of course, once the songs are converted, you don't have to worry with them again."
p480
NsS'  The weight is heavier than many digital players, but I like the solid feel.'
p481
(dp482
S'solid feel'
p483
S'+2'
p484
sS'weight'
p485
S'-1'
p486
ssS"I found that to be the most impressive thing about the iPod 'mini' - basically for ease of use, and the feel it gives."
p487
(dp488
S'use'
p489
S'+2'
p490
ssS"Don't apply the black cushioned protectors."
p491
NsS'The problem with my iPod.'
p492
NsS" If you plug your iPod into a PC and try to upload music/etc. it won't work."
p493
NsS'The iPod has so far been one of the most advertised and populated MP3 players so far.'
p494
NsS"  It's the biggest pain in the rear end of all the cons, without a doubt."
p495
NsS'I love that it allows you to stop and turn it off in the middle of a song if need be, and when you power it back on it will continue right where you left off!'
p496
NsS' I mean, for music buffs and archivists - use your PC as the archive, not the iPod!'
p497
NsS' The box comes with iPod, ear buds, iTunes and iPod software, USB 2.0 and FireWire cables, and a home charger.'
p498
NsS'Also, I don\'t like how when I first set up my iPod, it took me about four hours to get everything going - the new iTunes software has an exploited flaw which is that if you do not connect your iPod to your PC during installation, it will not configure the iPod, and when you later plug it into your computer the PC will recognize it as an external device rather than an actual iPod, and you will not be able to use the iTunes software until you access your device manager and change the iPod "hard drive" to a new letter.'
p499
NsS'  Again, another hassle.'
p500
NsS'Get an ARCHOS Gmini400 instead\t If you are doing your research and thinking whether iPod is right for you...      give the ARCHOS Gmini400 a look.'
p501
NsS' This has been the case with all other competing music services and Napster.'
p502
NsS"  This was obviously a conspiracy as it is FREAKIN' EASY to manufacture a device with replaceable batteries!!"
p503
(dp504
S'batteries'
p505
S'-3'
p506
ssS' Its steel backing picks up fingerprints and scratches easily, not great from a cosmetic standpoint.'
p507
(dp508
S'steel backing'
p509
S'-2'
p510
ssS" the 20 gig because that holds 10,000 songs right there and that's alot of songs."
p511
NsS'  I have transferred in about 2,400 tracks so far - very easy to use both the Ipod and iTunes.'
p512
(dp513
S'use'
p514
S'+2'
p515
ssS" I still give the iPod five stars, though, as it could have been something I did incorrectly during the install (though I did follow the onscreen prompts) so I'll give Apple the benefit of the doubt."
p516
(dp517
S'iPod'
p518
S'+3'
p519
ssS"The battery issue is superficially a concern, but any reasonable solder-jockey (such as myself :-) can pop in a new one when the time comes (based upon the plentiful info gained from a google for 'ipod battery replacement')."
p520
(dp521
S'battery'
p522
S'-1'
p523
ssS'The iRivers is also short, and lets face it, what is more likely to brake or go wrong, the Apple iPod or Creative Zen, iRiver.'
p524
NsS' With both pairs I had ceramic rattling in my ears by month two.'
p525
NsS"  My earlier generation (15Gb) iPod lasted two years, shortened by my own inattention to the simple maintainence asked by Apple (go through at least one charging cycle per month, and don't store the iPod in a car on a summer day because high temp. is harmful to the battery's life)."
p526
NsS'This is only a problem at night, during the day the screen is very easy to see.'
p527
(dp528
S'screen'
p529
S'-1'
p530
ssS"  PC users have a lot of choices, but based on what I've heard and read, the iPod really is the best all-around, athough being a Mac product, it has the usual streamlined and comparatively less customizable software."
p531
NsS' I am so in love with this thing I can hardly stand it.'
p532
NsS' Its sleek design, large memory capacity, compatibility with iTunes, and ease of use makes this one of the best portable digital listening devices on the market.'
p533
(dp534
S'iTunes'
p535
S'+2'
p536
sS'capacity'
p537
S'+2'
p538
sS'design'
p539
S'+2'
p540
ssS' While all MP3 players are easy to scratch, the iPod is the worst of the Creative and iRiver.'
p541
NsS" The user support service isn't too great either."
p542
(dp543
S'support service'
p544
S'-2'
p545
ssS'I have a ton of cds and I make a mess trying to organize them into things.'
p546
NsS"You can adjust the time the backlight stays on (or turn it off completely), so it's only a minor issue."
p547
NsS'The iPod is not overpriced compared to the market.'
p548
(dp549
S'iPod'
p550
S'+2'
p551
ssS" It's well worth it, the mp3s do in fact sound better."
p552
NsS'So far it has worked out great\t I'
p553
NsS" It's small and lightweight, but it has very little storage space and the shape is clunky."
p554
NsS'If you want colour screens, photos, videos etc, buy the latest (extremely expensive) model, I think the new 60GB has all the extras.'
p555
NsS'  The click wheel is incredibly convenient, however it can be a little overly touchy at times, which will make you frustrated with your own fingers.'
p556
(dp557
S'click wheel'
p558
S'+2'
p559
ssS" So dissapointing, however I am now just gonna assume it's gonna get pretty niceley scratched over the years and I'll just have to live with it... and i will buy a case for it tomorrow... I mean heck I intended to get the case tomorow anyway but now it feels like the thing might even scratch IN THE CASE.. Other than that I am super extied about this product... I will update the review later in a few days..."
p560
NsS' they initially told me that i would have to ship it back to them on my own cost.'
p561
NsS' The outlook is a little clunky to use on the ipod, but it is functional.'
p562
NsS"Apple closed their island to anything that resembled Microsoft, and clearly let Napster know it could not use their products with Napster's services."
p563
(dp564
S'Apple'
p565
S'-2'
p566
ssS'Perhaps over time I will fill it up, but with almost 250 songs on my iPod now and less than 1GB used, I have a long way to go.'
p567
NsS'  It all sounds great too.'
p568
(dp569
S'sounds'
p570
S'+3'
p571
ssS'The backlight helps out at night, but can be a drain on the battery.'
p572
NsS"You've earned a new fan."
p573
NsS' Pros Holds a ton of music.'
p574
NsS'Now, I can back up what little I  keep on my computer quickly and without a fuss.'
p575
NsS' This unit comes with the USB/firewire cable as a standard item now.'
p576
(dp577
S'firewire'
p578
S'+1'
p579
sS'USB'
p580
S'+1'
p581
ssS'Both from unspecialist makes, and in Creatives case a company that deals mostly in computer parts, and has not invested the money that Apple has.'
p582
NsS' The sound is just fine.'
p583
(dp584
S'sound'
p585
S'+1'
p586
ssS'I also have been using it as a USB device, which just tickles me no end.'
p587
NsS'The music MUST be on your computer.'
p588
NsS'This version does not come with a dock, although it can be added later as an accessory.  Y'
p589
NsS' Still my favorite MP3 player\t Is it overpriced ?'
p590
NsS'However, he quickly helped me, and I have been enjoying my replacement 20 gigabyte click-wheel iPod for several months now.'
p591
NsS' There is an alarm and timer, but most MP3 players have this feature.'
p592
NsS'First of all, no one does this and it will make you stand out and look "uncool."'
p593
NsS'Burning CDs from iTunes is much easier than the Windows Media Player, which I was previously using.'
p594
NsS'  Cons Breaks easily.'
p595
(dp596
S'Breaks'
p597
S'-2'
p598
ssS'Everything I Wanted! The Apple iPod has become one of the most sought-after electronic gadgets - and for good reason.'
p599
(dp600
S'iPod'
p601
S'+2'
p602
ssS' I can take it to Work, School, and even listen to it at my computer.'
p603
NsS' BATTERY: Compared to the other players on the market, the iPod has one of the worst batteries around.'
p604
(dp605
S'BATTERY'
p606
S'-3'
p607
ssS' Hence, the one star rating...'
p608
NsS" However, the Creative and iRiver players are (Rio's isn't), and they only cost around $30 to replace, while iPod charges shipping and technical support."
p609
NsS' FireWire & USB2.0-- For those fortunate enough to have FireWire400, your in for a real treat with autosync.'
p610
(dp611
S'FireWire'
p612
S'+3'
p613
sS'USB'
p614
S'+3'
p615
ssS'But seriously though, how bout we work on the durability thing for the next gen.'
p616
NsS' If you listen to the iPod four hours per day and you get 10 hours per recharge cycle (not the full twelve specified by Apple) then the iPod will give you over 2.5 years of daily listening.'
p617
NsS" The thing is, naturally you're going to use your iPod at the gym or whatever, and it can be a bit of a liability because you always feel like you have to protect it."
p618
NsS' Battery non-issue.'
p619
(dp620
S'Battery'
p621
S'+2'
p622
ssS'  Overall the iPod really is an almost flawless beast. The capacity in the 20 GB is more than I think most people would ever need and, for the price, I highly recommend it.'
p623
(dp624
S' price'
p625
S'+2'
p626
sS'iPod'
p627
S'+2'
p628
sS' capacity'
p629
S'+2'
p630
ssS' There is no photo viewing option, however, there is a 20 GB photo iPod, but it costs $20 more.'
p631
(dp632
S'photo viewing'
p633
S'-1'
p634
ssS' The iPod batteries can go through a full recharge cycle 400 times.'
p635
NsS'But all you need to do is convert the files (besides mp3s are larger and better quality files than wmas) using a wide range of convertors, my favourite is the dBPowerAmp Music Coverter which also allows you to burn directly from cd to hardrive in mp3 format unlike Media Player.'
p636
NsS"My friend has this unit while not experience it much, I look at other reviews on this site and tried out the unit at Best Buy, and it's definitely the most overrated gadget in history."
p637
NsS' You pay $300 for the iPod itself, then $100 to get the battery fixed.'
p638
NsS'As a student, I spend a significant amount of time on my laptop and am used to scrolling up and down on the touchpad, which made the Creative Zen Touch a more attractive product for me.'
p639
NsS'Also included in the "games" section is the great music trivia option - which tests your skill at being able to quickly place your own songs.'
p640
(dp641
S'games'
p642
S'+1'
p643
ssS'Decent Battery-- On the average size, but the 40GB comes with a dock.'
p644
(dp645
S'Battery'
p646
S'+1'
p647
ssS"At an average of 14 cuts per CD, that's over 350 CD's."
p648
NsS' The first time I took it in the car, and was able to chose from hundreds of CD titles, thousands of songs, to have all of that at my fingertips was a great experience.'
p649
NsS" Maybe because it doesn't have a lot of skins to choose from like WMP, but then again, I dislike WMP as well because it's slow on my computer."
p650
NsS'As a Windows user, I had to install the software including drivers and iTunes on my desktop, and this is the only area where I encountered a nuisance.'
p651
(dp652
S'iTunes'
p653
S'-1'
p654
ssS'I rarely get drawn in by mass-commercialism, but something about the iPod made me say, in the words of Lou and Andy, "I WANT THAT ONE!" I was willing to shell out'
p655
(dp656
S'iPod'
p657
S'+2'
p658
ssS' We can start by losing the shiny miracle-material cover that you can literally scratch just by looking at it wrong, and thus eliminate the need for third-party "iSkin" protective covers for an extra thirty bucks.'
p659
(dp660
S'scratch'
p661
S'-2'
p662
ssS"  If there were any complaints I have, they are marginal, but one is Apples' properietary set-up for music files, their incompatibility with other music services (i.e. Napster) is down right wrong."
p663
(dp664
S'proprietary'
p665
S'-1'
p666
ssS'All in all, this is a wonderful device.'
p667
(dp668
S'device'
p669
S'+2][p'
p670
ssS' Sound quality is more dependant on the quality of the original source and of the unit used to broadcast (headphones, stereo, etc).'
p671
NsS"Also, a word of warning, hide the White Earbud headphones, because they are the most noticable earphones ever and your precious I-Pod could be stolen from you if you don't take steps to hide it from view of other people."
p672
NsS'The included earphones are pretty good - my advice?'
p673
(dp674
S'earphones'
p675
S'+1'
p676
ssS'They were on his iPod, but the device would not let him upload the files onto his new computer; and after he tried, the iTunes software deleted the files from his iPod, assuming they were stolen (?).'
p677
NsS' You can even use the ipod to store files from your pc and export your outlook files to it.'
p678
(dp679
S'store'
p680
S'+2'
p681
ssS"It's just my personal advice but you're saving a lot of money and from personal experience the docking station is really sort of a rip-off - based on the sleek design of the iPod, it's very easy to simply lay it down without damaging it or anything."
p682
NsS' Very sturdy and strong.'
p683
(dp684
S'sturdy'
p685
S'+2'
p686
ssS'  I have almost dropped the ipod several times, just because it is so smooth.'
p687
NsS'  I use mine mostly at the gym, so this is fantastic for me.'
p688
NsS'It comes with an adapter to plug into the wall, which I hear is a step up from the other iPods, which require you plug it into a computer to charge it.'
p689
(dp690
S'adapter'
p691
S'+1'
p692
ssS' Unless you have an enormous music/audio book library, the 20 GB model should have more than adequate storage capacity, with a stated ability to hold 5000 songs.'
p693
(dp694
S'capacity'
p695
S'+2'
p696
ssS" These issues aside, the iPod is kind of like the cell phone in that once you have one, you can't be without one."
p697
(dp698
S'iPod'
p699
S'+2'
p700
ssS' After about 3-4 months, you see your battery draining faster than it should.'
p701
NsS' i called circuit city and complained that they had sent me an already opened box.'
p702
NsS'Considering the fact that just about any CD you purchase and "rip" to your hard drive will be formatted as a WMA file, iTunes version 4.5 (included with new iPod releases) contains an auto-converter that converts WMA to MP3 for iPod compatability.'
p703
NsS' Needless to say, these are fragile machines.'
p704
NsS'However I looked up some consumer reviews online only to find out it had the shortest warranty of any MP3 player on the market, and was notorious for having poor customer service and completely breaking after 90 days (when the warranty expires, surprise, surprise).'
p705
NsS"  At first I primarily used it as a stand-alone portable player but it wasn't until I decided to take it in my car and use it to play back music that I truly adored this device."
p706
NsS' I had initially been planning on buying this or another Apple product, but since decided to buy a player made by a different manufacturer.'
p707
NsS'Long live Apple, long live Macs, and long live the Ipod!'
p708
(dp709
S'Apple'
p710
S'+2'
p711
ssS' I have several hundred songs from burned albums, at they all worked fine.'
p712
NsS'  THE CONS OF THE IPOD  There are a few advantages to the Nitrus.'
p713
NsS' I used it mainly on shuffle play and shut off the "click" sound to get this much life out of it.'
p714
NsS" I'm sure future generations of the iPod will be able to carry much more, probably even videos."
p715
NsS' Has the click wheel and the ability to scan through thousnds of songs and organizes them great.'
p716
(dp717
S'click wheel'
p718
S'+2'
p719
ssS' To see a great little short film about this, go to ipodsdirtysecret.com  ##Basically, this is a disposable device, the idea being that when the battery goes out, you will buy the latest model of ipod.'
p720
NsS'No big deal.'
p721
NsS'  Apple provides a good discussion of the battery technology at www.apple.com/batteries (and this web address is noted in the iPod manual)'
p722
NsS' Yep, the iPod.'
p723
NsS"I'm still figuring out why."
p724
NsS'If you call apple and tell them your ipod has been damaged, they charge you roughly $105.50 per minute and blame you for "abusing" your ipod.'
p725
(dp726
S'apple'
p727
S'-2'
p728
ssS' You must buy some sort of protective case unless you want your ipod to look like some crazed animal with ten inch nails attacked it.'
p729
NsS'  Overall, I think the iPod is a good player, although I would note some features that turned me off:'
p730
NsS'  I am so impressed with the iPod that our next purchase will likely be a Mini Mac.'
p731
NsS"At least Creative and iRiver's only charge toll fees like most companies."
p732
NsS' This review will contain some comparisons to other MP3 players (mainly the Rio Nitrus) for interested consumers.'
p733
NsS" I look at iPod owners today and quietly feel sorry for them. :) They just didn't know about the ARCHOS gmini400."
p734
NsS'Buyer beware!'
p735
NsS"And it's easily connected to a Linux or FreeBSD machine for loading and unloading files, so I can also retire my ZIP drive."
p736
NsS" The battery life lastes 12 hours, and charges quickly. (As mentioned above, the initial charge is a minimum of only two hours - not too long at all!) Once you've downloaded your music, you can access the tracks by artist, genre, album, composer (this comes in handy when the actual composer is different from the artist - e.g. covers of songs), etc."
p737
(dp738
S'battery'
p739
S'+2'
p740
ssS' The entire database is set up flawlessly and really works well.'
p741
NsS"  THE PROS  The bad ends here, because as far as I'm concerned the rest of...well...everything concering the iPod is an enormous PLUS!"
p742
NsS' Another thing you should know, the metal on the flip side of the iPod is very tacky, and scratches very easily.'
p743
(dp744
S'flip side'
p745
S'-2'
p746
ssS'buyers BEWARE!'
p747
NsS'when i got the ipod, i slid the box out of its sheath and the whole thing tumbled out!'
p748
NsS"  But since a lot of these MP3 players are marketed on aesthetics, do go to your local store or borrow a friend's and see how the product actually feels and works."
p749
NsS'The Ipod is a fine cousin to the early macs and current offerings from Jobs and Company.'
p750
(dp751
S'Ipod'
p752
S'+2'
p753
ssS"Since nothing is perfect, the iPod does have some disadvantages, such as its reliance on iTunes to download music (if you hate iTunes, don't buy an iPod!)."
p754
NsS'I loaded a lot of photos into it and they display very clearly for such a small screen and, very importantly, the transition from one photo to the next is instantaneous.'
p755
(dp756
S'photos'
p757
S'+2'
p758
ssS' Maybe this new design is more durable than the last, but I kind of doubt it.'
p759
(dp760
S'design'
p761
S'-2'
p762
ssS' The back of the iPod is in a chrome finish, and this surface is prone to scratches.'
p763
(dp764
S'scratches'
p765
S'-1'
p766
ssS' The best thing for anyone to do who has not used one is to ask the store clerk at apple or a teenager for advice on how to operate it.'
p767
NsS"Someone wrote that they haven't been able to upload songs from burned cds; I have not found this to be so."
p768
NsS' Cons: No AM/FM Radio Tuner-- Something a large number of competetors are doing'
p769
(dp770
S'Radio Tuner'
p771
S'-2'
p772
ssS'  If Apple makes no attempt to at least create an equivalent type of service, they are failing to compete with the market.'
p773
NsS' You  will need a computer with a six-pin FireWire or USB 2.0 port (USB 1.1'
p774
NsS"I don't really intend to drop mine to find out."
p775
NsS'Very Pleased.'
p776
NsS"  My only complaint (really more of an observation) is that the outside finish of the iPod is rather delicate, so I am going to get a case for mine so it doesn't get all scratched up."
p777
(dp778
S'outside finish'
p779
S'-2'
p780
ssS' However, with the iPod you cannot.'
p781
NsS'You can use it to listen to music or audio books, either downloaded via the internet or added to your music library using your CD drive.'
p782
NsS' The ipod itself is very pleasing to hold with its smooth surfaces.'
p783
NsS' the packing inside was in tatters.'
p784
NsS'Would be FIVE STARS, except for MAJOR FLAW'
p785
NsS" The design, as mentioned above, is sleek, cool and trendy (and I think trendy = good, but it's always hard to tell these days)."
p786
(dp787
S'design'
p788
S'+2'
p789
ssS" I set my sights on this super sexy iPod and didn't stop until I finally had one in my hands."
p790
NsS'This is good for the businessmen who listen to music on their commute and can rely on the iPod to even carry around some of their word documents.'
p791
NsS'It was worth the wait.'
p792
NsS'The game plays a segment of a song, and gives you a multiple-choice list wherein you have a short period of time to choose the title of the song from a list of others.'
p793
NsS' a week passed but it was never picked up.'
p794
NsS"  What's great about this is that it's a game based on YOUR music."
p795
NsS" The iPod is a little more weighty than I expected, but it's not unmanageable."
p796
NsS" There is also no voice recording, something most if not all MP3 players have that the iPod doesn't."
p797
(dp798
S'voice recording'
p799
S'-3'
p800
ssS"Also, the battery's AREN'T USER REPLACEABLE."
p801
(dp802
S'Replaceable battery'
p803
S'-3'
p804
ssS'The Gmini is like an iPod VIDEO, PHOTO, GAME, MUSIC, all into ONE and it is exactly the same size as the iPod...      and you can play any MP3 directly and fresh from the NET...     oh yeah, even audio books, anything!'
p805
NsS"Also, you have to use it with iTunes - or they'll sue, dammit!  But iTunes is about as good as anything."
p806
(dp807
S'iTunes'
p808
S'+1'
p809
ssS'   Backing up your iTunes library takes a short amount of time.'
p810
NsS' Also, not liking the gel case.'
p811
(dp812
S'case'
p813
S'-2'
p814
ssS"The arm band is fantastic and it doesn't budge even at the gym."
p815
(dp816
S'arm band'
p817
S'+2'
p818
ssS"  And if you're a Mac user like me, they've naturally made sure you have no viable alternative."
p819
(dp820
S'alternative'
p821
S'-1'
p822
ssS" I love scrolling through the menus - that may sound strange but that's how FUN using the iPod actually is!"
p823
NsS" FEATURES: Really, there aren't any features, unless you call the games a feature."
p824
(dp825
S'features'
p826
S'-3'
p827
ssS'  I would strongly recommend the iPod over rival mp3 players such as the Creative Zen and the creatively named iRiver.'
p828
NsS'The first battery charge lasted only about six hours.'
p829
NsS" My only nitpick with this is that it sometimes doesn't work on certain files and presents error messages."
p830
NsS'(It sure does look nice, though!)  I recommend this to any music lover anywhere: the quality of the audio is excellent, the controls and indicators rapidly become intuitive, and the storage capacity and battery life are huge!'
p831
(dp832
S'capacity'
p833
S'+2'
p834
sS'quality of audio'
p835
S'+2'
p836
sS'controls'
p837
S'+2'
p838
ssS'  As far as an actual player is concerned, the iPod is next to none.'
p839
NsS' Warranty expires only after a year.'
p840
NsS' However, you should still buy an iPod!'
p841
NsS" It is very closed to services and programs outside of Apple's small (though luxiourious, admittedly) island."
p842
NsS'It holds a ton of songs and looks cool in the palm of your hand.'
p843
NsS' I love my new iPod!'
p844
NsS"SOUND QUALITY: The iPod's sound quality is pretty good."
p845
(dp846
S'sound'
p847
S'+2'
p848
ssS"  DURABILITY: Not good. First problem, if you haven't seen the news recently, the iPods are being recalled for battery problems and not lasting the advertised 18 months."
p849
(dp850
S'battery'
p851
S'-2'
p852
ssS'iPod is brilliant, but service was awful'
p853
(dp854
S'iPod'
p855
S'+3'
p856
sS'service'
p857
S'-2'
p858
ssS" Apple is already being outpaced by Creative Labs and Sony on the battery front, and just about any non-Apple player allows you more compatibility with download services than Apple's iTunes-only program."
p859
NsS" It's got LOTS of pros, and a couple minor cons, which I will outline below."
p860
NsS"  However after purchasing a 20 GB iPod it's clear to see the superiority."
p861
(dp862
S'iPod'
p863
S'+2'
p864
ssS'Decently Sized Screen-- One of the larger ones on the market at 2"'
p865
(dp866
S'Screen'
p867
S'+2'
p868
ssS' The one advantage the iRiver has is it can play wma files aswell as mp3s, unlike the iPod.'
p869
NsS'The software with the iPod includes iTunes, which allows you to play the music on your computer, rip CDs onto your computer, and move your music from the computer to the iPod.'
p870
(dp871
S'iTunes'
p872
S'+2'
p873
ssS"  This is a hassle, of course, but I'm not sure if the problems are to blame on poor construction, cold weather, or misuse by yours truly."
p874
NsS'About 1/2 inch thick, with the face dimensions the size of a credit card, it can be slipped in a pocket or carried easily in the han!d.'
p875
NsS' A sound decision and a happy customer right here!'
p876
NsS' BATTERY LIFE: Pretty medicore at 12 hours, the Creative, iAudio, Rio, and iRiver players last longer.'
p877
NsS" I'm not one of them."
p878
NsS' It has an equalizer, but the iRiver H10-20GB has a lot more presets than the iPod.'
p879
(dp880
S'equalizer'
p881
S'-1'
p882
ssS'I ended up (surprisingly) getting one for Christmas.'
p883
NsS'Because Steve Jobs is a twisted individual and he made sure that he ruined this device by giving it an UNREPLACABLE 18 MONTH BATTERY.'
p884
(dp885
S'BATTERY'
p886
S'-3'
p887
ssS' This type of service is one that Microsoft is touting...  one where you pay a flat rate per month for unlimited music downloads.'
p888
NsS'The Battery does not last 12 hours.'
p889
(dp890
S'Battery'
p891
S'-1'
p892
ssS'You might change the battery once before the iPod is superceded by something a lot better and less expensive.'
p893
NsS' The player is great.'
p894
(dp895
S'player'
p896
S'+2][p'
p897
ssS' I am a big fan of iTunes, simply because it is terribly fast and convenient - IF you are buying the songs from the iTunes site.'
p898
(dp899
S'iTunes'
p900
S'+2'
p901
ssS' They fix the problem and help you with whatever your I-Pod needs Comes with two USB ports and a charger.'
p902
(dp903
S'charger'
p904
S'+1'
p905
sS'USB'
p906
S'+2'
p907
ssS'Still not so sure about this one...'
p908
NsS"There is an attachment you can buy that allows you to use AA batteries in an emergency, but...I've never completely run out of juice; just dangerously low on long airline trips."
p909
NsS' *The ipod is overly sensitive to just about everything and gets scratched easily.'
p910
(dp911
S'sensitive'
p912
S'-2'
p913
ssS"  In the end, I haven't used it long enough to say that it is worth the extra money."
p914
NsS'  I use a great free program called ipod agent to do this.'
p915
NsS'For a sleeker, smaller and more "average" MP3 player the Nitrus is great but the iPod blows it out of the water - the interface is great and the design is wonderful.'
p916
(dp917
S'iPod'
p918
S'+3'
p919
sS' interface'
p920
S'+3'
p921
sS' design'
p922
S'+3'
p923
ssS'The Great And Versatile iPod\t I love my iPod!'
p924
(dp925
S'Versatile'
p926
S'+2'
p927
ssS"Sales of Apple's mini-phenomenon currently stand at around 20 million worldwide, and this number is set to triple over the next couple of years."
p928
NsS' To adjust the volume, you just sweep your finger lightly along the click  wheel.'
p929
NsS"I'm glad I did."
p930
NsS"I had a Casio unit, which had given great service, and would have been happy to get another one, but was tempted by the iPod's sleek design, storage capacity, connection options- - firewire and USB, and its integration with iTunes."
p931
(dp932
S'connection options'
p933
S'+2'
p934
sS'capacity'
p935
S'+2'
p936
sS'design'
p937
S'+2'
p938
sS'iTunes'
p939
S'+2'
p940
ssS"This 20GB just plays the songs, most people won't even use the 20GB space, I've got about 1500 songs on mine that adds up to nearly 13GB."
p941
NsS' The iPod comes formatted for the Mac, but within seconds of plugging it into a PC, is automatically reformatted for Windows.  (The HP version comes with Windows formatting, and takes seconds to change to Mac.) Although the iPod can be changed from one format to another, you will lose all of your music and data when doing so.'
p942
(dp943
S'reformatted'
p944
S'-2'
p945
ssS"By far the best MP3 player I've ever used"
p946
NsS"However, I have found that converting my CD's and MP3's into the iTunes library fo!r upload takes a fairly annoying chunck of time."
p947
NsS"\t If, like me you simply want an iPod to play your mp3's, buy this one."
p948
(dp949
S'iPod'
p950
S'+2'
p951
ssS' The second battery charge lasted over twelve hours.'
p952
NsS'This 20 gigabyte iPod by Apple Computer allows you to put up to 5000 songs onto it, in a choice of digital formats.  MP3, AAC, etc.'
p953
NsS"   The 'click wheel' is much easier to use, compared to the previous generation's models with the touch screen."
p954
NsS' Highly recommended for people who like to listen to music or audio books on the go.'
p955
NsS'OVERALL: I highly dislike the iPod, even though the sound quality and design is above-average.'
p956
(dp957
S'iPod'
p958
S'-3'
p959
sS' sound quality'
p960
S'+2'
p961
sS' design'
p962
S'+2'
p963
ssS' Wow iPod.'
p964
NsS'I would go along the lines of any more than 2 thousands songs, get a larger size such as the 40GB, just to be on the safe side.'
p965
NsS' I like the click wheel OK, but actually the one problem I\'ve had with this, my third, iPod is that occassionally the wheel gets "stuck," meaning either it won\'t respond at all, or it "jumps" down playlists uncontrollably.'
p966
NsS' As mentioned above, accessing songs is simultaneously easy and fun.'
p967
NsS'Since then, I have been a devotee of the elegant styling and functionality of all things Apple.'
p968
NsS"Maybe in their 5th generation they'll add features to the iPod. But for now, pleases don't buy this, and buy a Creative Zen or the iRiver H10-20GB instead."
p969
NsS'When I first saw "music trivia quiz" I thought it was some pre-programmed elitist thing - it\'s not.'
p970
NsS" However, the battery life isn't as good as I would like."
p971
(dp972
S'battery '
p973
S'-1'
p974
ssS'Everything else about the ipod is great, the click wheel is very easy to use and so is the software that comes with it.'
p975
(dp976
S'Itunes'
p977
S'+2][u'
p978
sS'Design'
p979
S'+2][u'
p980
ssS" i've had a beastly experience from trying to buy an ipod from circuit city."
p981
NsS'The controls and the menus are clearly displayed and easily fathomed'
p982
(dp983
S'controls'
p984
S'+2'
p985
ssS' I bought the JBL Creature speakers for home use, and they work great with the iPod.'
p986
NsS" There isn't much features on the iPod at all, except games."
p987
(dp988
S'features'
p989
S'-2'
p990
ssS"I'm probably the only person that dislikes the iTunes software."
p991
(dp992
S'iTunes'
p993
S'-1'
p994
ssS' It "feels" much more professional and well built - the clickable scroller, for example, is a brilliant invention and I never feel as if I\'m going to perhaps break it or snap it off (as I sometimes did with the Nitrus).'
p995
NsS' LOOKS AND DURABILITY: I realize many people are fond of the minimalist white interface.'
p996
(dp997
S'interface'
p998
S'-2'
p999
ssS"Here's the TRUTH in short...."
p1000
NsS' The other thing is the earbuds.'
p1001
NsS'I hope you enjoy your I-Pod!'
p1002
NsS' I strongly suggest anyone considering an iPod test it out first to see how they like it.'
p1003
NsS" It is sharper on the 'mini' units."
p1004
NsS' I had to send it in for repair, and it took six weeks to get a replacement back to me.'
p1005
NsS"I bought my IPOD roughly six months ago, and I've been pretty disappointed so far."
p1006
NsS" And, with the iPods' full volume up, all you have to do is adjust your receivers' volume and your set, since the iPod itself acts as a strong amplifer of its' own."
p1007
(dp1008
S'amplifier'
p1009
S'+2'
p1010
ssS'The I-Pod is the best thing I have ever used.'
p1011
(dp1012
S'I-Pod'
p1013
S'+2'
p1014
ssS"Just don't drop it."
p1015
NsS" I actually had to contact Apple's Vice-president, in order to get the situation resolved."
p1016
NsS' Just kidding.'
p1017
NsS'simply put somebody had already opened the box earlier!'
p1018
NsS" You can't change the battery, so I don't know what I'm going to do in a year or so."
p1019
(dp1020
S'battery'
p1021
S'-2'
p1022
ssS'Games-- not really important, but existant'
p1023
(dp1024
S'Games'
p1025
S'+1'
p1026
ssS'How did we listen to music before it?'
p1027
NsS' This seems obvious but the flaw lies herein: the instruction booklet tells users to charge their iPods 2 - 4 hours before initial use.'
p1028
NsS'  Using the software iTunes is relatively simple, you just plug the USB cable in, wait your machine to detect the iPod and voila, any songs listed in your iTunes library will be transfered on over to the iPod.'
p1029
(dp1030
S'iTunes'
p1031
S'+2'
p1032
ssS'ITunes can be downloaded from the enclosed CD or for free from the Apple site.'
p1033
(dp1034
S'ITunes'
p1035
S'+2'
p1036
ssS'  My only regret is that I bought the 20GB model, which is way too big for what I really need: I would have been better off with a smaller model of lower capacity.'
p1037
NsS' And if they treat their customers like herding sheep, I see little reason to purchase another MP3 player with a bitten apple embroidered on it.'
p1038
NsS' However, they close you off from exploring the continent that is other music providers.'
p1039
NsS' The Creative player sounds a bit better, but not anything to worry about.'
p1040
NsS' Dunno, possibly but you have to ask yourself what you are neccessarily paying for, which is 20GBs worth of storage capacity, which even if all your music is in high fidelity such as 320kpbs, there is still a whole lot of room to place much music in here.'
p1041
NsS'buy it.'
p1042
NsS' I think its the 21st century version of the wallet with little photos.'
p1043
NsS' The chances of getting a flawed one is very small indeed.'
p1044
NsS" I actually hooked up the iPod to my receivers AUX port with a Pbus connector and a Y-splitter cable, it wasn't too hard to do and now, I can listen to all my music in my car without ever having to lug around CDs again."
p1045
NsS' Talk about convenience.'
p1046
NsS'12 hours is about average, and it has an AC adapter in the box, with quick charge (2 hours) at probably 80%... and 4 hours for a full charge.'
p1047
NsS'Product Of The Decade'
p1048
NsS"  This may be the player for you, but it's not leaps and bounds ahead of any other player, and others are ahead of it in certain areas, so practice some caution when you buy."
p1049
NsS' I have no clue why this happens, as they show up perfectly in my iTunes library and there was no interruption during the uploads.'
p1050
NsS'No more Cds and your cd player getting broken when you step on it in your car or any other place'
p1051
NsS'  While I like the minimialism of the player, I try to avoid plastic products made of white- they tend to yellow with age.'
p1052
NsS"  Apple has definately fulfilled its reputation in making quality equipment, and surprisingly wasn't as expensive as its reputation normally holds."
p1053
(dp1054
S'Apple'
p1055
S'+2'
p1056
ssS"If your battery dies and it's still under warranty, guess what, you're out of luck, because Apple doesn't cover the battery in the iPod warranty."
p1057
NsS'    If you can get past this little flaw, give the ipod 5 stars, because everything else about it is pretty much perfect.'
p1058
NsS'  20 GB OR 40 GB?  The pros of the 40 GB: Comes with a "dock station" and double storage space (10,000 songs).'
p1059
(dp1060
S'storage space'
p1061
S'+2'
p1062
ssS'My ipod freezes occasionally, which is especially annoying when you\'re in the middle of a game of "brick." *'
p1063
(dp1064
S'freezes'
p1065
S'-1'
p1066
ssS"They wear out pretty easily when you're changing batteries every week or so."
p1067
NsS" If you want to add more, just delete some that you haven't been listening to recently."
p1068
NsS'  It seems to deteriorate every time I use it.'
p1069
NsS"3 No Voice Recorder-- this has also become an important and popular feature that the iPod unfortunately doesn't have."
p1070
(dp1071
S'Voice Recorder'
p1072
S'-2'
p1073
ssS" Since no company has yet to come out with an interchangeable battery for the jukebox-sized players (the Creative Labs Zen Micro is the only one I'm aware of that has this, and it's 5 GB), this can be an issue."
p1074
NsS" I have the e3c's, and man does everything on the ipod sound great."
p1075
Ns.