(dp0
S'A very well made product that has worked very well for me over the years.'
p1
(dp2
S'product'
p3
S'+3][u]'
p4
ssS'Firstly, I mounted the 7dbi antenna pair, replacing the original ones.'
p5
NsS"I don't know if Netgear, D-Link, etc are any better."
p6
NsS'I have two linksys routers, one wireless g, and the other cabled.'
p7
NsS'I know more about networking than 70% of the consumers out there, so I was able to puzzle my way through it, but only by second guessing the documentation at various stages.'
p8
NsS'And the tech writers have made the installation process SO EASY for people lik my aunt to follow.'
p9
(dp10
S'installation'
p11
S'+3]'
p12
ssS'My old Linksys router recently died after 2.5 years of service.'
p13
NsS"Also some ISP's give you a discount if you supply your own modem."
p14
NsS'anted to rate the router higher than 1 star, due to its security, easy of use, etc.'
p15
(dp16
S'use'
p17
S'+2'
p18
sS' security'
p19
S'+2] '
p20
ssS'I would highly recommend that you do this if you want to learn something, but if you are not interested in learning this stuff and just want a working wireless router, just get the WRT54G.'
p21
(dp22
S'WRT54G'
p23
S'+3][u]'
p24
ssS'Do your research and buy something like netgear or dlink.'
p25
NsS"Reset the network, tried the connection, and it's working like a charm."
p26
(dp27
S'working'
p28
S'+3]'
p29
ssS"I don't mind if the instructions are online instead of in the box, but please have some instructions *somewhere."
p30
NsS"Whatever you do, please don't go for a Netgear. !"
p31
NsS'When you open the package the first thing you see is "Run CD first".'
p32
NsS'The inital setup of the router was simple.'
p33
(dp34
S'setup'
p35
S'+2]'
p36
ssS'The internet connection would go down every 5 mins when I used it with a P2P program called Bitspirit.'
p37
(dp38
S'connection'
p39
S'-1]'
p40
ssS'Here is where many typical problems begin.'
p41
NsS"It's not here yet!"
p42
NsS"You'll have to reinstall everything you put on, from the day you first turned it on."
p43
NsS'The instant setup button in the front of the router messes up the network it is better to configure the router manually.'
p44
(dp45
S'instant setup'
p46
S'-2]'
p47
ssS'It is easy.'
p48
NsS'meone would just give me some instructions in plain English.'
p49
NsS'The Wizard is particularly sinister.'
p50
(dp51
S'Wizard'
p52
S'-2][u]'
p53
ssS' So-So 1. Customer Service - 6 calls Half were efficient other half were equally incompetent.'
p54
(dp55
S'Customer service'
p56
S'-1'
p57
ssS"After asking around, I found out I didn't."
p58
NsS"Another thing you may do are the many file transfers needed to playing network games.  Some settings allow you to play, but not host a game, others won't even let ##you connect to play."
p59
NsS'I like this router a whole lot better the Linksys 11b router it replaced -- the signal strength seems ot be much stroners, seldom falling below the "very good" range (and most often excellent within 25-50 feet of the router.'
p60
(dp61
S'router'
p62
S'+][cs'
p63
sS' signal strength'
p64
S'+2]'
p65
ssS"Even though you could get a cheap router these days, I'm happy I spent a little extra for the Linksys."
p66
(dp67
S'Linksys'
p68
S'+2][u]'
p69
ssS'The firmware has bugs too, so download and install the latest firmware from Linksys.'
p70
(dp71
S'firmware'
p72
S'-2]'
p73
ssS'The reason is simple, one word, and "security".'
p74
NsS'Nope.'
p75
NsS'There were no other obvious setup instructions - though there was a softcopy manual, it did not give an answer readily on what do to.'
p76
(dp77
S'instructions'
p78
S'-2][u]'
p79
ssS"It just doesn't follow through in any consumer-tested way."
p80
NsS'What is really needed with these are plug-ins, (ever present software controls) standard from the operating system, (OS) (Windows, Mac, Linux etc.'
p81
NsS"All in all, it's a good router if you don't have the cash for a Speedbooster one."
p82
(dp83
S'router'
p84
S'+1][p]'
p85
ssS'Check it out.'
p86
NsS'It really is a great buy if you are lookin at having just one modem but many computers around the house.'
p87
(dp88
S'router'
p89
S'+2][p]'
p90
ssS"I'd recommend this is you want to wireless network your laptop, but if you want to wirelessly network a couple desktops together you might want to wait until Linksys improves their desktop software/hardware."
p91
(dp92
S'desktops'
p93
S'-2]'
p94
ssS'I say adequate because it was enough to get wireless working, but nowhere near enough instruction to do the proper configuration job that I could have done if so!'
p95
(dp96
S'instruction'
p97
S'-2]'
p98
ssS"I can't really think of any negatives, but I'll try okay."
p99
NsS"I have been using my router for some months now... I still cant wirelessly access the internet through my laptop but that's a laptop problem."
p100
NsS'So I run the CD, and get all kinds of quirky error messages.'
p101
NsS'I was an early purchaser of the WRT54G, and had a few problems with stability and speed - finally, the March 03 firmware update has resulted in an excellent product!'
p102
(dp103
S'product'
p104
S'+3'
p105
sS' firmware update'
p106
S'+2]'
p107
ssS'These are just some of the pathetic examples.'
p108
NsS'Stay away from this junk.'
p109
(dp110
S'junk'
p111
S'-3][p][s]'
p112
ssS'I got it to work with no problem but then I experienced bandwidth loss and constant connectivity issues.'
p113
NsS'I purchased the WRT54G about a week ago.'
p114
NsS'I wrongly thought that it was the router.'
p115
NsS'A five minute call to the tech support people was all it took to get the router up and running.'
p116
NsS'It works well with my VOIP adapter, which is also a Linksys.'
p117
(dp118
S'VOIP'
p119
S'+2]'
p120
ssS'Why the four-port wireless model you ask?'
p121
NsS"Let's get a perspective here."
p122
NsS'provide no printed manual.'
p123
NsS'Before I had to manually put my IP settings into my laptop every time I switched networks.'
p124
NsS'(The Airport was more than twice the Linksys router.)'
p125
NsS"Thinking the CD was faulty, I went to the Linksys website, hoping to simply download the setup program, but it's not available."
p126
NsS'I hooked the Linksys wireless router up to a broadband connection which is running at a maximum of 700 plus Kilobytes on the download e!'
p127
(dp128
S'running'
p129
S'+3]'
p130
ssS'I have returned it and have a cheaper, nicer Belkin.'
p131
NsS'Both routes take me a few minutes of precious time when i would be online doing something important.'
p132
NsS"Haven't had any of the issues I've been reading in the other reviews."
p133
NsS'The fact that has an open-source firmware makes it a great option in my opinion.'
p134
(dp135
S'firmware'
p136
S'+2]'
p137
ssS'The router works fine for both wired and wireless.'
p138
(dp139
S'works'
p140
S'+2]'
p141
ssS"However since this Router is backward compatible, that doesn't pose a problem at all."
p142
(dp143
S'backward compatible'
p144
S'+3]'
p145
ssS'The cheap router I used to own had very minimal feature in the configurations menu and less security options then the Linksys WRT54G.'
p146
NsS'This is because the Lucent drivers use PIO whereas the Broadcom drivers use DMA.'
p147
NsS'Important to note that what I really needed was an access point as my DSL modem already does the router thing and I have a wired 100M network round the house.   setup[-1] ##Setting up the system was not too complicated.'
p148
NsS'It is a nice router in all ways but one.'
p149
(dp150
S'router'
p151
S'+2][p]'
p152
ssS'I would never get 108M rate unless I was half a meter from the box.'
p153
NsS'drops and strong signals even from the backyard.'
p154
(dp155
S'signals'
p156
S'+3][u]'
p157
ssS'You typically find less horror stories detailing poor connections with this, and most Linksys models.'
p158
NsS'Also use Netstat on the Linksys website which helps in setting it up.'
p159
NsS'Here is the big news to everyone; this is a consumer level product.'
p160
NsS'I had some issues when I had enabled WEP encryption and then moved on to WPA.'
p161
(dp162
S'WEP encryption'
p163
S'-1]'
p164
ssS"Overall, it'll make my move that much easier knowing I don't have to worry about connectivity."
p165
(dp166
S'connectivity'
p167
S'+2]'
p168
ssS'For one, it clones the Mac address on many systems.'
p169
NsS'With a little knowledge and tweaking, you can get this product to run encrypted wireless connections to about 10 people with little or no problem.'
p170
NsS'Not even one glitch.'
p171
NsS'Therefore, if you have a really robust connection (like a T3), this will help.'
p172
NsS'However, setting up using the quick start instructions was a breeze.'
p173
(dp174
S'instructions'
p175
S'+2]'
p176
ssS'All wireless routers need to be configured to use Wireless Encryption, so this is just not a problem with the WRT54G.'
p177
NsS'The best part about this router is now I have a DHCP server.'
p178
(dp179
S'DHCP'
p180
S'+2][u]'
p181
ssS'They need to step up and buy an enterprise level piece of hardware for a lot more money.'
p182
NsS'Someone next door may have a wireless system too, and could access your system if you forget to set these software firewalls.'
p183
NsS'The operating system is Windows XP.'
p184
NsS'Well, if your network has or will have, computers in other rooms, you may not want to wire your house for Ethernet.'
p185
NsS'Linksys is made by Cisco, the networking giant who introduced the first routers for the Internet, and became a company that rivals Microsoft in size.'
p186
NsS'Why own one of these things then, especially if you only have one computer.'
p187
NsS'A couple of times a week it seems to cease access to the internet.'
p188
(dp189
S'access'
p190
S'-2][u]'
p191
ssS'Feature wise, its a lot better than the dlink and netgear routers out there.'
p192
(dp193
S'Feature'
p194
S'+2][cc]'
p195
ssS'If you follow the directions to the letter though then you should be OK on the setup.'
p196
NsS'But if you did not know what to do, you might have to call Linksys.'
p197
NsS'Windows security and most routers are not compatible on all levels.'
p198
NsS'Moreover, the price of these is very low compared to most computer add-ons, so getting the added functionality is at little, and sometimes no cost.  ##What about the wireless capability, you ask.'
p199
NsS'Now this router is not the cheapest on the market.'
p200
(dp201
S'cheapest'
p202
S'-1][u]'
p203
ssS'I am getting better speeds on all my web programs.'
p204
(dp205
S'speeds'
p206
S'+2]'
p207
ssS'My next project will be to try out sveasoft firmware to increase this unit capabilities and wireless range.'
p208
NsS'For surfing the net it is more than one can hope for.'
p209
NsS'It is not reliable.'
p210
(dp211
S'reliable'
p212
S'-2]'
p213
ssS'For more than a year, and it is totally reliable.'
p214
(dp215
S'reliable'
p216
S'+2]'
p217
ssS'I just replaced my old Linksys router with this one, turned everything on in the right order, and it was up and running with no problems.'
p218
(dp219
S'router'
p220
S'+2][u]'
p221
ssS'I followed the prompts to disconnect and reconnect Ethernet cables, and then rebooted.'
p222
NsS'Their are 1000 kilobytes in every megabyte.'
p223
NsS'Interestingly, they upgraded from 200 MHz to 216 MHz processors from version 3.0 to 3.1 and then throttled back to 200 MHz at version 4.0.'
p224
NsS'In my oppinion,!'
p225
NsS'Essentially, the CD included with the package is, for the most part, worthless.'
p226
(dp227
S'CD'
p228
S'-3]'
p229
ssS'It works great, i am usually at the full 54 mbps, although every now and then that drops to around 36 mbps only because i am 2 floors below where the router is.'
p230
(dp231
S'works'
p232
S'+3]'
p233
ssS'The new hardware version does not run Linux at all and most likely will not since the memory has been cut in half.'
p234
(dp235
S'hardware version'
p236
S'-3][u]'
p237
ssS'This linksys router does it for the RIGHT PRICE.'
p238
(dp239
S'router'
p240
S'+3][p]'
p241
ssS'IF YOU NEED A WIRELESS ROUTER.... GET IT GET IT GET IT.... works really good....'
p242
(dp243
S' works'
p244
S'+3]'
p245
sS'ROUTER'
p246
S'+3][s'
p247
ssS"Best decision I've made in a long time."
p248
NsS'Many if not most cable / DSL systems are looking for the Mac address!'
p249
NsS'Unlike other reviewers, I have found the support to be responsive, almost no wait time on the phone, and relatively knowledgeable.'
p250
(dp251
S'support'
p252
S'+3]'
p253
ssS'As said before, you may get some conflicts.'
p254
NsS'No more connection!'
p255
NsS'This behavior (hanging) also occurs when I transfer large files between my PCs.'
p256
NsS'No down time, great signal strength.'
p257
(dp258
S'signal'
p259
S'+3]'
p260
ssS'Even during the firmware updates my roommates did not loose wireless connectivity.'
p261
(dp262
S'connectivity'
p263
S'+2]'
p264
ssS'I just upgraded to the Linksys WRT54G Wireless-G router last month and I am very happy with the quality of the product.'
p265
(dp266
S'quality'
p267
S'+3]'
p268
ssS'The out-of-the-box experience was a little frustrating.'
p269
NsS'Setting up the 2nd computer really was easy too -- basically hooking the computer to the router and!'
p270
NsS'to which inputs, I know what the lights mean, etc.'
p271
NsS'VERY IMP.'
p272
NsS'Remember, you are working with two sets of security hardware boxes, your computer, and now your router.'
p273
NsS'You have to completely exit the Wizard and re-start the CD in order to find the "User Guide" tab which loads the manual.'
p274
NsS'The whole process was probably about 10 minutes.'
p275
NsS"If you leave it as LINKSYS you will have to wipe out your config to connect to someone else's LNKSYS router cause they didn't change the default SS!"
p276
NsS"I'd also recommend wireless products made by Belkin."
p277
NsS'All you have to do is click one button on the router configuration window and the router automatically senses the devices and configures the network.'
p278
(dp279
S'configuration'
p280
S'+2]'
p281
ssS"It's easy and really works, with some incredible range."
p282
(dp283
S' range'
p284
S'+3]'
p285
sS'works'
p286
S'+2'
p287
ssS"Once you set it up, it's great."
p288
(dp289
S'router'
p290
S'+3][p]'
p291
ssS'You have to unplug the unit to get it to work again.'
p292
NsS"I then tried to set up the router through Linksys's browser interface, but as the only instructions available tell you to use the installation CD, I had little luck - I did manage to connect briefly, but the connection kept dropping, and with no idea of how to resolve THAT issue, I gave up."
p293
(dp294
S'connection'
p295
S'-3]'
p296
ssS'The main advantage of this system over its predecessor is the ability to open a wider pipeline between clients.'
p297
(dp298
S'pipeline'
p299
S'+2][u]'
p300
ssS'Even things like the downloaded files, and E-Mail attachments you do want to receive.'
p301
NsS"In a week of use i've never had to reboot the router."
p302
(dp303
S'router'
p304
S'+2]'
p305
ssS'The documentation is much better than the documentation that came with the 11b router -- I needed a lot of help from Linksys technical assistance to set that one up.'
p306
(dp307
S'documentation'
p308
S'+2][cs]'
p309
ssS'After 15 minutes on hold and 10 painful minutes with this guy, he basically tells me to download a file from their website which will walk me through.'
p310
NsS'My Xbox is about 70ft and 3 walls away from the WRT54G.'
p311
NsS'But everything worked out for the best.'
p312
NsS'I can go pretty far away from my router and still connect wirelessly.'
p313
(dp314
S'connect'
p315
S'+3][u]'
p316
ssS'The range is terrific, I am using this for my home and I was transferring at 50+mbs from my backyard.'
p317
(dp318
S'range'
p319
S'+3]'
p320
ssS'This is not an enterprise piece of hardware that you will find in an office or corporate environment.'
p321
(dp322
S'enterprise piece'
p323
S'-3][u]'
p324
ssS'A decent peice of hardware with great speed (I get the same speeds as with my comp connected directly to the modem)  and good signal quality.'
p325
(dp326
S' signal quality'
p327
S'+2]'
p328
sS'speed'
p329
S'+3'
p330
ssS'First, I must point out that any router installation is not for the faint of heart.'
p331
NsS'there are instructions to encrypt your personal wirless network so no one else can end up hogging/stealing your bandwidth.'
p332
(dp333
S'instructions'
p334
S'+2]'
p335
ssS'They also lowered flash memory from 4 to 2 MB at the same time.'
p336
NsS'I tried and failed using the D-Link 624 108M wireless router.'
p337
NsS'I do know what wires go !'
p338
NsS'Absolutely no problems with this router.'
p339
(dp340
S'working'
p341
S'+2][u]'
p342
ssS"It's like they want to pretend that Apple doesn't exist or something."
p343
NsS'My mistake.'
p344
NsS'I did this and indeed the setup flowed much better.'
p345
NsS'I use Apple iTunes to stream music to my stereo via the Linksys router.'
p346
NsS'I tried to set my IP address and subnet mask and who knows what else.'
p347
NsS'One device, Tivo Series 1 DVR, is far enough away from my network router to need either a really long Ethernet cable, or a wireless connection.'
p348
NsS'However many you open up, remember you are putting holes in your firewall, making your computer!'
p349
NsS'The only other problem was that security for the wireless connection.'
p350
(dp351
S'security'
p352
S'-2]'
p353
ssS'I like the fact that it IS EASY to use with limited networking experience- the problem I have is that there are many useless features on the unit, and some wanted features, like a list of computers accessing my wireless, is not easily found on my router.'
p354
(dp355
S'use'
p356
S'+2][u'
p357
sS' features'
p358
S'-2]'
p359
ssS"I'm returning this, as I'm not willing to waste more time trying to contact tech support, particularly in light of the comments of other reviewers who have done so."
p360
NsS"I tried to do this by instinct and it's not intuitive unless you are a network geek."
p361
(dp362
S'set up'
p363
S'-1][u]'
p364
ssS'Netgear and Dell (which I think may be DLink rebranded) do.'
p365
NsS'I had to change the channel of the router, like the channel on a cordless phone, to get it to work with the Linksys Instant USB Wireless Adapter v2.6.'
p366
NsS"First, let me set the stage by saying that I am not a network specialist, just a regular Joe who for convenience reasons wants a wireless network in his house. ##For the last couple of years I'd run the Linksys Wireless B router; it was rock solid, no issues whatsoever."
p367
NsS'When your laptop come home it must have a profile with the SID.'
p368
NsS'I know I am getting specific, but the point I am making is that it does not matter what the connection speed you are running at any given moment, based on how close the base unit is to the PC card.'
p369
NsS'New firmware update allows for automatic wireless network configuration.'
p370
(dp371
S'firmware update'
p372
S'+2]'
p373
ssS'A call to customer support (got to a live person within a couple of minutes) helped me tweak a couple of the settings to streamline performance.'
p374
(dp375
S'customer support'
p376
S'+2]'
p377
ssS'So then running the CD, everything worked out OK to connect my wired computers again.'
p378
NsS"In some cases, you can't even get your PC to the MS patch site to download XP security patch #2 before being hit."
p379
NsS'Let me give you a word about AOL, and other service providers.'
p380
NsS'The reader can find a better product with the competition and at a lower cost.'
p381
NsS'The setup was a breeze, I had some reservations about a wireless network (see my review for linksys wet11)but this item was on sale as well as the WET11 so I just had to splruge.'
p382
(dp383
S'setup'
p384
S'+3]'
p385
ssS'But the biggest problem was the constant drop in connections and weak signals from time to time.'
p386
NsS'The other issue is how secure do you want it.'
p387
NsS"If you are sharing a cable modem or DSL, it's probably not going to be noticeable."
p388
NsS'Two walls apart from it, the signal would start failing.'
p389
NsS'You need to know absolutely nothing about setting up the network.'
p390
(dp391
S'setting up'
p392
S'+3]'
p393
ssS"I've had this Linksys router."
p394
NsS'apart on their reviews, they are talking about installation problems and what not.'
p395
NsS"I haven't tried to set up any advanced features on the router, but it is not difficult to set up for basic use."
p396
(dp397
S'set up'
p398
S'+1]'
p399
ssS'That aside, this is not that bad of a product.'
p400
NsS'I have successfully used the additional Ethernet ports to add peripherals to my wireless networks.'
p401
NsS'This product is by far the best Broadband Router on the market, I bought this to replace one of those Linksys Instant Wireless B routers, worked great for about a year.'
p402
(dp403
S'product'
p404
S'+3]'
p405
ssS'For effort free wireless network adaptors, use the linksys USB adaptor.'
p406
NsS"If you have good networking knowledge, you'll abandon the wizard, use the 100-page online manual, and be fine."
p407
NsS'No hold time.'
p408
NsS'Having done all this, I was quite pleased to see that all corners I needed were decently covered by the signal.'
p409
(dp410
S'signal'
p411
S'+2][u]'
p412
ssS'nd, and 100 to 150 upload speed.'
p413
NsS'Having never hooked up a wireless network before, I took the advice of the quick start guide that came with the unit, and used their included CD.'
p414
NsS'cted Internet connection less than 20 minutes before someone will find its port address, and access it.'
p415
NsS'My last topic concerns the security setup you do, or have done with your router.'
p416
NsS"WEP encryption is weak but most computer people couldn't figure out how to break it."
p417
NsS'Got the Linksys after reading some reviews.'
p418
NsS'There seem to be fewer collisons and dropped packets as I read from the router logs than with my old Dlink router.'
p419
(dp420
S'router'
p421
S'+2][u][cc]'
p422
ssS'To be honest I got it just to link up my Xbox (attached to a WET11 wireless ethernet bridge)to my cable modem (ISP Comcast), so I could get rid of the 70 feet of ethernet cable that ran down the hall.'
p423
NsS'I also had to do this with the old router.'
p424
NsS'I upgraded both my card and router and really had no problems with installation on my Sony VAIO laptop (XP operating system).'
p425
(dp426
S'installation'
p427
S'+2]'
p428
ssS'Great items !'
p429
NsS'After countless attempts at recycling the modem and WPA keys etc.'
p430
NsS'It is a good place for new users, who want to feel safe, and they do provide a good measure of safety, but they are not the total answer.'
p431
NsS'Apart from speed, the signal is consistent and works without interruptions, etc.'
p432
(dp433
S'signal'
p434
S'+2][u]'
p435
ssS' ##Cons. 1. Configuration is not easy as it made out to be 2.Lousy Initial Software 3. Does not work with BitSpirit with UPnP, Besides that its an excellent choice , If you know your way around network configuration go for it.'
p436
(dp437
S'Configuration'
p438
S'-2'
p439
sS'UPnP'
p440
S'-2'
p441
sS'Software'
p442
S'-2'
p443
ssS'Awesome for the newbie, though I personally like to fasten every bolt myself.'
p444
(dp445
S'router'
p446
S'+3][u]'
p447
ssS'Unfortunately, Linksys does not write the best documentation.'
p448
(dp449
S'documentation'
p450
S'-1]'
p451
ssS'I have had no problem either with backward compatiaibility, in that the "mixed mode" feature lets you both 54 and 11 Mb cards off the router.'
p452
(dp453
S'backward'
p454
S'+2]'
p455
ssS'Follow the directions exactly.'
p456
NsS'Problem solved.'
p457
NsS'After some research on the Net, I discovered that there is indeed a flaw with the current WRT54G design (WRT54G, version 3, which Amazon currently sells).'
p458
(dp459
S'design'
p460
S'-2]'
p461
ssS'Pertaining to the speed issue: I got 54Mps while I was in the same room.'
p462
(dp463
S'speed'
p464
S'+3]'
p465
ssS'OK, I never read the manual.'
p466
NsS"There may be many theories as to why they've done this, but a logical argument is that with a faster processor and more memory, they Linksys device may compete a little to close to the Enterprise-Class Cisco devices."
p467
NsS"If it was a software comaptiblity issue or a component availability issue, explain it to us so we don't have to theorize on the motives."
p468
NsS'Anyhow, just for reference, I am using a Dell Inspiron Notebook, hooked up to the broadband cable modem that was supplied by Comcast.'
p469
NsS'While I am not happy that a solid state device died after such a short period of time, my quick review of this product space did not yield any other brands that seem much better than Linksys.'
p470
(dp471
S'Linksys'
p472
S'+][cc]'
p473
ssS'When that happens i have to restart my pc or restart the linksys router.'
p474
NsS'Not once did I have to call tech support or the IT guy at my workplace.'
p475
NsS"If a PC asks & takes a DHCP address you'll have that record, but that's it."
p476
NsS'See my other reviews for the details.'
p477
NsS'Also, I set up a WPA-PSK security protocol, and created a corresponding profile in my notebook.'
p478
NsS"i've had their wireless card for my laptop since 2000 and it has rarely given me problems."
p479
NsS"Compatability with other devices is excellent too; I've only found one 11b device that won't work with its mixed mode (and it won't work with *anyone's* mixed mode)."
p480
(dp481
S'Compatibility'
p482
S'+3]'
p483
ssS'If it is needed to make a multi-100 MB disk tranfer (such as back-up copies) it makes sense to connect through the wired network.'
p484
NsS"I can't notice any difference - except it used to drop my connection several times an hour!"
p485
NsS'For an item that is not even available in Best Buy and the other major stores when I went to buy it, the fact that ... has these in and out of stock, and that I received it in only a couple of days is knowledge enough to make this a winning situation.'
p486
NsS'This is a good product, but the Linksys 54g desktop card is not.'
p487
(dp488
S'product'
p489
S'+2'
p490
sS' desktop card'
p491
S'-2][u]'
p492
ssS'However, if you are not a tech person and!'
p493
NsS'What this product really needs is better documentation for how to set up the router for DIFFERENT OPERATING SYSTEMS!'
p494
(dp495
S'documentation'
p496
S'-2]'
p497
ssS"Too bad they don't mention anything about how the CD can't be used with a Mac."
p498
(dp499
S'CD'
p500
S'-1]'
p501
ssS"You have a chance if you're a good cookbook recipe follower."
p502
NsS'This router does everything that it is supposed to do, so i dont really know how to talk that bad about it.'
p503
(dp504
S'router'
p505
S'+2'
p506
ssS'I am a generally computer-savvy person; not an IT expert by any means (which is what router configuration sometimes seems to require), but I can install and manage most computer stuff without too much support.'
p507
NsS"Don't try to install this yourself unless you have some technical knowledge."
p508
NsS'If you buy, you should disable the SSID Broadcast, use MAC filtering and deploy some form of encryption (multiple choices)if you want to ensure your network is secure (all covered off in the manual).'
p509
NsS"But my question: How does this CD make it out the door if it's this bad?"
p510
NsS'from the cable modem you are using.'
p511
NsS'They then send in Trojans, Worms, (programs that extract, and run themselves in your computer) plus other nasties, to steal information, or take control.'
p512
NsS'Still, if you think there may be more computers in the future, and there is a need for a multi-port network.'
p513
NsS'This router acts as a wireless access point, 100 MB switch and a router making it a nice multipurpose device.'
p514
(dp515
S'multipurpose'
p516
S'+3][u]'
p517
ssS'Somehow the adap'
p518
NsS"Don't worry though, the primary computer located by the Linksys, can be connected by wire, this makes for a solid, and fast connection to the Net."
p519
NsS'I bought this to replace my Linksys BEFW11S4 - 802.11b wireless router (I gave the old router to a friend - it worked great) because I thought it would be a nice upgrade in speed and performance - WRONG!'
p520
NsS'I have had mine for about a year and use a third party firmware on mine and love it.'
p521
(dp522
S'router'
p523
S'+2][p]'
p524
ssS"As I'd just purchased a new computer with a Wireless G adapter, I figured I'd upgrade the router as well and set it up as it's supposed to be."
p525
NsS'There are 3 computers in my house all getting wireless connection from this router, and everybody is happy with it.'
p526
(dp527
S'router'
p528
S'+2]'
p529
ssS'As soon as you click on a site, it appears on the screen.'
p530
NsS'I used Linksys technical support several times.'
p531
NsS'Nor did I need any settings from my ISP.'
p532
NsS"You won't regret it."
p533
NsS"Be sure to call your ISP with the modem's MAC address to get online."
p534
NsS'Maybe you could consider the used WRT54G version 3.1 if you can find it?'
p535
NsS'But can you decide to access the CD manual once you have started the Wizard?'
p536
NsS'But I believe for stability, this extra price is worth spending.'
p537
NsS'After installing the firmware hold the reset button at the back for 30 secs.'
p538
NsS'Hope this helps.'
p539
NsS"It'll make life a lot easier, and preclude you from having to give this product a negative review."
p540
(dp541
S'product'
p542
S'+2][p]'
p543
ssS'The new router came with an updated setup utility that makes getting the router installed a fairly straight forward process.'
p544
(dp545
S'install'
p546
S'+2]'
p547
ssS'However, your PC cards should also be Linksys "g" rated, as interoperability has been a problem on some "b" cards.'
p548
NsS'I had downloaded the 112 page manual from the Linksys Website.'
p549
NsS"It's easy to install the security on this product but Linksys doesn't do a good job of explaining why its important."
p550
(dp551
S'install'
p552
S'+2]'
p553
ssS"I'm using sveasoft's firmware, but search the web for more information about it--you may find you don't approve of the author's tactics, which I only learned about after I'd paid my $20 subscription."
p554
NsS'Fool that I was!'
p555
NsS'Very annoying.'
p556
(dp557
S'router'
p558
S'-2][u]'
p559
ssS'They provide you with their network security as a part of the service, but for a price.'
p560
NsS'They!'
p561
NsS"The darn thing works as promised and it's amazingly cheap too."
p562
(dp563
S'works'
p564
S'+2'
p565
sS' cheap'
p566
S'+3]'
p567
ssS') After messing about a bit with the CD, I went online to the Linksys site to look for support tips.'
p568
NsS'After upgrading the drivers and firmware a few times and e-mailing tech support for some setting tips it now works fine.'
p569
(dp570
S'works'
p571
S'+2][u]'
p572
ssS"I bought one for my niece and will be installing it like a pro (shhhh, don't tell her I had help)."
p573
NsS'What about hookup and use?'
p574
NsS'Unless you backed up the documents, and other things you created, (data) that will be lost too.'
p575
NsS'In addition it is very easy to setup.'
p576
(dp577
S'setup'
p578
S'+3]'
p579
ssS'I run on Mac OSX, and though I considered getting the whole Apple airport setup, the cost difference between the Airport and the latest model Linksys pretty much left no comparison.'
p580
NsS"ite:  www.linksys.com/connect  I clicked on NetSet Assistant and let it do it's thing."
p581
NsS'Was a bit wary because the software is Windows only and I have an iMac.'
p582
(dp583
S'software'
p584
S'-3]'
p585
ssS"I also wanted to switch to Broadcom hardware (which the linksys uses) because my WiFi MiniPCI card in my dell laptop with lucent silicon in it used 70% of my 1.2Ghz laptop's CPU when using the wireless at full speed."
p586
(dp587
S'Broadcom hardware'
p588
S'+2]'
p589
ssS'The dual anteanna is a plus and the design is slick.'
p590
(dp591
S'design'
p592
S'+2'
p593
sS' anteanna'
p594
S'+1]'
p595
ssS'No, of course not.'
p596
NsS'I would suggest for Linksys to include a hardcopy quickstart guide for those users with !'
p597
NsS"Getting Apple/Macs was historically a pain, but they've all improved interoperability now."
p598
NsS'First, the router was on sale for $49 at Circuit City.'
p599
NsS'There is an open-source firmware on the net which has tons of extra features.'
p600
(dp601
S'features'
p602
S'+3]'
p603
ssS'I upgraded from an older 801.11b router to the Linksys WRT54G for its improved security, and of course, speed.'
p604
(dp605
S'security'
p606
S'+2'
p607
sS' speed'
p608
S'+2]'
p609
ssS"So the pretty solid router all around good for the money  here's the link to firmware updates http://www.sveasoft.com/forum6.html"
p610
(dp611
S'router'
p612
S'+2]'
p613
ssS"This router works at 54Mbps that's megabyte not kilobyte."
p614
(dp615
S'works'
p616
S'+3]'
p617
ssS'I have an RCA cable modem with RCN as my ISP.'
p618
NsS"I couldn't get the install wizard to work."
p619
(dp620
S'wizard'
p621
S'-2]'
p622
ssS'But knowing that the IP for my previous Linksys router was 192.162.1.1, I went there and found a drop down screen that had the information (the security key) I needed to connect my wireless laptop.'
p623
NsS"Cisco (let's be honest they own Linksys) has lowered the memory and processing power of the newer versions of this device."
p624
NsS'The Achilles heel of this router is its inability to stream music, or copy large files over the local network.'
p625
(dp626
S' copy large files'
p627
S'-2][u]'
p628
sS'stream'
p629
S'-2'
p630
ssS'I bought the PC Card for laptops as well, and that was just as easy to install.'
p631
NsS'The really neat thing about this is that the third party firmware are very powerful and add many more features to the WRT54G that are not there, but should be. ##However, the version of the WRT54G that Amazon.com and most other places sell is version 5.'
p632
NsS'You are really the ones that need this the most.'
p633
NsS"Just make sure to budget a couple of hours for setup, and invite some computer-savvy friends over first if you're prone to high blood pressure."
p634
NsS'If you have users that use P2P, you will need to tweak this and all wireless routers.'
p635
NsS'After pulling the Router out and connecting it, I hooked a Linksys WET11 Bridge onto the Tivo.'
p636
NsS'A standard modem works at 56K tops.'
p637
NsS'I had a lot of problems setting it up, since the software given along with it is buggy.'
p638
(dp639
S'setting'
p640
S'-2]'
p641
ssS'As far as dealing with network access of other computers this router is pretty good given the price- remember this router is the same one that was released right when the G standard was introduced to the market.'
p642
(dp643
S'router'
p644
S'+2]'
p645
ssS'Shutting off what they t!'
p646
NsS'just want a wireless router for home or your very small business, you can just get a WRT54G from here and configure it.'
p647
(dp648
S'WRT54G'
p649
S'+2][u]'
p650
ssS"YOU WON'T get connected otherwise."
p651
NsS'I upgraded my network to wireless with this router.'
p652
NsS'What does a router, access point, do to help prevent this?'
p653
NsS'My opion is concentrate on what you need now, This product has EXELENT range, holds a teady connection, hasent even droped one and i have it for more than a month now.'
p654
(dp655
S'range'
p656
S'+3'
p657
sS' connection'
p658
S'+2][u]'
p659
ssS"In the mean time, I'll buy a different ro!"
p660
NsS'Purchased this router a few months back, NO PROBLEMS whatsoever.'
p661
(dp662
S'router'
p663
S'+2]'
p664
ssS"I'm going to be moving soon."
p665
NsS'But wh!'
p666
NsS"That didn't work either."
p667
NsS'Coverage in my 2-floor brick-walled house was poor and erratic.'
p668
NsS'uter like the Buffalo WZR-RS-G54 with 64 megabytes of RAM and 8 MB flash (plus an amazing built-in PPTP VPN server that supports client-to-LAN as well as LAN-to-LAN connections).'
p669
NsS'There was a big sticker inside the box saying "RUN CD FIRST - DO NOT DISCONNECT YOUR CURRENT ROUTER".'
p670
NsS'Overall, if you know what basic steps to take, it was not difficult to connect, and the s/w worked well to connect.'
p671
(dp672
S'connect'
p673
S'+2][u]'
p674
ssS'It constantly drops the internet connection and simple things like WALLS in our house block the link so everything is very slow.'
p675
(dp676
S'connection'
p677
S'-2][u'
p678
sS' slow'
p679
S'-2][u]'
p680
ssS'This is NOT a router I would suggest for a novice user, my old Dlink DI52!'
p681
(dp682
S'router'
p683
S'-][cc]'
p684
ssS'Speed is identical to my hard wire desktop direct cable modem connected PC.'
p685
NsS'Second, the setup CD actually worked perfectly.'
p686
(dp687
S'CD'
p688
S'+3]'
p689
ssS"Networks on the outside can't see your computer, and unless you install the security protocols incorrectly, all they see is the router, and what can't be seen can't be accessed."
p690
NsS'I was told to connect my computer directly to the cable modem, then go to a Linksys webs!'
p691
NsS'I was having intermittent problems with it losing connection.'
p692
(dp693
S'connection'
p694
S'-1][u]'
p695
ssS'd be in the same IP range and see each other.'
p696
NsS'The installation software CD crashed repeatedly.'
p697
(dp698
S'CD'
p699
S'-3]'
p700
ssS'This router seems to have gotten mixed reviews for ease of installation and its compatability with 11b cards.'
p701
NsS"Quite frankly though, I've never seen a worse setup process for a piece of hardware."
p702
NsS'So 54 Megabytes per second is about a thousand times faster than a standard modem.'
p703
NsS'Someone in Cisco should post a review here letting us know why this was done.'
p704
NsS'The average Windows based computer, can exist on an unprote!'
p705
NsS'Networking computers is quite beyond the capabilities of those, who used to think you had to keep the TV on to record it from your VCR.'
p706
NsS'I am not sure if this is still the case with lucent drivers.'
p707
NsS'As I mentioned in my first paragraph, it supports WPA security, which is far superior to WEP.'
p708
(dp709
S'security'
p710
S'+2]'
p711
ssS'A Mac address is a unique hardware identifier.'
p712
NsS"Setup is totally breeze and Linksys's web site is pretty easy to navigate."
p713
(dp714
S'Setup'
p715
S'+3'
p716
sS' web site'
p717
S'+2]'
p718
ssS'When I gave up and called their help desk, they sent me to a web site, I ran a program and viola - I was on the net wirelessly.'
p719
NsS'running the installation wizard again.'
p720
NsS'My brother had an old Linksys B band wireless router in his home and it was like magic.'
p721
(dp722
S'Linksys'
p723
S'+2]'
p724
ssS'No Wires !'
p725
NsS'Your newness to the world of computing, and Internet surfing makes you a prime target of E-mail spoofers, identity thieves, and others who would attempt to take your private information.'
p726
NsS'If buying for home office or small business this is a must.'
p727
NsS"All this took a couple of hours fidling, as I did not go to Linksys website for support - so I wouldn't know if there is help there."
p728
NsS'Installation was as near automatic as can be.'
p729
(dp730
S'Installation'
p731
S'+3]'
p732
ssS'Ironically, the latest firmware update addresses this very specific issue.... so now I have no problems what so ever.'
p733
NsS'So far it all works fine with either cable or wireless connections.'
p734
(dp735
S'works'
p736
S'+3]'
p737
ssS'After asking for a password (Is it asking me to set a password or am I supposed to know from page 20 of the manual that the factory set password is "admin"?) it refused to go past step 8.'
p738
NsS'Anyway, after learning that the "Speedboost" feature only does anything for you if (1) you are also using a Speedboost adapter (which I was), and (2) if you are transferring large data files between computers (Note: it does NOT increase your speed on the Internet, but only between computers on the network), I opted to return the product and get the standard Wireless G (v.5).'
p739
NsS'For about the same price as 11mb you can get 5 times the speed.'
p740
NsS'Stupid me.'
p741
NsS'he brower-based administrative screen with no problems.'
p742
NsS"SOHO boxes don't give you a clue about who is one your network or what they are doing."
p743
NsS"If you're buying this product and operate on a Mac platform, ditch the CD and go directly to live assistance on the Linksys website."
p744
NsS'Works pretty well.'
p745
(dp746
S'Works'
p747
S'+2]'
p748
ssS'At first I was going to give it a really bad review.'
p749
NsS'The setup software did everything.'
p750
(dp751
S'setup software'
p752
S'+3]'
p753
ssS"Encryption means people can't join OR read what you're doing."
p754
NsS'The tech support is worthless too.'
p755
(dp756
S'support'
p757
S'-3'
p758
ssS'Very disappointing.'
p759
NsS'The downside being that the Tivo can only connect at 802.11b speeds and not 802.11g.'
p760
(dp761
S'Tivo'
p762
S'-1'
p763
ssS'But eventually I found my way to live assistance through their site (thank GOODNESS), where someone was able to give me adequate instructions to configure the router so that I could at least use it.'
p764
NsS'I recently bought the Linksys WRT54G router and have been very happy with the router itself.'
p765
(dp766
S'router'
p767
S'+2]'
p768
ssS"Just follow the instructions carefully, it's all based on a CD that has everything you need to get you up and running in no time."
p769
(dp770
S'instructions'
p771
S'+2]'
p772
ssS'I downloaded and updated the firmware, and followed the easy setup instructions.'
p773
(dp774
S'instructions'
p775
S'+2]'
p776
ssS"I'm tr!"
p777
NsS"However, since it is not being able to perform its core function adequately, it doesn't deserve any higher."
p778
NsS'This is my first foray in!'
p779
NsS'I used to own a $20 after rebate cheapo wireless router that I thought would be adequate enough for a home wireless networking.'
p780
NsS'Then I tried the do-it-yourself method of following the step-by-step instructions.'
p781
NsS'To set up the xbox, wap, and ethernest bridge, with the encryption on was less then 30 mins.'
p782
(dp783
S'set up'
p784
S'+3]'
p785
ssS'WPA is best.'
p786
NsS'Getting the router setup in a "vanilla" configuration that works for 99% of users was very easy, and I was able to do this no problem.'
p787
(dp788
S'setup'
p789
S'+2]'
p790
ssS'You now set the software to allow what access you will allow.'
p791
NsS'Very easy for visitors to be invisible on all home-marketed boxes.'
p792
NsS'If you want "the newest gadget" get the one with speedbooster.'
p793
NsS'I got this inexpensive  router to let me connect two desktops and a Thinkpad laptop to my NTL broadband modem, instead of having to go through the hassle of rebooting the modem and connecting to a different PC, as and when needed.'
p794
NsS"As far as WEP configuration... make your adjustments after you've set up the router using the default setup."
p795
NsS'at works as well as can be expected for products in this space and the company backs it up with good support.'
p796
(dp797
S'support'
p798
S'+2]'
p799
sS'products'
p800
S'+2][u'
p801
ssS'I w!'
p802
NsS'  !'
p803
NsS'I had a Linksys wired 802.11B router and wireless access point which worked well, but decided to upgrade to an all-in-one 11G device.'
p804
NsS"Often they restrict you from sites you want to visit, and you can still be reached by clever hackers who con you into opening or using their files or programs.  ##Let's put it this way, it's a big badge of honor in the hacking world if they can beat AOL, Microsoft, Earthlink, or another popular sites that provides Internet security."
p805
NsS"They've gone from 16 MB of RAM in version 4 to 8 MB of RAM in version 5."
p806
NsS'The Linksys technical support site has nothing about configuring the router for use with a Mac.'
p807
(dp808
S'technical support'
p809
S'-2]'
p810
ssS'I guess the two antennae help with that besides making it look cooler.'
p811
(dp812
S'look'
p813
S'+1]'
p814
ssS') as opposed to "gateway", disabled DHCP and gave the router an IP number within the range served by the DHCP service from the modem.'
p815
NsS'Ended up returning to a Linksys router and giving the cheap router the boot.'
p816
NsS'But this seems to be isolated only to the latest version of this particular program.'
p817
NsS"MAC filtering isn't too hard and it is just a config change on the router."
p818
NsS'The only way I got the thing working (this was with a DirecWay satellite):'
p819
NsS'But since I do have a little experience, I simply disconnected my old router and put in the new one.'
p820
NsS"I've since gotten the Linksys Modem (BEFCMU10) and stacked it with the WRT54G router and it works fantastic!!!"
p821
(dp822
S'WRT54G'
p823
S'+3]'
p824
ssS"However I realized the other day that I hadn't even secured it (yes, stupid me)."
p825
NsS'I got this for my aunt who pretty much knows nothing about computers.'
p826
NsS"I'm a male and that's what we do (or not do)."
p827
NsS'Computer novices should have a computer savvy person install, and set-up their router.'
p828
NsS"If you currently own a wireless router (802.11b) don't rush to replace it!"
p829
NsS'I do not really know why some people are tearing this router !'
p830
NsS'the WRT54G plus the HGA7T is a perfect solution if you need wireless coverage in a wider area or for a hard-walled house as was my case.'
p831
(dp832
S'coverage'
p833
S'+2][u]'
p834
ssS"I call tech support, which was clearly overseas, and I'm pretty sure he understood me about as well as I understood him."
p835
NsS'It just tells you to start disconnecting and attaching cables without any input as to whether your current setup includes a pre-existing router (mine does), without any clarity as to whether you should be running the wizard on a hard-wired PC or a wireless equipped PC.'
p836
(dp837
S'wizard'
p838
S'-2'
p839
ssS'People that complain about this product not standing up to hardcore use are fooling themselves.'
p840
NsS'The documentation was just horrible.'
p841
NsS"If I did not know what to do, I'd have no idea how to connect wirelessly."
p842
NsS"We bought this about 6 months ago and it's been worthless."
p843
(dp844
S'router'
p845
S'-3][p]'
p846
ssS'all kinds.'
p847
NsS"This is my fourth Linksys product and, aside from the rough start, I'm very satisfied with this router."
p848
(dp849
S'router'
p850
S'+2]'
p851
ssS'This is what is commonly called a firewall.'
p852
NsS'Years ago I had an old Linksys router that I never could get to work right.'
p853
NsS'online games, or downloading files from sites with different security levels.'
p854
NsS'And the router itself had protective tape over the Ethernet inputs.'
p855
NsS'Speed is not a problem.'
p856
(dp857
S'Speed'
p858
S'+2]'
p859
ssS'P2P is just harsh on networking equipment of!'
p860
NsS'There was no obvious screen stating what should be done - the program simply said the router was secured.'
p861
NsS"The WRT54G offers excellent security features and much more (and easier) configuration menu that I didn't even need a manual to setup correctly."
p862
(dp863
S' configuration menu'
p864
S'+3'
p865
sS'security'
p866
S'+3'
p867
ssS"Problem is sometimes you can't get a visiting laptop to work with certain encryption."
p868
NsS'less secure.'
p869
NsS'Broadband hooked up to this wireless setup flies.'
p870
(dp871
S'Broadband'
p872
S'+3]'
p873
ssS'Because of that, a bunch of really smart people sat down and figured out how to make the Linksys WRT54G run their own custom firmware.'
p874
NsS'The purchase of a router is one of the best things you can do to protect yourself these days.'
p875
NsS"I'm disappoointed Linksys still doesn't allow mapping specific IP addressses in DHCP (what Windows Server people call Reservations)."
p876
NsS'Now to get you, they have to trick you into accessing them by sending E-mails, or otherwise enticing you into downloading their mal-ware.'
p877
NsS'little to no networking experience, just in case the automatic CD method has issues.'
p878
(dp879
S'CD'
p880
S'-2][u]'
p881
ssS"It's probably a fine router, but I found the install wizard to be of poor quality."
p882
(dp883
S' router'
p884
S'+1]'
p885
sS'install'
p886
S'-2'
p887
ssS'Setup in XP was instant and intuitive.'
p888
(dp889
S'Setup'
p890
S'+3]'
p891
ssS'It is attached to my desktop a P4 at 2.6 Ghz running Win XP Home.'
p892
NsS"You don't have to monkey with the PC config."
p893
NsS"And it is EXTREMELY well-priced for what you're getting."
p894
(dp895
S'well-priced'
p896
S'+2]'
p897
ssS'Its the easiest thing to setup i thought, and i am only 16...So with all that said, BUY THE ROUTER!!!!'
p898
(dp899
S' ROUTER'
p900
S'+][s]'
p901
sS'setup'
p902
S'+2'
p903
ssS'Knocked 1 star off for the install wizard - it wasted alot of time running it.'
p904
(dp905
S'wizard'
p906
S'-2'
p907
ssS"It's no wonder many new PCs ship with full hard drive images on DVDs, so you can restore your system back to as-shipped condition."
p908
NsS'The transmission speed is also quite good, with pages loading very quickly.'
p909
(dp910
S'transmission speed'
p911
S'+2]'
p912
ssS'Pros.1.Speed  2. Signal Strength  3.Advanced Configuration Options'
p913
(dp914
S'signal'
p915
S'+2'
p916
sS'Speed'
p917
S'+2][u'
p918
sS'Configuration Options'
p919
S'+2'
p920
ssS'Well Linksys was one of the original big players in the router industry.'
p921
(dp922
S'Linksys'
p923
S'+3]'
p924
ssS'The router comes with a TON of options for setup, but sadly enough, I had no idea what most of it meant.'
p925
NsS'If I did not know anything about networking whatsoever, I might be stumped at this point.'
p926
NsS'I recently bought the Linksys G-Router after getting my hp laptop needing to setup wireless at home.'
p927
NsS'When I went into the living room, it went to very good instead of excellent, and gave me 37Mbps.'
p928
NsS'Do not use this thing without Wireless Encryption.'
p929
NsS'But if you want to get into networking and running wireless.'
p930
NsS'SSID are like filenames in Windows.'
p931
NsS"Since you are connecting a router in-between the cable modem and the internet, the Mac address must be copied because its what's recognized by the your network service provider to identify you on their network."
p932
NsS'It did not take me that long to set this up, but it did require *not* following the instructions.'
p933
NsS'My ISP had me up and running within 5 minutes.'
p934
NsS'It may take several attempts, and reading a lot of FAQs or network help sites to fix some of these issues.'
p935
NsS'It was a very quick setup and installation, in fact the disc that it comes with pretty much makes sure you cant mess it up.'
p936
(dp937
S'setup'
p938
S'+2'
p939
sS' installation'
p940
S'+2]'
p941
ssS'My Xbox connection seems as good as with a cable.'
p942
(dp943
S'connection+3]'
p944
S'connection+3]'
p945
ssS'I purchased the router and 1 Linksys WPC54G Wireless 54g PC Card.'
p946
NsS"to the wrld of wireless and it couldn't have gone better."
p947
NsS'The card basically installed itself and the "install wizard" on the CD that came with the router basically set the router up to work with one computer (with the 54g card) and also a second computer in my house (with an 11b card).'
p948
(dp949
S'wizard'
p950
S'+1][u]'
p951
ssS'! and step by step explanations for all the different setup options and their relevance.'
p952
NsS"If you need convincing on the security side, read Wireless Hacks, (this is a book of excellent tips, not just security), published by O'Reilly."
p953
NsS'Ok, so what can we say about this particular network product?'
p954
NsS"It took me about an hour to set up a wireless environment in her townhouse and she hasn't called me yet with any problems."
p955
(dp956
S'set up'
p957
S'+2][u]'
p958
ssS"Simply put, the hardware is just too small to run Linux, which is a really bummer since I found it fun to play with my Linksys WRT54G's firmware."
p959
NsS'However, this product performed well below my expectation.'
p960
(dp961
S'router'
p962
S'-2][p]'
p963
ssS'With wireless routers, you have another potential hole, "the wireless connection".'
p964
NsS'Then, the hardest bit was to figure out how to disable the router and the DHCP services so that all computers woul!'
p965
NsS'Linksys is more costlier than others and is a home/consumer division of Cisco.'
p966
(dp967
S'costlier'
p968
S'-1][u]'
p969
ssS"This is universal across every brand I've worked with."
p970
NsS'The new wireless router contained large warnings to run the CD first before trying to connect it.'
p971
NsS"It's very frustrating to try to complete school work or work, only to lose it because I am dropped every couple of minutes."
p972
NsS'Within 10 minutes I was surfing the web from all over the house.'
p973
NsS"The setup wasn't quite perfect the first time -- I needed to go through a web-based interface to set up the router (to give  it info on my DSL provider account), though the documentation for this was staightforward."
p974
(dp975
S' documentation'
p976
S'+1]'
p977
sS'setup'
p978
S'-1'
p979
ssS"I still need to read up on some of the security settings, etc to fully understand all that's up there, but bottom-line is that the installation was like night and day compared to the Speedboost router."
p980
(dp981
S'installation'
p982
S'+][cs]'
p983
ssS"True, you don't need more than an access point, and a wired one at that, to use as a protective firewall."
p984
NsS'Yes, the 1-800 number probably redirected me to someone in India, but the guy was easy to understand, and he helped solve the problem.'
p985
(dp986
S'1-800'
p987
S'+2][u]'
p988
ssS'Of course your data, and installed programs are gone if you do that.'
p989
NsS'This model appears to be especially good.'
p990
(dp991
S'model'
p992
S'+2][p]'
p993
ssS'All of the wireless components that I bought were a breeze to set up as well.'
p994
(dp995
S'set up'
p996
S'+3]'
p997
ssS'They strongly recommended that you use the CD rather than manually configure, and they were right.'
p998
NsS'en I opened the box I found little more than a few advertisement flyers and instructions to run the enclosed CD before plugging in the router.'
p999
NsS'There is not a word about satellite issues in either the user guide or the "knowledge" database at linksys.com, and first tech support person I spoke with kept me on the phone for an hour, then gave me a web site address to consult--that turned out to be the one I\'d already found during a search of my own.'
p1000
(dp1001
S'tech support'
p1002
S'-3'
p1003
sS' user guide'
p1004
S'-1]'
p1005
ssS'Having seen the problems that some others were having with setup, only to be resolved (some of them) by exactly following the directions, I decided to do it that way right out of the box.'
p1006
NsS"This is especially true if you don't need the!"
p1007
NsS'speed of a wired connection.'
p1008
NsS'The box is upstairs, and in the farthest room I get connected at 11-18M speed - that is similar to the older 10M ethernet standard.'
p1009
(dp1010
S'speed'
p1011
S'+2]'
p1012
ssS'All lights blink, and you can still access other computers on wired and wireless LAN.'
p1013
NsS'Another 5 star performance.'
p1014
(dp1015
S'performance'
p1016
S'+3][u]'
p1017
ssS'It took me three days, to the tune of Neil Young\'s song "Piece Of Cr--!", to get this to work with the satellite hookup I was hired to connect this wireless network up to.'
p1018
(dp1019
S'satellite'
p1020
S'-2][u]'
p1021
ssS',I finally figured out that the modem could not support the wireless router and it had a short, plus RCA no longer carried it and the thing was ugly, taking up space.'
p1022
NsS'Basically, I set up the box to work as "router" (!'
p1023
NsS'If you just use the router to surf the web, this router should serve your needs.'
p1024
NsS'I had an old wired Linksys router.'
p1025
NsS'Although it will work for a few minutes, it will eventually hang.'
p1026
NsS'That only happens every so often, but its not that big of a drawback really, just a little slower than usual.'
p1027
NsS'I got it working fast enough.'
p1028
(dp1029
S'working'
p1030
S'+2]'
p1031
ssS'HOWEVER, configuration of my system and actual setup of the router for wireless use took me more than 3 hours, and briefly made me reconsider my choice to forego the airport and its notoriously easy setup.'
p1032
(dp1033
S'configuration'
p1034
S'-2][cc]'
p1035
ssS'The UPnP and NAT traversal features have some kinks that will be hopefully fixed in the later versions of the firmware.'
p1036
NsS'Linksys quality and tech support have been outstanding.'
p1037
(dp1038
S' tech support'
p1039
S'+3]'
p1040
sS'quality'
p1041
S'+3'
p1042
ssS"I'm glad I did."
p1043
NsS'I tried the CD setup program without any luck.'
p1044
(dp1045
S'CD'
p1046
S'-2]'
p1047
ssS'Overall, this router seems like a reasonably priced product th!'
p1048
(dp1049
S'priced'
p1050
S'+2]'
p1051
ssS'They do supply instructions when using Windows ME, 98 etc, that includes one more step than XP.'
p1052
NsS'4 was much more easier to setup but had slower speeds and not as configurable as this.'
p1053
NsS'That is, you cannot access the internet at all.'
p1054
(dp1055
S'access'
p1056
S'-2][u]'
p1057
ssS'I replaced my D-link 802.11b router because it could not hold a connection continuously.'
p1058
NsS'By no means do you have to be a tech junkie to be able to install it, just be able to put a CD in the computer and it tells you what to do.'
p1059
(dp1060
S'install'
p1061
S'+3'
p1062
ssS'There is also a Panasonic cordless phone (2.4 Ghz) between the wap and the ethernet bridge but it never causes a problem.'
p1063
NsS'The tough part was deciding whether or not I needed the "Speedbooster" version.'
p1064
NsS'In addition, your port address is now the router, not your computer.'
p1065
NsS'I first purchased the Wireless G with Speedbooster.'
p1066
NsS'My experience with installation was quite good.'
p1067
(dp1068
S'installation'
p1069
S'+2]'
p1070
ssS'In fact, it supports the new WPA encryption standard, which is WAY better than WEP.'
p1071
(dp1072
S'WPA encryption'
p1073
S'+1]'
p1074
ssS'Expect about 10MBps and not more though!'
p1075
NsS'Nothing came to mind.'
p1076
NsS'Worth every penny plus for those who are really into networking.'
p1077
NsS'ID on their router.'
p1078
NsS'They have the large amounts of RAM and still run Linux.'
p1079
NsS'You have to look to the Net, tech service help lines, and FAQ sites on your router, to find out how to solve most of the typical problems.'
p1080
NsS'Then this is the way to go.'
p1081
NsS'BEST SECURITY PRACTICES I RECOMMEND...  Pick a UNIQUE SSID.'
p1082
NsS'As far as Linksys goes, I have used several of their products and they seem to hold up well - no problems.'
p1083
(dp1084
S'Linksys'
p1085
S'+2]'
p1086
ssS"If you have a Mac, I don't think you should totally discount this product."
p1087
NsS"ter finds the router anyway, but it's unsecured."
p1088
NsS'I was able to use t!'
p1089
NsS'Bought this a few months ago with the Laptop card.'
p1090
NsS"I'd give it 4.5 stars if possible, but since 5 stars would be misleading, I give it 4 stars."
p1091
(dp1092
S'router'
p1093
S'+2][p]'
p1094
ssS'I was waiting for wireless to be faster then 11mbs.'
p1095
NsS"I was fed up and turned to WRT54G because of its positive reviews, good past experience with wired routers and frequent firmware updates to correct any bugs.   router[+2] ##I'm happy to say that this router was exactly what I was looking for."
p1096
NsS'And provides near zero-statistics.'
p1097
NsS"The quality is significant and you'll be very happy from saving time and the headache."
p1098
(dp1099
S'quality'
p1100
S'+2]'
p1101
ssS"When I saw a high gain (low price) antenna was available to the WRT54G router, I thought I'd happily give up some (practically unattainable anyway, since you've got to be in spitting distance from the router) speed in favour of wider coverage."
p1102
(dp1103
S'antenna'
p1104
S'+1]'
p1105
ssS'It turns out to be copyright 2002 and much inferior to the 2005 manual included on the CD.'
p1106
NsS"(Didn't find that out until I talked to someone in technical support an hour later."
p1107
NsS'I bought this in order to upgrade from an old 802.11b router to g technology, and I spent several hours trying to get it to work.'
p1108
NsS'Though admittedly I am a novice at networking, I am not an idiot and can read directions.'
p1109
NsS'You may only have one computer.'
p1110
NsS'Now that the 11g spec is final, and a new firmware has been released supporting it, the WRT54G is a serious contender for your wireless network.'
p1111
NsS"My new Toshiba M35-S359's Wi-Fi capabilities became apparent when I took it on th eroad over Thanksgiving."
p1112
NsS'ying to point out they have experience, and so the reliability of the connection you get is among the best.'
p1113
(dp1114
S'reliability'
p1115
S'+2]'
p1116
ssS'The PC card setup was painless as well.'
p1117
NsS"I even downloaded the product's user manual - useless."
p1118
(dp1119
S'user manual'
p1120
S'-2]'
p1121
ssS'(...)  Like most SOHO routers, it has nearly non-existant logging.'
p1122
(dp1123
S'logging'
p1124
S'-1]'
p1125
ssS'You need to be careful not to just take down so much security that you allow the bad guys back in your system.'
p1126
NsS'Easy and a basic step, but if you have suspicious teenae computer geeks in the area, maybe not enough for privacy.'
p1127
NsS') that use some type of connect standard where the OS does all the work.'
p1128
NsS'Comes with a installation CD which instructs you step by step to setting up the router.'
p1129
(dp1130
S'installation'
p1131
S'+2]'
p1132
ssS'But the product iself is great.'
p1133
(dp1134
S'product'
p1135
S'+3][p]'
p1136
ssS"Even though the WET11 is a B standard I knew that this router would be compatiable and in the future I plan to link 2 other PC's too it ."
p1137
NsS'These generally range from not connecting at all, to hosting !'
p1138
NsS'ell you to shut off, and turning on what and when they tell you to turn things on, resulted in a delightful install.'
p1139
NsS'Just no internet.'
p1140
NsS"Yes, that makes women capable of installing these, there's no heavy lifting involved, just some focused thought."
p1141
NsS'This concept seems to be unusual.'
p1142
NsS'In my opinion a year is a good service time for a device, I dont expect this router or any other to work great for more than a year.'
p1143
NsS"Make sure you read the documentation CLEARLY if you dont know what you're doing."
p1144
NsS'Even the PDF manual that comes with it is pretty vague for someone not familiar with "MAC settings", etc.'
p1145
(dp1146
S'manual'
p1147
S'-2][u]'
p1148
ssS'The performance of the router itself deserves 5 stars, but the Linksys documentation and support is so poor that I can only give it 4.'
p1149
(dp1150
S' documentation'
p1151
S'-2'
p1152
sS'performance'
p1153
S'+3'
p1154
sS' support'
p1155
S'-2][u]'
p1156
ssS'So, if you type in "Linksys firmware" into Google or A9, you will get a list of websites that have custom firmware for various kinds of Linksys Routers (Linksys makes a few routers that run Linux).'
p1157
NsS'MAC filtering stops visitors from using your network but they can still spy on your traffic.'
p1158
NsS'Works perfectly with my netgear wireless PCMCIA.'
p1159
(dp1160
S'Works'
p1161
S'+3][u]'
p1162
ssS'Best practice is learn how to setup encryption.'
p1163
NsS"You will not be able to run 100's users using WPA and WPA2 encryption through this thing, just a handful of people on a cable modem or DSL line."
p1164
NsS'A great service which I highly recommend.'
p1165
NsS'Granted, I am a professional technologist with years of experience.'
p1166
NsS'All in all this is a 5 star piece of equipment.'
p1167
(dp1168
S'equipment'
p1169
S'+3'
p1170
ssS"* I'm giving it 4 stars because the setup process was so miserable."
p1171
(dp1172
S'setup'
p1173
S'-2]'
p1174
ssS'I did know about this from researching on the internet before purchasing it, but I bought it anyway.'
p1175
NsS"What is important is that your internet connection will never even approach the speed capabilities of this router, so don't hassle yourself with any concerns over varying connect speeds of the wireless network."
p1176
NsS'You can prevent any, and all file transfers to your PC.'
p1177
NsS'Both of them keep disconnecting on me and interruptions are 3 or 4 times per day at best.'
p1178
(dp1179
S'disconnecting'
p1180
S'-2][u]'
p1181
ssS"If that happens, you'll want to save money by sharing the Internet connection, rather than pay for two services or more, at multiple single-connect prices."
p1182
NsS'Just make sure to get someone to help you configure the encryption if you can not do it yourself.'
p1183
NsS'The CD determined my internet connection, determined my system configuration, asked me a few questions, and bingo I was up and running.'
p1184
NsS'The setup was very easy.'
p1185
(dp1186
S'setup'
p1187
S'+3]'
p1188
ssS'If you want to work wirelessly, this router does just what you want it to do and my geek friends say that the security is as good as it gets right now.'
p1189
(dp1190
S' security'
p1191
S'+2]'
p1192
sS'work'
p1193
S'+2'
p1194
ssS'On the subject of Third Party firmware; Linksys WRT54G versions 1 through 4 run Linux.'
p1195
NsS'If you are a tech person and want to really play with your WRT54G, sorry, but you need to get the WRT54GS router.'
p1196
NsS'This setup using the CD was about as easy as learning how to open a refrigerator door for the first time.'
p1197
(dp1198
S'CD'
p1199
S'+3]'
p1200
ssS'So I ran the CD, but doing that did not yield any results - my wired router was apparently too old, so the CD s/w did not recognize it.'
p1201
NsS'The box proudly displays "SecureEasySetup (TM)" "Wireless Made Simple" "One Touch Setup Button" "Easy Start" "Easy Security" "Easy Everyday"   Apparently Linksys/Cisco knows that ease of setup is crucial.'
p1202
(dp1203
S'setup'
p1204
S'-2]'
p1205
ss.