(lp0
((lp1
S'This'
p2
aS'router'
p3
aS'does'
p4
aS'everything'
p5
aS'that'
p6
aS'it'
p7
aS'is'
p8
aS'supposed'
p9
aS'to'
p10
aS'do,'
p11
aS'so'
p12
aS'i'
p13
aS'dont'
p14
aS'really'
p15
aS'know'
p16
aS'how'
p17
aS'to'
p18
aS'talk'
p19
aS'that'
p20
aS'bad'
p21
aS'about'
p22
aS'it.'
p23
aS'pos'
p24
tp25
a((lp26
S'It'
p27
aS'was'
p28
aS'a'
p29
aS'very'
p30
aS'quick'
p31
aS'setup'
p32
aS'and'
p33
aS'installation,'
p34
aS'in'
p35
aS'fact'
p36
aS'the'
p37
aS'disc'
p38
aS'that'
p39
aS'it'
p40
aS'comes'
p41
aS'with'
p42
aS'pretty'
p43
aS'much'
p44
aS'makes'
p45
aS'sure'
p46
aS'you'
p47
aS'cant'
p48
aS'mess'
p49
aS'it'
p50
aS'up.'
p51
ag24
tp52
a((lp53
S'By'
p54
aS'no'
p55
aS'means'
p56
aS'do'
p57
aS'you'
p58
aS'have'
p59
aS'to'
p60
aS'be'
p61
ag29
aS'tech'
p62
aS'junkie'
p63
aS'to'
p64
aS'be'
p65
aS'able'
p66
aS'to'
p67
aS'install'
p68
aS'it,'
p69
aS'just'
p70
aS'be'
p71
aS'able'
p72
aS'to'
p73
aS'put'
p74
ag29
aS'CD'
p75
aS'in'
p76
aS'the'
p77
aS'computer'
p78
aS'and'
p79
aS'it'
p80
aS'tells'
p81
aS'you'
p82
aS'what'
p83
aS'to'
p84
aS'do.'
p85
ag24
tp86
a((lp87
S'It'
p88
aS'works'
p89
aS'great,'
p90
ag13
aS'am'
p91
aS'usually'
p92
aS'at'
p93
aS'the'
p94
aS'full'
p95
aS'54'
p96
aS'mbps,'
p97
aS'although'
p98
aS'every'
p99
aS'now'
p100
aS'and'
p101
aS'then'
p102
aS'that'
p103
aS'drops'
p104
aS'to'
p105
aS'around'
p106
aS'36'
p107
aS'mbps'
p108
aS'only'
p109
aS'because'
p110
ag13
aS'am'
p111
aS'2'
p112
aS'floors'
p113
aS'below'
p114
aS'where'
p115
aS'the'
p116
aS'router'
p117
aS'is.'
p118
ag24
tp119
a((lp120
S'That'
p121
aS'only'
p122
aS'happens'
p123
aS'every'
p124
aS'so'
p125
aS'often,'
p126
aS'but'
p127
aS'its'
p128
aS'not'
p129
aS'that'
p130
aS'big'
p131
aS'of'
p132
ag29
aS'drawback'
p133
aS'really,'
p134
aS'just'
p135
ag29
aS'little'
p136
aS'slower'
p137
aS'than'
p138
aS'usual.'
p139
aS'neutral'
p140
tp141
a((lp142
S'It'
p143
aS'really'
p144
aS'is'
p145
ag29
aS'great'
p146
aS'buy'
p147
aS'if'
p148
aS'you'
p149
aS'are'
p150
aS'lookin'
p151
aS'at'
p152
aS'having'
p153
aS'just'
p154
aS'one'
p155
aS'modem'
p156
aS'but'
p157
aS'many'
p158
aS'computers'
p159
aS'around'
p160
aS'the'
p161
aS'house.'
p162
ag24
tp163
a((lp164
S'There'
p165
aS'are'
p166
aS'3'
p167
aS'computers'
p168
aS'in'
p169
aS'my'
p170
aS'house'
p171
aS'all'
p172
aS'getting'
p173
aS'wireless'
p174
aS'connection'
p175
aS'from'
p176
aS'this'
p177
aS'router,'
p178
aS'and'
p179
aS'everybody'
p180
aS'is'
p181
aS'happy'
p182
aS'with'
p183
aS'it.'
p184
ag24
tp185
a((lp186
S'I'
p187
aS'do'
p188
aS'not'
p189
aS'really'
p190
aS'know'
p191
aS'why'
p192
aS'some'
p193
aS'people'
p194
aS'are'
p195
aS'tearing'
p196
aS'this'
p197
aS'router'
p198
aS'!'
p199
ag140
tp200
a((lp201
S'apart'
p202
aS'on'
p203
aS'their'
p204
aS'reviews,'
p205
aS'they'
p206
aS'are'
p207
aS'talking'
p208
aS'about'
p209
aS'installation'
p210
aS'problems'
p211
aS'and'
p212
aS'what'
p213
aS'not.'
p214
ag140
tp215
a((lp216
S'Its'
p217
aS'the'
p218
aS'easiest'
p219
aS'thing'
p220
aS'to'
p221
aS'setup'
p222
ag13
aS'thought,'
p223
aS'and'
p224
ag13
aS'am'
p225
aS'only'
p226
aS'16...So'
p227
aS'with'
p228
aS'all'
p229
aS'that'
p230
aS'said,'
p231
aS'BUY'
p232
aS'THE'
p233
aS'ROUTER!!!!'
p234
ag24
tp235
a((lp236
S"It's"
p237
aS'probably'
p238
ag29
aS'fine'
p239
aS'router,'
p240
aS'but'
p241
ag187
aS'found'
p242
aS'the'
p243
aS'install'
p244
aS'wizard'
p245
aS'to'
p246
aS'be'
p247
aS'of'
p248
aS'poor'
p249
aS'quality.'
p250
ag140
tp251
a((lp252
S'If'
p253
aS'you'
p254
aS'have'
p255
aS'good'
p256
aS'networking'
p257
aS'knowledge,'
p258
aS"you'll"
p259
aS'abandon'
p260
aS'the'
p261
aS'wizard,'
p262
aS'use'
p263
aS'the'
p264
aS'100-page'
p265
aS'online'
p266
aS'manual,'
p267
aS'and'
p268
aS'be'
p269
aS'fine.'
p270
ag140
tp271
a((lp272
g187
aS'know'
p273
aS'more'
p274
aS'about'
p275
aS'networking'
p276
aS'than'
p277
aS'70%'
p278
aS'of'
p279
aS'the'
p280
aS'consumers'
p281
aS'out'
p282
aS'there,'
p283
aS'so'
p284
ag187
aS'was'
p285
aS'able'
p286
aS'to'
p287
aS'puzzle'
p288
aS'my'
p289
aS'way'
p290
aS'through'
p291
aS'it,'
p292
aS'but'
p293
aS'only'
p294
aS'by'
p295
aS'second'
p296
aS'guessing'
p297
aS'the'
p298
aS'documentation'
p299
aS'at'
p300
aS'various'
p301
aS'stages.'
p302
ag140
tp303
a((lp304
S'The'
p305
aS'Wizard'
p306
aS'is'
p307
aS'particularly'
p308
aS'sinister.'
p309
aS'neg'
p310
tp311
a((lp312
S'It'
p313
aS'just'
p314
aS'tells'
p315
aS'you'
p316
aS'to'
p317
aS'start'
p318
aS'disconnecting'
p319
aS'and'
p320
aS'attaching'
p321
aS'cables'
p322
aS'without'
p323
aS'any'
p324
aS'input'
p325
aS'as'
p326
aS'to'
p327
aS'whether'
p328
aS'your'
p329
aS'current'
p330
aS'setup'
p331
aS'includes'
p332
ag29
aS'pre-existing'
p333
aS'router'
p334
aS'(mine'
p335
aS'does),'
p336
aS'without'
p337
aS'any'
p338
aS'clarity'
p339
aS'as'
p340
aS'to'
p341
aS'whether'
p342
aS'you'
p343
aS'should'
p344
aS'be'
p345
aS'running'
p346
aS'the'
p347
aS'wizard'
p348
aS'on'
p349
ag29
aS'hard-wired'
p350
aS'PC'
p351
aS'or'
p352
ag29
aS'wireless'
p353
aS'equipped'
p354
aS'PC.'
p355
ag310
tp356
a((lp357
S'After'
p358
aS'asking'
p359
aS'for'
p360
ag29
aS'password'
p361
aS'(Is'
p362
aS'it'
p363
aS'asking'
p364
aS'me'
p365
aS'to'
p366
aS'set'
p367
ag29
aS'password'
p368
aS'or'
p369
aS'am'
p370
ag187
aS'supposed'
p371
aS'to'
p372
aS'know'
p373
aS'from'
p374
aS'page'
p375
aS'20'
p376
aS'of'
p377
aS'the'
p378
aS'manual'
p379
aS'that'
p380
aS'the'
p381
aS'factory'
p382
aS'set'
p383
aS'password'
p384
aS'is'
p385
aS'"admin"?)'
p386
aS'it'
p387
aS'refused'
p388
aS'to'
p389
aS'go'
p390
aS'past'
p391
aS'step'
p392
aS'8.'
p393
ag140
tp394
a((lp395
S'These'
p396
aS'are'
p397
aS'just'
p398
aS'some'
p399
aS'of'
p400
aS'the'
p401
aS'pathetic'
p402
aS'examples.'
p403
ag140
tp404
a((lp405
S'They!'
p406
ag140
tp407
a((lp408
S'provide'
p409
aS'no'
p410
aS'printed'
p411
aS'manual.'
p412
ag140
tp413
a((lp414
g187
aS'had'
p415
aS'downloaded'
p416
aS'the'
p417
aS'112'
p418
aS'page'
p419
aS'manual'
p420
aS'from'
p421
aS'the'
p422
aS'Linksys'
p423
aS'Website.'
p424
ag140
tp425
a((lp426
S'Stupid'
p427
aS'me.'
p428
ag140
tp429
a((lp430
S'It'
p431
aS'turns'
p432
aS'out'
p433
aS'to'
p434
aS'be'
p435
aS'copyright'
p436
aS'2002'
p437
aS'and'
p438
aS'much'
p439
aS'inferior'
p440
aS'to'
p441
aS'the'
p442
aS'2005'
p443
aS'manual'
p444
aS'included'
p445
aS'on'
p446
aS'the'
p447
aS'CD.'
p448
ag140
tp449
a((lp450
S'But'
p451
aS'can'
p452
aS'you'
p453
aS'decide'
p454
aS'to'
p455
aS'access'
p456
aS'the'
p457
aS'CD'
p458
aS'manual'
p459
aS'once'
p460
aS'you'
p461
aS'have'
p462
aS'started'
p463
aS'the'
p464
aS'Wizard?'
p465
ag140
tp466
a((lp467
S'No,'
p468
aS'of'
p469
aS'course'
p470
aS'not.'
p471
ag140
tp472
a((lp473
S'You'
p474
aS'have'
p475
aS'to'
p476
aS'completely'
p477
aS'exit'
p478
aS'the'
p479
aS'Wizard'
p480
aS'and'
p481
aS're-start'
p482
aS'the'
p483
aS'CD'
p484
aS'in'
p485
aS'order'
p486
aS'to'
p487
aS'find'
p488
aS'the'
p489
aS'"User'
p490
aS'Guide"'
p491
aS'tab'
p492
aS'which'
p493
aS'loads'
p494
aS'the'
p495
aS'manual.'
p496
ag140
tp497
a((lp498
S'The'
p499
aS'box'
p500
aS'proudly'
p501
aS'displays'
p502
aS'"SecureEasySetup'
p503
aS'(TM)"'
p504
aS'"Wireless'
p505
aS'Made'
p506
aS'Simple"'
p507
aS'"One'
p508
aS'Touch'
p509
aS'Setup'
p510
aS'Button"'
p511
aS'"Easy'
p512
aS'Start"'
p513
aS'"Easy'
p514
aS'Security"'
p515
aS'"Easy'
p516
aS'Everyday"'
p517
aS'Apparently'
p518
aS'Linksys/Cisco'
p519
aS'knows'
p520
aS'that'
p521
aS'ease'
p522
aS'of'
p523
aS'setup'
p524
aS'is'
p525
aS'crucial.'
p526
ag310
tp527
a((lp528
S'It'
p529
aS'just'
p530
aS"doesn't"
p531
aS'follow'
p532
aS'through'
p533
aS'in'
p534
aS'any'
p535
aS'consumer-tested'
p536
aS'way.'
p537
ag140
tp538
a((lp539
g187
aS"don't"
p540
aS'know'
p541
aS'if'
p542
aS'Netgear,'
p543
aS'D-Link,'
p544
aS'etc'
p545
aS'are'
p546
aS'any'
p547
aS'better.'
p548
ag140
tp549
a((lp550
S'If'
p551
aS"you're"
p552
aS'buying'
p553
aS'this'
p554
aS'product'
p555
aS'and'
p556
aS'operate'
p557
aS'on'
p558
ag29
aS'Mac'
p559
aS'platform,'
p560
aS'ditch'
p561
aS'the'
p562
aS'CD'
p563
aS'and'
p564
aS'go'
p565
aS'directly'
p566
aS'to'
p567
aS'live'
p568
aS'assistance'
p569
aS'on'
p570
aS'the'
p571
aS'Linksys'
p572
aS'website.'
p573
ag140
tp574
a((lp575
g187
aS'recently'
p576
aS'bought'
p577
aS'the'
p578
aS'Linksys'
p579
aS'WRT54G'
p580
aS'router'
p581
aS'and'
p582
aS'have'
p583
aS'been'
p584
aS'very'
p585
aS'happy'
p586
aS'with'
p587
aS'the'
p588
aS'router'
p589
aS'itself.'
p590
ag24
tp591
a((lp592
g187
aS'run'
p593
aS'on'
p594
aS'Mac'
p595
aS'OSX,'
p596
aS'and'
p597
aS'though'
p598
ag187
aS'considered'
p599
aS'getting'
p600
aS'the'
p601
aS'whole'
p602
aS'Apple'
p603
aS'airport'
p604
aS'setup,'
p605
aS'the'
p606
aS'cost'
p607
aS'difference'
p608
aS'between'
p609
aS'the'
p610
aS'Airport'
p611
aS'and'
p612
aS'the'
p613
aS'latest'
p614
aS'model'
p615
aS'Linksys'
p616
aS'pretty'
p617
aS'much'
p618
aS'left'
p619
aS'no'
p620
aS'comparison.'
p621
ag140
tp622
a((lp623
S'(The'
p624
aS'Airport'
p625
aS'was'
p626
aS'more'
p627
aS'than'
p628
aS'twice'
p629
aS'the'
p630
aS'Linksys'
p631
aS'router.)'
p632
ag140
tp633
a((lp634
S'HOWEVER,'
p635
aS'configuration'
p636
aS'of'
p637
aS'my'
p638
aS'system'
p639
aS'and'
p640
aS'actual'
p641
aS'setup'
p642
aS'of'
p643
aS'the'
p644
aS'router'
p645
aS'for'
p646
aS'wireless'
p647
aS'use'
p648
aS'took'
p649
aS'me'
p650
aS'more'
p651
aS'than'
p652
ag167
aS'hours,'
p653
aS'and'
p654
aS'briefly'
p655
aS'made'
p656
aS'me'
p657
aS'reconsider'
p658
aS'my'
p659
aS'choice'
p660
aS'to'
p661
aS'forego'
p662
aS'the'
p663
aS'airport'
p664
aS'and'
p665
aS'its'
p666
aS'notoriously'
p667
aS'easy'
p668
aS'setup.'
p669
ag310
tp670
a((lp671
g187
aS'am'
p672
ag29
aS'generally'
p673
aS'computer-savvy'
p674
aS'person;'
p675
aS'not'
p676
aS'an'
p677
aS'IT'
p678
aS'expert'
p679
aS'by'
p680
aS'any'
p681
aS'means'
p682
aS'(which'
p683
aS'is'
p684
aS'what'
p685
aS'router'
p686
aS'configuration'
p687
aS'sometimes'
p688
aS'seems'
p689
aS'to'
p690
aS'require),'
p691
aS'but'
p692
ag187
aS'can'
p693
aS'install'
p694
aS'and'
p695
aS'manage'
p696
aS'most'
p697
aS'computer'
p698
aS'stuff'
p699
aS'without'
p700
aS'too'
p701
aS'much'
p702
aS'support.'
p703
ag140
tp704
a((lp705
S'But'
p706
aS'wh!'
p707
ag140
tp708
a((lp709
S'en'
p710
ag187
aS'opened'
p711
aS'the'
p712
aS'box'
p713
ag187
aS'found'
p714
aS'little'
p715
aS'more'
p716
aS'than'
p717
ag29
aS'few'
p718
aS'advertisement'
p719
aS'flyers'
p720
aS'and'
p721
aS'instructions'
p722
aS'to'
p723
aS'run'
p724
aS'the'
p725
aS'enclosed'
p726
aS'CD'
p727
aS'before'
p728
aS'plugging'
p729
aS'in'
p730
aS'the'
p731
aS'router.'
p732
ag140
tp733
a((lp734
S'Too'
p735
aS'bad'
p736
aS'they'
p737
aS"don't"
p738
aS'mention'
p739
aS'anything'
p740
aS'about'
p741
aS'how'
p742
aS'the'
p743
aS'CD'
p744
aS"can't"
p745
aS'be'
p746
aS'used'
p747
aS'with'
p748
ag29
aS'Mac.'
p749
ag310
tp750
a((lp751
S"(Didn't"
p752
aS'find'
p753
aS'that'
p754
aS'out'
p755
aS'until'
p756
ag187
aS'talked'
p757
aS'to'
p758
aS'someone'
p759
aS'in'
p760
aS'technical'
p761
aS'support'
p762
aS'an'
p763
aS'hour'
p764
aS'later.'
p765
ag140
tp766
a((lp767
S')'
p768
aS'After'
p769
aS'messing'
p770
aS'about'
p771
ag29
aS'bit'
p772
aS'with'
p773
aS'the'
p774
aS'CD,'
p775
ag187
aS'went'
p776
aS'online'
p777
aS'to'
p778
aS'the'
p779
aS'Linksys'
p780
aS'site'
p781
aS'to'
p782
aS'look'
p783
aS'for'
p784
aS'support'
p785
aS'tips.'
p786
ag140
tp787
a((lp788
g187
aS'even'
p789
aS'downloaded'
p790
aS'the'
p791
aS"product's"
p792
aS'user'
p793
aS'manual'
p794
aS'-'
p795
aS'useless.'
p796
ag310
tp797
a((lp798
S'The'
p799
aS'Linksys'
p800
aS'technical'
p801
aS'support'
p802
aS'site'
p803
aS'has'
p804
aS'nothing'
p805
aS'about'
p806
aS'configuring'
p807
aS'the'
p808
aS'router'
p809
aS'for'
p810
aS'use'
p811
aS'with'
p812
ag29
aS'Mac.'
p813
ag310
tp814
a((lp815
S"It's"
p816
aS'like'
p817
aS'they'
p818
aS'want'
p819
aS'to'
p820
aS'pretend'
p821
aS'that'
p822
aS'Apple'
p823
aS"doesn't"
p824
aS'exist'
p825
aS'or'
p826
aS'something.'
p827
ag140
tp828
a((lp829
S'But'
p830
aS'eventually'
p831
ag187
aS'found'
p832
aS'my'
p833
aS'way'
p834
aS'to'
p835
aS'live'
p836
aS'assistance'
p837
aS'through'
p838
aS'their'
p839
aS'site'
p840
aS'(thank'
p841
aS'GOODNESS),'
p842
aS'where'
p843
aS'someone'
p844
aS'was'
p845
aS'able'
p846
aS'to'
p847
aS'give'
p848
aS'me'
p849
aS'adequate'
p850
aS'instructions'
p851
aS'to'
p852
aS'configure'
p853
aS'the'
p854
aS'router'
p855
aS'so'
p856
aS'that'
p857
ag187
aS'could'
p858
aS'at'
p859
aS'least'
p860
aS'use'
p861
aS'it.'
p862
ag140
tp863
a((lp864
g187
aS'say'
p865
aS'adequate'
p866
aS'because'
p867
aS'it'
p868
aS'was'
p869
aS'enough'
p870
aS'to'
p871
aS'get'
p872
aS'wireless'
p873
aS'working,'
p874
aS'but'
p875
aS'nowhere'
p876
aS'near'
p877
aS'enough'
p878
aS'instruction'
p879
aS'to'
p880
aS'do'
p881
aS'the'
p882
aS'proper'
p883
aS'configuration'
p884
aS'job'
p885
aS'that'
p886
ag187
aS'could'
p887
aS'have'
p888
aS'done'
p889
aS'if'
p890
aS'so!'
p891
ag310
tp892
a((lp893
S'meone'
p894
aS'would'
p895
aS'just'
p896
aS'give'
p897
aS'me'
p898
aS'some'
p899
aS'instructions'
p900
aS'in'
p901
aS'plain'
p902
aS'English.'
p903
ag140
tp904
a((lp905
S'The'
p906
aS'router'
p907
aS'comes'
p908
aS'with'
p909
ag29
aS'TON'
p910
aS'of'
p911
aS'options'
p912
aS'for'
p913
aS'setup,'
p914
aS'but'
p915
aS'sadly'
p916
aS'enough,'
p917
ag187
aS'had'
p918
aS'no'
p919
aS'idea'
p920
aS'what'
p921
aS'most'
p922
aS'of'
p923
aS'it'
p924
aS'meant.'
p925
ag140
tp926
a((lp927
S'What'
p928
aS'this'
p929
aS'product'
p930
aS'really'
p931
aS'needs'
p932
aS'is'
p933
aS'better'
p934
aS'documentation'
p935
aS'for'
p936
aS'how'
p937
aS'to'
p938
aS'set'
p939
aS'up'
p940
aS'the'
p941
aS'router'
p942
aS'for'
p943
aS'DIFFERENT'
p944
aS'OPERATING'
p945
aS'SYSTEMS!'
p946
ag310
tp947
a((lp948
g199
aS'and'
p949
aS'step'
p950
aS'by'
p951
aS'step'
p952
aS'explanations'
p953
aS'for'
p954
aS'all'
p955
aS'the'
p956
aS'different'
p957
aS'setup'
p958
aS'options'
p959
aS'and'
p960
aS'their'
p961
aS'relevance.'
p962
ag140
tp963
a((lp964
g187
aS"don't"
p965
aS'mind'
p966
aS'if'
p967
aS'the'
p968
aS'instructions'
p969
aS'are'
p970
aS'online'
p971
aS'instead'
p972
aS'of'
p973
aS'in'
p974
aS'the'
p975
aS'box,'
p976
aS'but'
p977
aS'please'
p978
aS'have'
p979
aS'some'
p980
aS'instructions'
p981
aS'*somewhere.'
p982
ag140
tp983
a((lp984
S'*'
p985
aS"I'm"
p986
aS'giving'
p987
aS'it'
p988
aS'4'
p989
aS'stars'
p990
aS'because'
p991
aS'the'
p992
aS'setup'
p993
aS'process'
p994
aS'was'
p995
aS'so'
p996
aS'miserable.'
p997
ag310
tp998
a((lp999
S'But'
p1000
aS'the'
p1001
aS'product'
p1002
aS'iself'
p1003
aS'is'
p1004
aS'great.'
p1005
ag24
tp1006
a((lp1007
S'If'
p1008
aS'you'
p1009
aS'have'
p1010
ag29
aS'Mac,'
p1011
ag187
aS"don't"
p1012
aS'think'
p1013
aS'you'
p1014
aS'should'
p1015
aS'totally'
p1016
aS'discount'
p1017
aS'this'
p1018
aS'product.'
p1019
ag140
tp1020
a((lp1021
S'Once'
p1022
aS'you'
p1023
aS'set'
p1024
aS'it'
p1025
aS'up,'
p1026
aS"it's"
p1027
aS'great.'
p1028
ag24
tp1029
a((lp1030
S'And'
p1031
aS'it'
p1032
aS'is'
p1033
aS'EXTREMELY'
p1034
aS'well-priced'
p1035
aS'for'
p1036
aS'what'
p1037
aS"you're"
p1038
aS'getting.'
p1039
ag24
tp1040
a((lp1041
S'Just'
p1042
aS'make'
p1043
aS'sure'
p1044
aS'to'
p1045
aS'budget'
p1046
ag29
aS'couple'
p1047
aS'of'
p1048
aS'hours'
p1049
aS'for'
p1050
aS'setup,'
p1051
aS'and'
p1052
aS'invite'
p1053
aS'some'
p1054
aS'computer-savvy'
p1055
aS'friends'
p1056
aS'over'
p1057
aS'first'
p1058
aS'if'
p1059
aS"you're"
p1060
aS'prone'
p1061
aS'to'
p1062
aS'high'
p1063
aS'blood'
p1064
aS'pressure.'
p1065
ag140
tp1066
a((lp1067
S'For'
p1068
aS'an'
p1069
aS'item'
p1070
aS'that'
p1071
aS'is'
p1072
aS'not'
p1073
aS'even'
p1074
aS'available'
p1075
aS'in'
p1076
aS'Best'
p1077
aS'Buy'
p1078
aS'and'
p1079
aS'the'
p1080
aS'other'
p1081
aS'major'
p1082
aS'stores'
p1083
aS'when'
p1084
ag187
aS'went'
p1085
aS'to'
p1086
aS'buy'
p1087
aS'it,'
p1088
aS'the'
p1089
aS'fact'
p1090
aS'that'
p1091
aS'...'
p1092
aS'has'
p1093
aS'these'
p1094
aS'in'
p1095
aS'and'
p1096
aS'out'
p1097
aS'of'
p1098
aS'stock,'
p1099
aS'and'
p1100
aS'that'
p1101
ag187
aS'received'
p1102
aS'it'
p1103
aS'in'
p1104
aS'only'
p1105
ag29
aS'couple'
p1106
aS'of'
p1107
aS'days'
p1108
aS'is'
p1109
aS'knowledge'
p1110
aS'enough'
p1111
aS'to'
p1112
aS'make'
p1113
aS'this'
p1114
ag29
aS'winning'
p1115
aS'situation.'
p1116
ag140
tp1117
a((lp1118
S'What'
p1119
aS'about'
p1120
aS'hookup'
p1121
aS'and'
p1122
aS'use?'
p1123
ag140
tp1124
a((lp1125
S'Another'
p1126
aS'5'
p1127
aS'star'
p1128
aS'performance.'
p1129
ag24
tp1130
a((lp1131
S'Having'
p1132
aS'never'
p1133
aS'hooked'
p1134
aS'up'
p1135
ag29
aS'wireless'
p1136
aS'network'
p1137
aS'before,'
p1138
ag187
aS'took'
p1139
aS'the'
p1140
aS'advice'
p1141
aS'of'
p1142
aS'the'
p1143
aS'quick'
p1144
aS'start'
p1145
aS'guide'
p1146
aS'that'
p1147
aS'came'
p1148
aS'with'
p1149
aS'the'
p1150
aS'unit,'
p1151
aS'and'
p1152
aS'used'
p1153
aS'their'
p1154
aS'included'
p1155
aS'CD.'
p1156
ag140
tp1157
a((lp1158
S'They'
p1159
aS'strongly'
p1160
aS'recommended'
p1161
aS'that'
p1162
aS'you'
p1163
aS'use'
p1164
aS'the'
p1165
aS'CD'
p1166
aS'rather'
p1167
aS'than'
p1168
aS'manually'
p1169
aS'configure,'
p1170
aS'and'
p1171
aS'they'
p1172
aS'were'
p1173
aS'right.'
p1174
ag140
tp1175
a((lp1176
S'Having'
p1177
aS'seen'
p1178
aS'the'
p1179
aS'problems'
p1180
aS'that'
p1181
aS'some'
p1182
aS'others'
p1183
aS'were'
p1184
aS'having'
p1185
aS'with'
p1186
aS'setup,'
p1187
aS'only'
p1188
aS'to'
p1189
aS'be'
p1190
aS'resolved'
p1191
aS'(some'
p1192
aS'of'
p1193
aS'them)'
p1194
aS'by'
p1195
aS'exactly'
p1196
aS'following'
p1197
aS'the'
p1198
aS'directions,'
p1199
ag187
aS'decided'
p1200
aS'to'
p1201
aS'do'
p1202
aS'it'
p1203
aS'that'
p1204
aS'way'
p1205
aS'right'
p1206
aS'out'
p1207
aS'of'
p1208
aS'the'
p1209
aS'box.'
p1210
ag140
tp1211
a((lp1212
S"I'm"
p1213
aS'glad'
p1214
ag187
aS'did.'
p1215
ag140
tp1216
a((lp1217
S'This'
p1218
aS'setup'
p1219
aS'using'
p1220
aS'the'
p1221
aS'CD'
p1222
aS'was'
p1223
aS'about'
p1224
aS'as'
p1225
aS'easy'
p1226
aS'as'
p1227
aS'learning'
p1228
aS'how'
p1229
aS'to'
p1230
aS'open'
p1231
ag29
aS'refrigerator'
p1232
aS'door'
p1233
aS'for'
p1234
aS'the'
p1235
aS'first'
p1236
aS'time.'
p1237
ag24
tp1238
a((lp1239
S'Shutting'
p1240
aS'off'
p1241
aS'what'
p1242
aS'they'
p1243
aS't!'
p1244
ag140
tp1245
a((lp1246
S'ell'
p1247
aS'you'
p1248
aS'to'
p1249
aS'shut'
p1250
aS'off,'
p1251
aS'and'
p1252
aS'turning'
p1253
aS'on'
p1254
aS'what'
p1255
aS'and'
p1256
aS'when'
p1257
aS'they'
p1258
aS'tell'
p1259
aS'you'
p1260
aS'to'
p1261
aS'turn'
p1262
aS'things'
p1263
aS'on,'
p1264
aS'resulted'
p1265
aS'in'
p1266
ag29
aS'delightful'
p1267
aS'install.'
p1268
ag140
tp1269
a((lp1270
S'Not'
p1271
aS'even'
p1272
aS'one'
p1273
aS'glitch.'
p1274
ag140
tp1275
a((lp1276
S'The'
p1277
aS'CD'
p1278
aS'determined'
p1279
aS'my'
p1280
aS'internet'
p1281
aS'connection,'
p1282
aS'determined'
p1283
aS'my'
p1284
aS'system'
p1285
aS'configuration,'
p1286
aS'asked'
p1287
aS'me'
p1288
ag29
aS'few'
p1289
aS'questions,'
p1290
aS'and'
p1291
aS'bingo'
p1292
ag187
aS'was'
p1293
aS'up'
p1294
aS'and'
p1295
aS'running.'
p1296
ag140
tp1297
a((lp1298
g187
aS'bought'
p1299
aS'the'
p1300
aS'PC'
p1301
aS'Card'
p1302
aS'for'
p1303
aS'laptops'
p1304
aS'as'
p1305
aS'well,'
p1306
aS'and'
p1307
aS'that'
p1308
aS'was'
p1309
aS'just'
p1310
aS'as'
p1311
aS'easy'
p1312
aS'to'
p1313
aS'install.'
p1314
ag140
tp1315
a((lp1316
S'Within'
p1317
aS'10'
p1318
aS'minutes'
p1319
ag187
aS'was'
p1320
aS'surfing'
p1321
aS'the'
p1322
aS'web'
p1323
aS'from'
p1324
aS'all'
p1325
aS'over'
p1326
aS'the'
p1327
aS'house.'
p1328
ag140
tp1329
a((lp1330
S'No'
p1331
aS'Wires'
p1332
ag199
ag140
tp1333
a((lp1334
S'Pertaining'
p1335
aS'to'
p1336
aS'the'
p1337
aS'speed'
p1338
aS'issue:'
p1339
ag187
aS'got'
p1340
aS'54Mps'
p1341
aS'while'
p1342
ag187
aS'was'
p1343
aS'in'
p1344
aS'the'
p1345
aS'same'
p1346
aS'room.'
p1347
ag24
tp1348
a((lp1349
S'When'
p1350
ag187
aS'went'
p1351
aS'into'
p1352
aS'the'
p1353
aS'living'
p1354
aS'room,'
p1355
aS'it'
p1356
aS'went'
p1357
aS'to'
p1358
aS'very'
p1359
aS'good'
p1360
aS'instead'
p1361
aS'of'
p1362
aS'excellent,'
p1363
aS'and'
p1364
aS'gave'
p1365
aS'me'
p1366
aS'37Mbps.'
p1367
ag140
tp1368
a((lp1369
S"Let's"
p1370
aS'get'
p1371
ag29
aS'perspective'
p1372
aS'here.'
p1373
ag140
tp1374
a((lp1375
S'A'
p1376
aS'standard'
p1377
aS'modem'
p1378
aS'works'
p1379
aS'at'
p1380
aS'56K'
p1381
aS'tops.'
p1382
ag140
tp1383
a((lp1384
S'This'
p1385
aS'router'
p1386
aS'works'
p1387
aS'at'
p1388
aS'54Mbps'
p1389
aS"that's"
p1390
aS'megabyte'
p1391
aS'not'
p1392
aS'kilobyte.'
p1393
ag24
tp1394
a((lp1395
S'Their'
p1396
aS'are'
p1397
aS'1000'
p1398
aS'kilobytes'
p1399
aS'in'
p1400
aS'every'
p1401
aS'megabyte.'
p1402
ag140
tp1403
a((lp1404
S'So'
p1405
aS'54'
p1406
aS'Megabytes'
p1407
aS'per'
p1408
aS'second'
p1409
aS'is'
p1410
aS'about'
p1411
ag29
aS'thousand'
p1412
aS'times'
p1413
aS'faster'
p1414
aS'than'
p1415
ag29
aS'standard'
p1416
aS'modem.'
p1417
ag140
tp1418
a((lp1419
g187
aS'hooked'
p1420
aS'the'
p1421
aS'Linksys'
p1422
aS'wireless'
p1423
aS'router'
p1424
aS'up'
p1425
aS'to'
p1426
ag29
aS'broadband'
p1427
aS'connection'
p1428
aS'which'
p1429
aS'is'
p1430
aS'running'
p1431
aS'at'
p1432
ag29
aS'maximum'
p1433
aS'of'
p1434
aS'700'
p1435
aS'plus'
p1436
aS'Kilobytes'
p1437
aS'on'
p1438
aS'the'
p1439
aS'download'
p1440
aS'e!'
p1441
ag24
tp1442
a((lp1443
S'nd,'
p1444
aS'and'
p1445
aS'100'
p1446
aS'to'
p1447
aS'150'
p1448
aS'upload'
p1449
aS'speed.'
p1450
ag140
tp1451
a((lp1452
g187
aS'know'
p1453
ag187
aS'am'
p1454
aS'getting'
p1455
aS'specific,'
p1456
aS'but'
p1457
aS'the'
p1458
aS'point'
p1459
ag187
aS'am'
p1460
aS'making'
p1461
aS'is'
p1462
aS'that'
p1463
aS'it'
p1464
aS'does'
p1465
aS'not'
p1466
aS'matter'
p1467
aS'what'
p1468
aS'the'
p1469
aS'connection'
p1470
aS'speed'
p1471
aS'you'
p1472
aS'are'
p1473
aS'running'
p1474
aS'at'
p1475
aS'any'
p1476
aS'given'
p1477
aS'moment,'
p1478
aS'based'
p1479
aS'on'
p1480
aS'how'
p1481
aS'close'
p1482
aS'the'
p1483
aS'base'
p1484
aS'unit'
p1485
aS'is'
p1486
aS'to'
p1487
aS'the'
p1488
aS'PC'
p1489
aS'card.'
p1490
ag140
tp1491
a((lp1492
S'What'
p1493
aS'is'
p1494
aS'important'
p1495
aS'is'
p1496
aS'that'
p1497
aS'your'
p1498
aS'internet'
p1499
aS'connection'
p1500
aS'will'
p1501
aS'never'
p1502
aS'even'
p1503
aS'approach'
p1504
aS'the'
p1505
aS'speed'
p1506
aS'capabilities'
p1507
aS'of'
p1508
aS'this'
p1509
aS'router,'
p1510
aS'so'
p1511
aS"don't"
p1512
aS'hassle'
p1513
aS'yourself'
p1514
aS'with'
p1515
aS'any'
p1516
aS'concerns'
p1517
aS'over'
p1518
aS'varying'
p1519
aS'connect'
p1520
aS'speeds'
p1521
aS'of'
p1522
aS'the'
p1523
aS'wireless'
p1524
aS'network.'
p1525
ag140
tp1526
a((lp1527
S'Broadband'
p1528
aS'hooked'
p1529
aS'up'
p1530
aS'to'
p1531
aS'this'
p1532
aS'wireless'
p1533
aS'setup'
p1534
aS'flies.'
p1535
ag24
tp1536
a((lp1537
S'As'
p1538
aS'soon'
p1539
aS'as'
p1540
aS'you'
p1541
aS'click'
p1542
aS'on'
p1543
ag29
aS'site,'
p1544
aS'it'
p1545
aS'appears'
p1546
aS'on'
p1547
aS'the'
p1548
aS'screen.'
p1549
ag140
tp1550
a((lp1551
S'Anyhow,'
p1552
aS'just'
p1553
aS'for'
p1554
aS'reference,'
p1555
ag187
aS'am'
p1556
aS'using'
p1557
ag29
aS'Dell'
p1558
aS'Inspiron'
p1559
aS'Notebook,'
p1560
aS'hooked'
p1561
aS'up'
p1562
aS'to'
p1563
aS'the'
p1564
aS'broadband'
p1565
aS'cable'
p1566
aS'modem'
p1567
aS'that'
p1568
aS'was'
p1569
aS'supplied'
p1570
aS'by'
p1571
aS'Comcast.'
p1572
ag140
tp1573
a((lp1574
S'The'
p1575
aS'operating'
p1576
aS'system'
p1577
aS'is'
p1578
aS'Windows'
p1579
aS'XP.'
p1580
ag140
tp1581
a((lp1582
S'Installation'
p1583
aS'was'
p1584
aS'as'
p1585
aS'near'
p1586
aS'automatic'
p1587
aS'as'
p1588
aS'can'
p1589
aS'be.'
p1590
ag24
tp1591
a((lp1592
S'They'
p1593
aS'do'
p1594
aS'supply'
p1595
aS'instructions'
p1596
aS'when'
p1597
aS'using'
p1598
aS'Windows'
p1599
aS'ME,'
p1600
aS'98'
p1601
aS'etc,'
p1602
aS'that'
p1603
aS'includes'
p1604
aS'one'
p1605
aS'more'
p1606
aS'step'
p1607
aS'than'
p1608
aS'XP.'
p1609
ag140
tp1610
a((lp1611
S'All'
p1612
aS'in'
p1613
aS'all'
p1614
aS'this'
p1615
aS'is'
p1616
ag29
ag1127
aS'star'
p1617
aS'piece'
p1618
aS'of'
p1619
aS'equipment.'
p1620
ag24
tp1621
a((lp1622
S'Follow'
p1623
aS'the'
p1624
aS'directions'
p1625
aS'exactly.'
p1626
ag140
tp1627
a((lp1628
S'It'
p1629
aS'is'
p1630
aS'easy.'
p1631
ag140
tp1632
a((lp1633
S'Hope'
p1634
aS'this'
p1635
aS'helps.'
p1636
ag140
tp1637
a((lp1638
g187
aS'had'
p1639
aS'some'
p1640
aS'issues'
p1641
aS'when'
p1642
ag187
aS'had'
p1643
aS'enabled'
p1644
aS'WEP'
p1645
aS'encryption'
p1646
aS'and'
p1647
aS'then'
p1648
aS'moved'
p1649
aS'on'
p1650
aS'to'
p1651
aS'WPA.'
p1652
ag310
tp1653
a((lp1654
S'Ironically,'
p1655
aS'the'
p1656
aS'latest'
p1657
aS'firmware'
p1658
aS'update'
p1659
aS'addresses'
p1660
aS'this'
p1661
aS'very'
p1662
aS'specific'
p1663
aS'issue....'
p1664
aS'so'
p1665
aS'now'
p1666
ag187
aS'have'
p1667
aS'no'
p1668
aS'problems'
p1669
aS'what'
p1670
aS'so'
p1671
aS'ever.'
p1672
ag140
tp1673
a((lp1674
S'Even'
p1675
aS'during'
p1676
aS'the'
p1677
aS'firmware'
p1678
aS'updates'
p1679
aS'my'
p1680
aS'roommates'
p1681
aS'did'
p1682
aS'not'
p1683
aS'loose'
p1684
aS'wireless'
p1685
aS'connectivity.'
p1686
ag24
tp1687
a((lp1688
S'New'
p1689
aS'firmware'
p1690
aS'update'
p1691
aS'allows'
p1692
aS'for'
p1693
aS'automatic'
p1694
aS'wireless'
p1695
aS'network'
p1696
aS'configuration.'
p1697
ag24
tp1698
a((lp1699
S'All'
p1700
aS'you'
p1701
aS'have'
p1702
aS'to'
p1703
aS'do'
p1704
aS'is'
p1705
aS'click'
p1706
aS'one'
p1707
aS'button'
p1708
aS'on'
p1709
aS'the'
p1710
aS'router'
p1711
aS'configuration'
p1712
aS'window'
p1713
aS'and'
p1714
aS'the'
p1715
aS'router'
p1716
aS'automatically'
p1717
aS'senses'
p1718
aS'the'
p1719
aS'devices'
p1720
aS'and'
p1721
aS'configures'
p1722
aS'the'
p1723
aS'network.'
p1724
ag24
tp1725
a((lp1726
S'Awesome'
p1727
aS'for'
p1728
aS'the'
p1729
aS'newbie,'
p1730
aS'though'
p1731
ag187
aS'personally'
p1732
aS'like'
p1733
aS'to'
p1734
aS'fasten'
p1735
aS'every'
p1736
aS'bolt'
p1737
aS'myself.'
p1738
ag24
tp1739
a((lp1740
S'Comes'
p1741
aS'with'
p1742
ag29
aS'installation'
p1743
aS'CD'
p1744
aS'which'
p1745
aS'instructs'
p1746
aS'you'
p1747
aS'step'
p1748
aS'by'
p1749
aS'step'
p1750
aS'to'
p1751
aS'setting'
p1752
aS'up'
p1753
aS'the'
p1754
aS'router.'
p1755
ag24
tp1756
a((lp1757
S'You'
p1758
aS'need'
p1759
aS'to'
p1760
aS'know'
p1761
aS'absolutely'
p1762
aS'nothing'
p1763
aS'about'
p1764
aS'setting'
p1765
aS'up'
p1766
aS'the'
p1767
aS'network.'
p1768
ag24
tp1769
a((lp1770
S'Linksys'
p1771
aS'is'
p1772
aS'more'
p1773
aS'costlier'
p1774
aS'than'
p1775
aS'others'
p1776
aS'and'
p1777
aS'is'
p1778
ag29
aS'home/consumer'
p1779
aS'division'
p1780
aS'of'
p1781
aS'Cisco.'
p1782
ag310
tp1783
a((lp1784
S'But'
p1785
ag187
aS'believe'
p1786
aS'for'
p1787
aS'stability,'
p1788
aS'this'
p1789
aS'extra'
p1790
aS'price'
p1791
aS'is'
p1792
aS'worth'
p1793
aS'spending.'
p1794
ag140
tp1795
a((lp1796
S'Whatever'
p1797
aS'you'
p1798
aS'do,'
p1799
aS'please'
p1800
aS"don't"
p1801
aS'go'
p1802
aS'for'
p1803
ag29
aS'Netgear.'
p1804
ag199
ag140
tp1805
a((lp1806
S'It'
p1807
aS'did'
p1808
aS'not'
p1809
aS'take'
p1810
aS'me'
p1811
aS'that'
p1812
aS'long'
p1813
aS'to'
p1814
aS'set'
p1815
aS'this'
p1816
aS'up,'
p1817
aS'but'
p1818
aS'it'
p1819
aS'did'
p1820
aS'require'
p1821
aS'*not*'
p1822
aS'following'
p1823
aS'the'
p1824
aS'instructions.'
p1825
ag140
tp1826
a((lp1827
g187
aS'had'
p1828
aS'an'
p1829
aS'old'
p1830
aS'wired'
p1831
aS'Linksys'
p1832
aS'router.'
p1833
ag140
tp1834
a((lp1835
S'The'
p1836
aS'new'
p1837
aS'wireless'
p1838
aS'router'
p1839
aS'contained'
p1840
aS'large'
p1841
aS'warnings'
p1842
aS'to'
p1843
aS'run'
p1844
aS'the'
p1845
aS'CD'
p1846
aS'first'
p1847
aS'before'
p1848
aS'trying'
p1849
aS'to'
p1850
aS'connect'
p1851
aS'it.'
p1852
ag140
tp1853
a((lp1854
S'There'
p1855
aS'was'
p1856
ag29
aS'big'
p1857
aS'sticker'
p1858
aS'inside'
p1859
aS'the'
p1860
aS'box'
p1861
aS'saying'
p1862
aS'"RUN'
p1863
aS'CD'
p1864
aS'FIRST'
p1865
ag795
aS'DO'
p1866
aS'NOT'
p1867
aS'DISCONNECT'
p1868
aS'YOUR'
p1869
aS'CURRENT'
p1870
aS'ROUTER".'
p1871
ag140
tp1872
a((lp1873
S'And'
p1874
aS'the'
p1875
aS'router'
p1876
aS'itself'
p1877
aS'had'
p1878
aS'protective'
p1879
aS'tape'
p1880
aS'over'
p1881
aS'the'
p1882
aS'Ethernet'
p1883
aS'inputs.'
p1884
ag140
tp1885
a((lp1886
S'So'
p1887
ag187
aS'ran'
p1888
aS'the'
p1889
aS'CD,'
p1890
aS'but'
p1891
aS'doing'
p1892
aS'that'
p1893
aS'did'
p1894
aS'not'
p1895
aS'yield'
p1896
aS'any'
p1897
aS'results'
p1898
ag795
aS'my'
p1899
aS'wired'
p1900
aS'router'
p1901
aS'was'
p1902
aS'apparently'
p1903
aS'too'
p1904
aS'old,'
p1905
aS'so'
p1906
aS'the'
p1907
aS'CD'
p1908
aS's/w'
p1909
aS'did'
p1910
aS'not'
p1911
aS'recognize'
p1912
aS'it.'
p1913
ag140
tp1914
a((lp1915
S'There'
p1916
aS'were'
p1917
aS'no'
p1918
aS'other'
p1919
aS'obvious'
p1920
aS'setup'
p1921
aS'instructions'
p1922
ag795
aS'though'
p1923
aS'there'
p1924
aS'was'
p1925
ag29
aS'softcopy'
p1926
aS'manual,'
p1927
aS'it'
p1928
aS'did'
p1929
aS'not'
p1930
aS'give'
p1931
aS'an'
p1932
aS'answer'
p1933
aS'readily'
p1934
aS'on'
p1935
aS'what'
p1936
aS'do'
p1937
aS'to.'
p1938
ag310
tp1939
a((lp1940
S'If'
p1941
ag187
aS'did'
p1942
aS'not'
p1943
aS'know'
p1944
aS'anything'
p1945
aS'about'
p1946
aS'networking'
p1947
aS'whatsoever,'
p1948
ag187
aS'might'
p1949
aS'be'
p1950
aS'stumped'
p1951
aS'at'
p1952
aS'this'
p1953
aS'point.'
p1954
ag140
tp1955
a((lp1956
S'But'
p1957
aS'since'
p1958
ag187
aS'do'
p1959
aS'have'
p1960
ag29
aS'little'
p1961
aS'experience,'
p1962
ag187
aS'simply'
p1963
aS'disconnected'
p1964
aS'my'
p1965
aS'old'
p1966
aS'router'
p1967
aS'and'
p1968
aS'put'
p1969
aS'in'
p1970
aS'the'
p1971
aS'new'
p1972
aS'one.'
p1973
ag140
tp1974
a((lp1975
g187
aS'do'
p1976
aS'know'
p1977
aS'what'
p1978
aS'wires'
p1979
aS'go'
p1980
ag199
ag140
tp1981
a((lp1982
S'to'
p1983
aS'which'
p1984
aS'inputs,'
p1985
ag187
aS'know'
p1986
aS'what'
p1987
aS'the'
p1988
aS'lights'
p1989
aS'mean,'
p1990
aS'etc.'
p1991
ag140
tp1992
a((lp1993
S'So'
p1994
aS'then'
p1995
aS'running'
p1996
aS'the'
p1997
aS'CD,'
p1998
aS'everything'
p1999
aS'worked'
p2000
aS'out'
p2001
aS'OK'
p2002
aS'to'
p2003
aS'connect'
p2004
aS'my'
p2005
aS'wired'
p2006
aS'computers'
p2007
aS'again.'
p2008
ag140
tp2009
a((lp2010
S'The'
p2011
aS'only'
p2012
aS'other'
p2013
aS'problem'
p2014
aS'was'
p2015
aS'that'
p2016
aS'security'
p2017
aS'for'
p2018
aS'the'
p2019
aS'wireless'
p2020
aS'connection.'
p2021
ag310
tp2022
a((lp2023
S'There'
p2024
aS'was'
p2025
aS'no'
p2026
aS'obvious'
p2027
aS'screen'
p2028
aS'stating'
p2029
aS'what'
p2030
aS'should'
p2031
aS'be'
p2032
aS'done'
p2033
ag795
aS'the'
p2034
aS'program'
p2035
aS'simply'
p2036
aS'said'
p2037
aS'the'
p2038
aS'router'
p2039
aS'was'
p2040
aS'secured.'
p2041
ag140
tp2042
a((lp2043
S'If'
p2044
ag187
aS'did'
p2045
aS'not'
p2046
aS'know'
p2047
aS'what'
p2048
aS'to'
p2049
aS'do,'
p2050
aS"I'd"
p2051
aS'have'
p2052
aS'no'
p2053
aS'idea'
p2054
aS'how'
p2055
aS'to'
p2056
aS'connect'
p2057
aS'wirelessly.'
p2058
ag140
tp2059
a((lp2060
S'But'
p2061
aS'knowing'
p2062
aS'that'
p2063
aS'the'
p2064
aS'IP'
p2065
aS'for'
p2066
aS'my'
p2067
aS'previous'
p2068
aS'Linksys'
p2069
aS'router'
p2070
aS'was'
p2071
aS'192.162.1.1,'
p2072
ag187
aS'went'
p2073
aS'there'
p2074
aS'and'
p2075
aS'found'
p2076
ag29
aS'drop'
p2077
aS'down'
p2078
aS'screen'
p2079
aS'that'
p2080
aS'had'
p2081
aS'the'
p2082
aS'information'
p2083
aS'(the'
p2084
aS'security'
p2085
aS'key)'
p2086
ag187
aS'needed'
p2087
aS'to'
p2088
aS'connect'
p2089
aS'my'
p2090
aS'wireless'
p2091
aS'laptop.'
p2092
ag140
tp2093
a((lp2094
S'The'
p2095
aS'router'
p2096
aS'works'
p2097
aS'fine'
p2098
aS'for'
p2099
aS'both'
p2100
aS'wired'
p2101
aS'and'
p2102
aS'wireless.'
p2103
ag24
tp2104
a((lp2105
g187
aS'can'
p2106
aS'go'
p2107
aS'pretty'
p2108
aS'far'
p2109
aS'away'
p2110
aS'from'
p2111
aS'my'
p2112
aS'router'
p2113
aS'and'
p2114
aS'still'
p2115
aS'connect'
p2116
aS'wirelessly.'
p2117
ag24
tp2118
a((lp2119
S'Overall,'
p2120
aS'if'
p2121
aS'you'
p2122
aS'know'
p2123
aS'what'
p2124
aS'basic'
p2125
aS'steps'
p2126
aS'to'
p2127
aS'take,'
p2128
aS'it'
p2129
aS'was'
p2130
aS'not'
p2131
aS'difficult'
p2132
aS'to'
p2133
aS'connect,'
p2134
aS'and'
p2135
aS'the'
p2136
aS's/w'
p2137
aS'worked'
p2138
aS'well'
p2139
aS'to'
p2140
aS'connect.'
p2141
ag24
tp2142
a((lp2143
S'But'
p2144
aS'if'
p2145
aS'you'
p2146
aS'did'
p2147
aS'not'
p2148
aS'know'
p2149
aS'what'
p2150
aS'to'
p2151
aS'do,'
p2152
aS'you'
p2153
aS'might'
p2154
aS'have'
p2155
aS'to'
p2156
aS'call'
p2157
aS'Linksys.'
p2158
ag140
tp2159
a((lp2160
g187
aS'would'
p2161
aS'suggest'
p2162
aS'for'
p2163
aS'Linksys'
p2164
aS'to'
p2165
aS'include'
p2166
ag29
aS'hardcopy'
p2167
aS'quickstart'
p2168
aS'guide'
p2169
aS'for'
p2170
aS'those'
p2171
aS'users'
p2172
aS'with'
p2173
ag199
ag140
tp2174
a((lp2175
S'little'
p2176
aS'to'
p2177
aS'no'
p2178
aS'networking'
p2179
aS'experience,'
p2180
aS'just'
p2181
aS'in'
p2182
aS'case'
p2183
aS'the'
p2184
aS'automatic'
p2185
aS'CD'
p2186
aS'method'
p2187
aS'has'
p2188
aS'issues.'
p2189
ag310
tp2190
a((lp2191
S"I'd"
p2192
aS'give'
p2193
aS'it'
p2194
aS'4.5'
p2195
aS'stars'
p2196
aS'if'
p2197
aS'possible,'
p2198
aS'but'
p2199
aS'since'
p2200
ag1127
aS'stars'
p2201
aS'would'
p2202
aS'be'
p2203
aS'misleading,'
p2204
ag187
aS'give'
p2205
aS'it'
p2206
ag989
aS'stars.'
p2207
ag24
tp2208
a((lp2209
S'Here'
p2210
aS'is'
p2211
aS'the'
p2212
aS'big'
p2213
aS'news'
p2214
aS'to'
p2215
aS'everyone;'
p2216
aS'this'
p2217
aS'is'
p2218
ag29
aS'consumer'
p2219
aS'level'
p2220
aS'product.'
p2221
ag140
tp2222
a((lp2223
S'This'
p2224
aS'is'
p2225
aS'not'
p2226
aS'an'
p2227
aS'enterprise'
p2228
aS'piece'
p2229
aS'of'
p2230
aS'hardware'
p2231
aS'that'
p2232
aS'you'
p2233
aS'will'
p2234
aS'find'
p2235
aS'in'
p2236
aS'an'
p2237
aS'office'
p2238
aS'or'
p2239
aS'corporate'
p2240
aS'environment.'
p2241
ag310
tp2242
a((lp2243
S'You'
p2244
aS'will'
p2245
aS'not'
p2246
aS'be'
p2247
aS'able'
p2248
aS'to'
p2249
aS'run'
p2250
aS"100's"
p2251
aS'users'
p2252
aS'using'
p2253
aS'WPA'
p2254
aS'and'
p2255
aS'WPA2'
p2256
aS'encryption'
p2257
aS'through'
p2258
aS'this'
p2259
aS'thing,'
p2260
aS'just'
p2261
ag29
aS'handful'
p2262
aS'of'
p2263
aS'people'
p2264
aS'on'
p2265
ag29
aS'cable'
p2266
aS'modem'
p2267
aS'or'
p2268
aS'DSL'
p2269
aS'line.'
p2270
ag140
tp2271
a((lp2272
S'People'
p2273
aS'that'
p2274
aS'complain'
p2275
aS'about'
p2276
aS'this'
p2277
aS'product'
p2278
aS'not'
p2279
aS'standing'
p2280
aS'up'
p2281
aS'to'
p2282
aS'hardcore'
p2283
aS'use'
p2284
aS'are'
p2285
aS'fooling'
p2286
aS'themselves.'
p2287
ag140
tp2288
a((lp2289
S'They'
p2290
aS'need'
p2291
aS'to'
p2292
aS'step'
p2293
aS'up'
p2294
aS'and'
p2295
aS'buy'
p2296
aS'an'
p2297
aS'enterprise'
p2298
aS'level'
p2299
aS'piece'
p2300
aS'of'
p2301
aS'hardware'
p2302
aS'for'
p2303
ag29
aS'lot'
p2304
aS'more'
p2305
aS'money.'
p2306
ag140
tp2307
a((lp2308
S'That'
p2309
aS'aside,'
p2310
aS'this'
p2311
aS'is'
p2312
aS'not'
p2313
aS'that'
p2314
aS'bad'
p2315
aS'of'
p2316
ag29
aS'product.'
p2317
ag140
tp2318
a((lp2319
g187
aS'have'
p2320
aS'had'
p2321
aS'mine'
p2322
aS'for'
p2323
aS'about'
p2324
ag29
aS'year'
p2325
aS'and'
p2326
aS'use'
p2327
ag29
aS'third'
p2328
aS'party'
p2329
aS'firmware'
p2330
aS'on'
p2331
aS'mine'
p2332
aS'and'
p2333
aS'love'
p2334
aS'it.'
p2335
ag24
tp2336
a((lp2337
S'With'
p2338
ag29
aS'little'
p2339
aS'knowledge'
p2340
aS'and'
p2341
aS'tweaking,'
p2342
aS'you'
p2343
aS'can'
p2344
aS'get'
p2345
aS'this'
p2346
aS'product'
p2347
aS'to'
p2348
aS'run'
p2349
aS'encrypted'
p2350
aS'wireless'
p2351
aS'connections'
p2352
aS'to'
p2353
aS'about'
p2354
aS'10'
p2355
aS'people'
p2356
aS'with'
p2357
aS'little'
p2358
aS'or'
p2359
aS'no'
p2360
aS'problem.'
p2361
ag140
tp2362
a((lp2363
S'If'
p2364
aS'you'
p2365
aS'have'
p2366
aS'users'
p2367
aS'that'
p2368
aS'use'
p2369
aS'P2P,'
p2370
aS'you'
p2371
aS'will'
p2372
aS'need'
p2373
aS'to'
p2374
aS'tweak'
p2375
aS'this'
p2376
aS'and'
p2377
aS'all'
p2378
aS'wireless'
p2379
aS'routers.'
p2380
ag140
tp2381
a((lp2382
S'P2P'
p2383
aS'is'
p2384
aS'just'
p2385
aS'harsh'
p2386
aS'on'
p2387
aS'networking'
p2388
aS'equipment'
p2389
aS'of!'
p2390
ag140
tp2391
a((lp2392
S'all'
p2393
aS'kinds.'
p2394
ag140
tp2395
a((lp2396
S'On'
p2397
aS'the'
p2398
aS'subject'
p2399
aS'of'
p2400
aS'Third'
p2401
aS'Party'
p2402
aS'firmware;'
p2403
aS'Linksys'
p2404
aS'WRT54G'
p2405
aS'versions'
p2406
aS'1'
p2407
aS'through'
p2408
ag989
aS'run'
p2409
aS'Linux.'
p2410
ag140
tp2411
a((lp2412
S'Because'
p2413
aS'of'
p2414
aS'that,'
p2415
ag29
aS'bunch'
p2416
aS'of'
p2417
aS'really'
p2418
aS'smart'
p2419
aS'people'
p2420
aS'sat'
p2421
aS'down'
p2422
aS'and'
p2423
aS'figured'
p2424
aS'out'
p2425
aS'how'
p2426
aS'to'
p2427
aS'make'
p2428
aS'the'
p2429
aS'Linksys'
p2430
aS'WRT54G'
p2431
aS'run'
p2432
aS'their'
p2433
aS'own'
p2434
aS'custom'
p2435
aS'firmware.'
p2436
ag140
tp2437
a((lp2438
S'So,'
p2439
aS'if'
p2440
aS'you'
p2441
aS'type'
p2442
aS'in'
p2443
aS'"Linksys'
p2444
aS'firmware"'
p2445
aS'into'
p2446
aS'Google'
p2447
aS'or'
p2448
aS'A9,'
p2449
aS'you'
p2450
aS'will'
p2451
aS'get'
p2452
ag29
aS'list'
p2453
aS'of'
p2454
aS'websites'
p2455
aS'that'
p2456
aS'have'
p2457
aS'custom'
p2458
aS'firmware'
p2459
aS'for'
p2460
aS'various'
p2461
aS'kinds'
p2462
aS'of'
p2463
aS'Linksys'
p2464
aS'Routers'
p2465
aS'(Linksys'
p2466
aS'makes'
p2467
ag29
aS'few'
p2468
aS'routers'
p2469
aS'that'
p2470
aS'run'
p2471
aS'Linux).'
p2472
ag140
tp2473
a((lp2474
S'The'
p2475
aS'really'
p2476
aS'neat'
p2477
aS'thing'
p2478
aS'about'
p2479
aS'this'
p2480
aS'is'
p2481
aS'that'
p2482
aS'the'
p2483
aS'third'
p2484
aS'party'
p2485
aS'firmware'
p2486
aS'are'
p2487
aS'very'
p2488
aS'powerful'
p2489
aS'and'
p2490
aS'add'
p2491
aS'many'
p2492
aS'more'
p2493
aS'features'
p2494
aS'to'
p2495
aS'the'
p2496
aS'WRT54G'
p2497
aS'that'
p2498
aS'are'
p2499
aS'not'
p2500
aS'there,'
p2501
aS'but'
p2502
aS'should'
p2503
aS'be.'
p2504
aS'##However,'
p2505
aS'the'
p2506
aS'version'
p2507
aS'of'
p2508
aS'the'
p2509
aS'WRT54G'
p2510
aS'that'
p2511
aS'Amazon.com'
p2512
aS'and'
p2513
aS'most'
p2514
aS'other'
p2515
aS'places'
p2516
aS'sell'
p2517
aS'is'
p2518
aS'version'
p2519
aS'5.'
p2520
ag140
tp2521
a((lp2522
S'The'
p2523
aS'new'
p2524
aS'hardware'
p2525
aS'version'
p2526
aS'does'
p2527
aS'not'
p2528
aS'run'
p2529
aS'Linux'
p2530
aS'at'
p2531
aS'all'
p2532
aS'and'
p2533
aS'most'
p2534
aS'likely'
p2535
aS'will'
p2536
aS'not'
p2537
aS'since'
p2538
aS'the'
p2539
aS'memory'
p2540
aS'has'
p2541
aS'been'
p2542
aS'cut'
p2543
aS'in'
p2544
aS'half.'
p2545
ag310
tp2546
a((lp2547
S'Simply'
p2548
aS'put,'
p2549
aS'the'
p2550
aS'hardware'
p2551
aS'is'
p2552
aS'just'
p2553
aS'too'
p2554
aS'small'
p2555
aS'to'
p2556
aS'run'
p2557
aS'Linux,'
p2558
aS'which'
p2559
aS'is'
p2560
ag29
aS'really'
p2561
aS'bummer'
p2562
aS'since'
p2563
ag187
aS'found'
p2564
aS'it'
p2565
aS'fun'
p2566
aS'to'
p2567
aS'play'
p2568
aS'with'
p2569
aS'my'
p2570
aS'Linksys'
p2571
aS"WRT54G's"
p2572
aS'firmware.'
p2573
ag140
tp2574
a((lp2575
S'However,'
p2576
aS'if'
p2577
aS'you'
p2578
aS'are'
p2579
aS'not'
p2580
ag29
aS'tech'
p2581
aS'person'
p2582
aS'and!'
p2583
ag140
tp2584
a((lp2585
S'just'
p2586
aS'want'
p2587
ag29
aS'wireless'
p2588
aS'router'
p2589
aS'for'
p2590
aS'home'
p2591
aS'or'
p2592
aS'your'
p2593
aS'very'
p2594
aS'small'
p2595
aS'business,'
p2596
aS'you'
p2597
aS'can'
p2598
aS'just'
p2599
aS'get'
p2600
ag29
aS'WRT54G'
p2601
aS'from'
p2602
aS'here'
p2603
aS'and'
p2604
aS'configure'
p2605
aS'it.'
p2606
ag24
tp2607
a((lp2608
S'Just'
p2609
aS'make'
p2610
aS'sure'
p2611
aS'to'
p2612
aS'get'
p2613
aS'someone'
p2614
aS'to'
p2615
aS'help'
p2616
aS'you'
p2617
aS'configure'
p2618
aS'the'
p2619
aS'encryption'
p2620
aS'if'
p2621
aS'you'
p2622
aS'can'
p2623
aS'not'
p2624
aS'do'
p2625
aS'it'
p2626
aS'yourself.'
p2627
ag140
tp2628
a((lp2629
S'Do'
p2630
aS'not'
p2631
aS'use'
p2632
aS'this'
p2633
aS'thing'
p2634
aS'without'
p2635
aS'Wireless'
p2636
aS'Encryption.'
p2637
ag140
tp2638
a((lp2639
S'All'
p2640
aS'wireless'
p2641
aS'routers'
p2642
aS'need'
p2643
aS'to'
p2644
aS'be'
p2645
aS'configured'
p2646
aS'to'
p2647
aS'use'
p2648
aS'Wireless'
p2649
aS'Encryption,'
p2650
aS'so'
p2651
aS'this'
p2652
aS'is'
p2653
aS'just'
p2654
aS'not'
p2655
ag29
aS'problem'
p2656
aS'with'
p2657
aS'the'
p2658
aS'WRT54G.'
p2659
ag140
tp2660
a((lp2661
S'If'
p2662
aS'you'
p2663
aS'are'
p2664
ag29
aS'tech'
p2665
aS'person'
p2666
aS'and'
p2667
aS'want'
p2668
aS'to'
p2669
aS'really'
p2670
aS'play'
p2671
aS'with'
p2672
aS'your'
p2673
aS'WRT54G,'
p2674
aS'sorry,'
p2675
aS'but'
p2676
aS'you'
p2677
aS'need'
p2678
aS'to'
p2679
aS'get'
p2680
aS'the'
p2681
aS'WRT54GS'
p2682
aS'router.'
p2683
ag140
tp2684
a((lp2685
S'They'
p2686
aS'have'
p2687
aS'the'
p2688
aS'large'
p2689
aS'amounts'
p2690
aS'of'
p2691
aS'RAM'
p2692
aS'and'
p2693
aS'still'
p2694
aS'run'
p2695
aS'Linux.'
p2696
ag140
tp2697
a((lp2698
g187
aS'would'
p2699
aS'highly'
p2700
aS'recommend'
p2701
aS'that'
p2702
aS'you'
p2703
aS'do'
p2704
aS'this'
p2705
aS'if'
p2706
aS'you'
p2707
aS'want'
p2708
aS'to'
p2709
aS'learn'
p2710
aS'something,'
p2711
aS'but'
p2712
aS'if'
p2713
aS'you'
p2714
aS'are'
p2715
aS'not'
p2716
aS'interested'
p2717
aS'in'
p2718
aS'learning'
p2719
aS'this'
p2720
aS'stuff'
p2721
aS'and'
p2722
aS'just'
p2723
aS'want'
p2724
ag29
aS'working'
p2725
aS'wireless'
p2726
aS'router,'
p2727
aS'just'
p2728
aS'get'
p2729
aS'the'
p2730
aS'WRT54G.'
p2731
ag24
tp2732
a((lp2733
g187
aS'had'
p2734
ag29
aS'Linksys'
p2735
aS'wired'
p2736
aS'802.11B'
p2737
aS'router'
p2738
aS'and'
p2739
aS'wireless'
p2740
aS'access'
p2741
aS'point'
p2742
aS'which'
p2743
aS'worked'
p2744
aS'well,'
p2745
aS'but'
p2746
aS'decided'
p2747
aS'to'
p2748
aS'upgrade'
p2749
aS'to'
p2750
aS'an'
p2751
aS'all-in-one'
p2752
aS'11G'
p2753
aS'device.'
p2754
ag140
tp2755
a((lp2756
S'The'
p2757
aS'tough'
p2758
aS'part'
p2759
aS'was'
p2760
aS'deciding'
p2761
aS'whether'
p2762
aS'or'
p2763
aS'not'
p2764
ag187
aS'needed'
p2765
aS'the'
p2766
aS'"Speedbooster"'
p2767
aS'version.'
p2768
ag140
tp2769
a((lp2770
S'After'
p2771
aS'asking'
p2772
aS'around,'
p2773
ag187
aS'found'
p2774
aS'out'
p2775
ag187
aS"didn't."
p2776
ag140
tp2777
a((lp2778
S'The'
p2779
aS'out-of-the-box'
p2780
aS'experience'
p2781
aS'was'
p2782
ag29
aS'little'
p2783
aS'frustrating.'
p2784
ag140
tp2785
a((lp2786
g187
aS'tried'
p2787
aS'the'
p2788
aS'CD'
p2789
aS'setup'
p2790
aS'program'
p2791
aS'without'
p2792
aS'any'
p2793
aS'luck.'
p2794
ag310
tp2795
a((lp2796
S'Then'
p2797
ag187
aS'tried'
p2798
aS'the'
p2799
aS'do-it-yourself'
p2800
aS'method'
p2801
aS'of'
p2802
aS'following'
p2803
aS'the'
p2804
aS'step-by-step'
p2805
aS'instructions.'
p2806
ag140
tp2807
a((lp2808
S'Nope.'
p2809
ag140
tp2810
a((lp2811
S'That'
p2812
aS"didn't"
p2813
aS'work'
p2814
aS'either.'
p2815
ag140
tp2816
a((lp2817
g1376
aS'five'
p2818
aS'minute'
p2819
aS'call'
p2820
aS'to'
p2821
aS'the'
p2822
aS'tech'
p2823
aS'support'
p2824
aS'people'
p2825
aS'was'
p2826
aS'all'
p2827
aS'it'
p2828
aS'took'
p2829
aS'to'
p2830
aS'get'
p2831
aS'the'
p2832
aS'router'
p2833
aS'up'
p2834
aS'and'
p2835
aS'running.'
p2836
ag140
tp2837
a((lp2838
S'No'
p2839
aS'hold'
p2840
aS'time.'
p2841
ag140
tp2842
a((lp2843
S'Yes,'
p2844
aS'the'
p2845
aS'1-800'
p2846
aS'number'
p2847
aS'probably'
p2848
aS'redirected'
p2849
aS'me'
p2850
aS'to'
p2851
aS'someone'
p2852
aS'in'
p2853
aS'India,'
p2854
aS'but'
p2855
aS'the'
p2856
aS'guy'
p2857
aS'was'
p2858
aS'easy'
p2859
aS'to'
p2860
aS'understand,'
p2861
aS'and'
p2862
aS'he'
p2863
aS'helped'
p2864
aS'solve'
p2865
aS'the'
p2866
aS'problem.'
p2867
ag24
tp2868
a((lp2869
S'Essentially,'
p2870
aS'the'
p2871
aS'CD'
p2872
aS'included'
p2873
aS'with'
p2874
aS'the'
p2875
aS'package'
p2876
aS'is,'
p2877
aS'for'
p2878
aS'the'
p2879
aS'most'
p2880
aS'part,'
p2881
aS'worthless.'
p2882
ag310
tp2883
a((lp2884
g187
aS'was'
p2885
aS'told'
p2886
aS'to'
p2887
aS'connect'
p2888
aS'my'
p2889
aS'computer'
p2890
aS'directly'
p2891
aS'to'
p2892
aS'the'
p2893
aS'cable'
p2894
aS'modem,'
p2895
aS'then'
p2896
aS'go'
p2897
aS'to'
p2898
ag29
aS'Linksys'
p2899
aS'webs!'
p2900
ag140
tp2901
a((lp2902
S'ite:'
p2903
aS'www.linksys.com/connect'
p2904
ag187
aS'clicked'
p2905
aS'on'
p2906
aS'NetSet'
p2907
aS'Assistant'
p2908
aS'and'
p2909
aS'let'
p2910
aS'it'
p2911
aS'do'
p2912
aS"it's"
p2913
aS'thing.'
p2914
ag140
tp2915
a((lp2916
g187
aS'followed'
p2917
aS'the'
p2918
aS'prompts'
p2919
aS'to'
p2920
aS'disconnect'
p2921
aS'and'
p2922
aS'reconnect'
p2923
aS'Ethernet'
p2924
aS'cables,'
p2925
aS'and'
p2926
aS'then'
p2927
aS'rebooted.'
p2928
ag140
tp2929
a((lp2930
S'Problem'
p2931
aS'solved.'
p2932
ag140
tp2933
a((lp2934
S'As'
p2935
aS'far'
p2936
aS'as'
p2937
aS'WEP'
p2938
aS'configuration...'
p2939
aS'make'
p2940
aS'your'
p2941
aS'adjustments'
p2942
aS'after'
p2943
aS"you've"
p2944
aS'set'
p2945
aS'up'
p2946
aS'the'
p2947
aS'router'
p2948
aS'using'
p2949
aS'the'
p2950
aS'default'
p2951
aS'setup.'
p2952
ag140
tp2953
a((lp2954
S"It'll"
p2955
aS'make'
p2956
aS'life'
p2957
ag29
aS'lot'
p2958
aS'easier,'
p2959
aS'and'
p2960
aS'preclude'
p2961
aS'you'
p2962
aS'from'
p2963
aS'having'
p2964
aS'to'
p2965
aS'give'
p2966
aS'this'
p2967
aS'product'
p2968
ag29
aS'negative'
p2969
aS'review.'
p2970
ag24
tp2971
a((lp2972
S'This'
p2973
aS'is'
p2974
aS'my'
p2975
aS'fourth'
p2976
aS'Linksys'
p2977
aS'product'
p2978
aS'and,'
p2979
aS'aside'
p2980
aS'from'
p2981
aS'the'
p2982
aS'rough'
p2983
aS'start,'
p2984
aS"I'm"
p2985
aS'very'
p2986
aS'satisfied'
p2987
aS'with'
p2988
aS'this'
p2989
aS'router.'
p2990
ag24
tp2991
a((lp2992
g187
aS'was'
p2993
aS'waiting'
p2994
aS'for'
p2995
aS'wireless'
p2996
aS'to'
p2997
aS'be'
p2998
aS'faster'
p2999
aS'then'
p3000
aS'11mbs.'
p3001
ag140
tp3002
a((lp3003
S'This'
p3004
aS'linksys'
p3005
aS'router'
p3006
aS'does'
p3007
aS'it'
p3008
aS'for'
p3009
aS'the'
p3010
aS'RIGHT'
p3011
aS'PRICE.'
p3012
ag24
tp3013
a((lp3014
S'For'
p3015
aS'about'
p3016
aS'the'
p3017
aS'same'
p3018
aS'price'
p3019
aS'as'
p3020
aS'11mb'
p3021
aS'you'
p3022
aS'can'
p3023
aS'get'
p3024
ag1127
aS'times'
p3025
aS'the'
p3026
aS'speed.'
p3027
ag140
tp3028
a((lp3029
S'The'
p3030
aS'range'
p3031
aS'is'
p3032
aS'terrific,'
p3033
ag187
aS'am'
p3034
aS'using'
p3035
aS'this'
p3036
aS'for'
p3037
aS'my'
p3038
aS'home'
p3039
aS'and'
p3040
ag187
aS'was'
p3041
aS'transferring'
p3042
aS'at'
p3043
aS'50+mbs'
p3044
aS'from'
p3045
aS'my'
p3046
aS'backyard.'
p3047
ag24
tp3048
a((lp3049
g187
aS'have'
p3050
aS'an'
p3051
aS'RCA'
p3052
aS'cable'
p3053
aS'modem'
p3054
aS'with'
p3055
aS'RCN'
p3056
aS'as'
p3057
aS'my'
p3058
aS'ISP.'
p3059
ag140
tp3060
a((lp3061
g1376
aS'great'
p3062
aS'service'
p3063
aS'which'
p3064
ag187
aS'highly'
p3065
aS'recommend.'
p3066
ag140
tp3067
a((lp3068
g187
aS'recently'
p3069
aS'bought'
p3070
aS'the'
p3071
aS'Linksys'
p3072
aS'G-Router'
p3073
aS'after'
p3074
aS'getting'
p3075
aS'my'
p3076
aS'hp'
p3077
aS'laptop'
p3078
aS'needing'
p3079
aS'to'
p3080
aS'setup'
p3081
aS'wireless'
p3082
aS'at'
p3083
aS'home.'
p3084
ag140
tp3085
a((lp3086
g187
aS'got'
p3087
aS'it'
p3088
aS'to'
p3089
aS'work'
p3090
aS'with'
p3091
aS'no'
p3092
aS'problem'
p3093
aS'but'
p3094
aS'then'
p3095
ag187
aS'experienced'
p3096
aS'bandwidth'
p3097
aS'loss'
p3098
aS'and'
p3099
aS'constant'
p3100
aS'connectivity'
p3101
aS'issues.'
p3102
ag140
tp3103
a((lp3104
g187
aS'wrongly'
p3105
aS'thought'
p3106
aS'that'
p3107
aS'it'
p3108
aS'was'
p3109
aS'the'
p3110
aS'router.'
p3111
ag140
tp3112
a((lp3113
S'Fool'
p3114
aS'that'
p3115
ag187
aS'was!'
p3116
ag140
tp3117
a((lp3118
S'After'
p3119
aS'countless'
p3120
aS'attempts'
p3121
aS'at'
p3122
aS'recycling'
p3123
aS'the'
p3124
aS'modem'
p3125
aS'and'
p3126
aS'WPA'
p3127
aS'keys'
p3128
aS'etc.'
p3129
ag140
tp3130
a((lp3131
S',I'
p3132
aS'finally'
p3133
aS'figured'
p3134
aS'out'
p3135
aS'that'
p3136
aS'the'
p3137
aS'modem'
p3138
aS'could'
p3139
aS'not'
p3140
aS'support'
p3141
aS'the'
p3142
aS'wireless'
p3143
aS'router'
p3144
aS'and'
p3145
aS'it'
p3146
aS'had'
p3147
ag29
aS'short,'
p3148
aS'plus'
p3149
aS'RCA'
p3150
aS'no'
p3151
aS'longer'
p3152
aS'carried'
p3153
aS'it'
p3154
aS'and'
p3155
aS'the'
p3156
aS'thing'
p3157
aS'was'
p3158
aS'ugly,'
p3159
aS'taking'
p3160
aS'up'
p3161
aS'space.'
p3162
ag140
tp3163
a((lp3164
S"I've"
p3165
aS'since'
p3166
aS'gotten'
p3167
aS'the'
p3168
aS'Linksys'
p3169
aS'Modem'
p3170
aS'(BEFCMU10)'
p3171
aS'and'
p3172
aS'stacked'
p3173
aS'it'
p3174
aS'with'
p3175
aS'the'
p3176
aS'WRT54G'
p3177
aS'router'
p3178
aS'and'
p3179
aS'it'
p3180
aS'works'
p3181
aS'fantastic!!!'
p3182
ag24
tp3183
a((lp3184
S'Be'
p3185
aS'sure'
p3186
aS'to'
p3187
aS'call'
p3188
aS'your'
p3189
aS'ISP'
p3190
aS'with'
p3191
aS'the'
p3192
aS"modem's"
p3193
aS'MAC'
p3194
aS'address'
p3195
aS'to'
p3196
aS'get'
p3197
aS'online.'
p3198
ag140
tp3199
a((lp3200
S'YOU'
p3201
aS"WON'T"
p3202
aS'get'
p3203
aS'connected'
p3204
aS'otherwise.'
p3205
ag140
tp3206
a((lp3207
S'My'
p3208
aS'ISP'
p3209
aS'had'
p3210
aS'me'
p3211
aS'up'
p3212
aS'and'
p3213
aS'running'
p3214
aS'within'
p3215
ag1127
aS'minutes.'
p3216
ag140
tp3217
a((lp3218
S'Also'
p3219
aS'some'
p3220
aS"ISP's"
p3221
aS'give'
p3222
aS'you'
p3223
ag29
aS'discount'
p3224
aS'if'
p3225
aS'you'
p3226
aS'supply'
p3227
aS'your'
p3228
aS'own'
p3229
aS'modem.'
p3230
ag140
tp3231
a((lp3232
g199
ag140
tp3233
a((lp3234
S'Check'
p3235
aS'it'
p3236
aS'out.'
p3237
ag140
tp3238
a((lp3239
g187
aS'got'
p3240
aS'this'
p3241
aS'for'
p3242
aS'my'
p3243
aS'aunt'
p3244
aS'who'
p3245
aS'pretty'
p3246
aS'much'
p3247
aS'knows'
p3248
aS'nothing'
p3249
aS'about'
p3250
aS'computers.'
p3251
ag140
tp3252
a((lp3253
S'It'
p3254
aS'took'
p3255
aS'me'
p3256
aS'about'
p3257
aS'an'
p3258
aS'hour'
p3259
aS'to'
p3260
aS'set'
p3261
aS'up'
p3262
ag29
aS'wireless'
p3263
aS'environment'
p3264
aS'in'
p3265
aS'her'
p3266
aS'townhouse'
p3267
aS'and'
p3268
aS'she'
p3269
aS"hasn't"
p3270
aS'called'
p3271
aS'me'
p3272
aS'yet'
p3273
aS'with'
p3274
aS'any'
p3275
aS'problems.'
p3276
ag24
tp3277
a((lp3278
S'Make'
p3279
aS'sure'
p3280
aS'you'
p3281
aS'read'
p3282
aS'the'
p3283
aS'documentation'
p3284
aS'CLEARLY'
p3285
aS'if'
p3286
aS'you'
p3287
aS'dont'
p3288
aS'know'
p3289
aS'what'
p3290
aS"you're"
p3291
aS'doing.'
p3292
ag140
tp3293
a((lp3294
S'there'
p3295
aS'are'
p3296
aS'instructions'
p3297
aS'to'
p3298
aS'encrypt'
p3299
aS'your'
p3300
aS'personal'
p3301
aS'wirless'
p3302
aS'network'
p3303
aS'so'
p3304
aS'no'
p3305
aS'one'
p3306
aS'else'
p3307
aS'can'
p3308
aS'end'
p3309
aS'up'
p3310
aS'hogging/stealing'
p3311
aS'your'
p3312
aS'bandwidth.'
p3313
ag24
tp3314
a((lp3315
S'And'
p3316
aS'the'
p3317
aS'tech'
p3318
aS'writers'
p3319
aS'have'
p3320
aS'made'
p3321
aS'the'
p3322
aS'installation'
p3323
aS'process'
p3324
aS'SO'
p3325
aS'EASY'
p3326
aS'for'
p3327
aS'people'
p3328
aS'lik'
p3329
aS'my'
p3330
aS'aunt'
p3331
aS'to'
p3332
aS'follow.'
p3333
ag24
tp3334
a((lp3335
g1376
aS'very'
p3336
aS'well'
p3337
aS'made'
p3338
aS'product'
p3339
aS'that'
p3340
aS'has'
p3341
aS'worked'
p3342
aS'very'
p3343
aS'well'
p3344
aS'for'
p3345
aS'me'
p3346
aS'over'
p3347
aS'the'
p3348
aS'years.'
p3349
ag24
tp3350
a((lp3351
S"I'd"
p3352
aS'also'
p3353
aS'recommend'
p3354
aS'wireless'
p3355
aS'products'
p3356
aS'made'
p3357
aS'by'
p3358
aS'Belkin.'
p3359
ag140
tp3360
a((lp3361
S"i've"
p3362
aS'had'
p3363
aS'their'
p3364
aS'wireless'
p3365
aS'card'
p3366
aS'for'
p3367
aS'my'
p3368
aS'laptop'
p3369
aS'since'
p3370
aS'2000'
p3371
aS'and'
p3372
aS'it'
p3373
aS'has'
p3374
aS'rarely'
p3375
aS'given'
p3376
aS'me'
p3377
aS'problems.'
p3378
ag140
tp3379
a((lp3380
g187
aS'upgraded'
p3381
aS'from'
p3382
aS'an'
p3383
aS'older'
p3384
aS'801.11b'
p3385
aS'router'
p3386
aS'to'
p3387
aS'the'
p3388
aS'Linksys'
p3389
aS'WRT54G'
p3390
aS'for'
p3391
aS'its'
p3392
aS'improved'
p3393
aS'security,'
p3394
aS'and'
p3395
aS'of'
p3396
aS'course,'
p3397
aS'speed.'
p3398
ag24
tp3399
a((lp3400
S'However,'
p3401
aS'this'
p3402
aS'product'
p3403
aS'performed'
p3404
aS'well'
p3405
aS'below'
p3406
aS'my'
p3407
aS'expectation.'
p3408
ag310
tp3409
a((lp3410
S'The'
p3411
aS'Achilles'
p3412
aS'heel'
p3413
aS'of'
p3414
aS'this'
p3415
aS'router'
p3416
aS'is'
p3417
aS'its'
p3418
aS'inability'
p3419
aS'to'
p3420
aS'stream'
p3421
aS'music,'
p3422
aS'or'
p3423
aS'copy'
p3424
aS'large'
p3425
aS'files'
p3426
aS'over'
p3427
aS'the'
p3428
aS'local'
p3429
aS'network.'
p3430
ag310
tp3431
a((lp3432
g187
aS'use'
p3433
aS'Apple'
p3434
aS'iTunes'
p3435
aS'to'
p3436
aS'stream'
p3437
aS'music'
p3438
aS'to'
p3439
aS'my'
p3440
aS'stereo'
p3441
aS'via'
p3442
aS'the'
p3443
aS'Linksys'
p3444
aS'router.'
p3445
ag140
tp3446
a((lp3447
S'Although'
p3448
aS'it'
p3449
aS'will'
p3450
aS'work'
p3451
aS'for'
p3452
ag29
aS'few'
p3453
aS'minutes,'
p3454
aS'it'
p3455
aS'will'
p3456
aS'eventually'
p3457
aS'hang.'
p3458
ag140
tp3459
a((lp3460
S'This'
p3461
aS'behavior'
p3462
aS'(hanging)'
p3463
aS'also'
p3464
aS'occurs'
p3465
aS'when'
p3466
ag187
aS'transfer'
p3467
aS'large'
p3468
aS'files'
p3469
aS'between'
p3470
aS'my'
p3471
aS'PCs.'
p3472
ag140
tp3473
a((lp3474
S'After'
p3475
aS'some'
p3476
aS'research'
p3477
aS'on'
p3478
aS'the'
p3479
aS'Net,'
p3480
ag187
aS'discovered'
p3481
aS'that'
p3482
aS'there'
p3483
aS'is'
p3484
aS'indeed'
p3485
ag29
aS'flaw'
p3486
aS'with'
p3487
aS'the'
p3488
aS'current'
p3489
aS'WRT54G'
p3490
aS'design'
p3491
aS'(WRT54G,'
p3492
aS'version'
p3493
aS'3,'
p3494
aS'which'
p3495
aS'Amazon'
p3496
aS'currently'
p3497
aS'sells).'
p3498
ag310
tp3499
a((lp3500
S'If'
p3501
aS'you'
p3502
aS'just'
p3503
aS'use'
p3504
aS'the'
p3505
aS'router'
p3506
aS'to'
p3507
aS'surf'
p3508
aS'the'
p3509
aS'web,'
p3510
aS'this'
p3511
aS'router'
p3512
aS'should'
p3513
aS'serve'
p3514
aS'your'
p3515
aS'needs.'
p3516
ag140
tp3517
a((lp3518
S'As'
p3519
ag187
aS'mentioned'
p3520
aS'in'
p3521
aS'my'
p3522
aS'first'
p3523
aS'paragraph,'
p3524
aS'it'
p3525
aS'supports'
p3526
aS'WPA'
p3527
aS'security,'
p3528
aS'which'
p3529
aS'is'
p3530
aS'far'
p3531
aS'superior'
p3532
aS'to'
p3533
aS'WEP.'
p3534
ag24
tp3535
a((lp3536
S'In'
p3537
aS'addition'
p3538
aS'it'
p3539
aS'is'
p3540
aS'very'
p3541
aS'easy'
p3542
aS'to'
p3543
aS'setup.'
p3544
ag24
tp3545
a((lp3546
g187
aS'w!'
p3547
ag140
tp3548
a((lp3549
S'anted'
p3550
aS'to'
p3551
aS'rate'
p3552
aS'the'
p3553
aS'router'
p3554
aS'higher'
p3555
aS'than'
p3556
ag2407
aS'star,'
p3557
aS'due'
p3558
aS'to'
p3559
aS'its'
p3560
aS'security,'
p3561
aS'easy'
p3562
aS'of'
p3563
aS'use,'
p3564
aS'etc.'
p3565
ag24
tp3566
a((lp3567
S'However,'
p3568
aS'since'
p3569
aS'it'
p3570
aS'is'
p3571
aS'not'
p3572
aS'being'
p3573
aS'able'
p3574
aS'to'
p3575
aS'perform'
p3576
aS'its'
p3577
aS'core'
p3578
aS'function'
p3579
aS'adequately,'
p3580
aS'it'
p3581
aS"doesn't"
p3582
aS'deserve'
p3583
aS'any'
p3584
aS'higher.'
p3585
ag140
tp3586
a((lp3587
S'The'
p3588
aS'reader'
p3589
aS'can'
p3590
aS'find'
p3591
ag29
aS'better'
p3592
aS'product'
p3593
aS'with'
p3594
aS'the'
p3595
aS'competition'
p3596
aS'and'
p3597
aS'at'
p3598
ag29
aS'lower'
p3599
aS'cost.'
p3600
ag140
tp3601
a((lp3602
g187
aS'got'
p3603
aS'this'
p3604
aS'inexpensive'
p3605
aS'router'
p3606
aS'to'
p3607
aS'let'
p3608
aS'me'
p3609
aS'connect'
p3610
aS'two'
p3611
aS'desktops'
p3612
aS'and'
p3613
ag29
aS'Thinkpad'
p3614
aS'laptop'
p3615
aS'to'
p3616
aS'my'
p3617
aS'NTL'
p3618
aS'broadband'
p3619
aS'modem,'
p3620
aS'instead'
p3621
aS'of'
p3622
aS'having'
p3623
aS'to'
p3624
aS'go'
p3625
aS'through'
p3626
aS'the'
p3627
aS'hassle'
p3628
aS'of'
p3629
aS'rebooting'
p3630
aS'the'
p3631
aS'modem'
p3632
aS'and'
p3633
aS'connecting'
p3634
aS'to'
p3635
ag29
aS'different'
p3636
aS'PC,'
p3637
aS'as'
p3638
aS'and'
p3639
aS'when'
p3640
aS'needed.'
p3641
ag140
tp3642
a((lp3643
S'So'
p3644
aS'far'
p3645
aS'it'
p3646
aS'all'
p3647
aS'works'
p3648
aS'fine'
p3649
aS'with'
p3650
aS'either'
p3651
aS'cable'
p3652
aS'or'
p3653
aS'wireless'
p3654
aS'connections.'
p3655
ag24
tp3656
a((lp3657
S'My'
p3658
aS'next'
p3659
aS'project'
p3660
aS'will'
p3661
aS'be'
p3662
aS'to'
p3663
aS'try'
p3664
aS'out'
p3665
aS'sveasoft'
p3666
aS'firmware'
p3667
aS'to'
p3668
aS'increase'
p3669
aS'this'
p3670
aS'unit'
p3671
aS'capabilities'
p3672
aS'and'
p3673
aS'wireless'
p3674
aS'range.'
p3675
ag140
tp3676
a((lp3677
g187
aS'used'
p3678
aS'to'
p3679
aS'own'
p3680
ag29
aS'$20'
p3681
aS'after'
p3682
aS'rebate'
p3683
aS'cheapo'
p3684
aS'wireless'
p3685
aS'router'
p3686
aS'that'
p3687
ag187
aS'thought'
p3688
aS'would'
p3689
aS'be'
p3690
aS'adequate'
p3691
aS'enough'
p3692
aS'for'
p3693
ag29
aS'home'
p3694
aS'wireless'
p3695
aS'networking.'
p3696
ag140
tp3697
a((lp3698
S'Ended'
p3699
aS'up'
p3700
aS'returning'
p3701
aS'to'
p3702
ag29
aS'Linksys'
p3703
aS'router'
p3704
aS'and'
p3705
aS'giving'
p3706
aS'the'
p3707
aS'cheap'
p3708
aS'router'
p3709
aS'the'
p3710
aS'boot.'
p3711
ag140
tp3712
a((lp3713
S'The'
p3714
aS'cheap'
p3715
aS'router'
p3716
ag187
aS'used'
p3717
aS'to'
p3718
aS'own'
p3719
aS'had'
p3720
aS'very'
p3721
aS'minimal'
p3722
aS'feature'
p3723
aS'in'
p3724
aS'the'
p3725
aS'configurations'
p3726
aS'menu'
p3727
aS'and'
p3728
aS'less'
p3729
aS'security'
p3730
aS'options'
p3731
aS'then'
p3732
aS'the'
p3733
aS'Linksys'
p3734
aS'WRT54G.'
p3735
ag140
tp3736
a((lp3737
S'But'
p3738
aS'the'
p3739
aS'biggest'
p3740
aS'problem'
p3741
aS'was'
p3742
aS'the'
p3743
aS'constant'
p3744
aS'drop'
p3745
aS'in'
p3746
aS'connections'
p3747
aS'and'
p3748
aS'weak'
p3749
aS'signals'
p3750
aS'from'
p3751
aS'time'
p3752
aS'to'
p3753
aS'time.'
p3754
ag140
tp3755
a((lp3756
g187
aS'was'
p3757
aS'fed'
p3758
aS'up'
p3759
aS'and'
p3760
aS'turned'
p3761
aS'to'
p3762
aS'WRT54G'
p3763
aS'because'
p3764
aS'of'
p3765
aS'its'
p3766
aS'positive'
p3767
aS'reviews,'
p3768
aS'good'
p3769
aS'past'
p3770
aS'experience'
p3771
aS'with'
p3772
aS'wired'
p3773
aS'routers'
p3774
aS'and'
p3775
aS'frequent'
p3776
aS'firmware'
p3777
aS'updates'
p3778
aS'to'
p3779
aS'correct'
p3780
aS'any'
p3781
aS'bugs.'
p3782
aS'router[+2]'
p3783
aS"##I'm"
p3784
aS'happy'
p3785
aS'to'
p3786
aS'say'
p3787
aS'that'
p3788
aS'this'
p3789
aS'router'
p3790
aS'was'
p3791
aS'exactly'
p3792
aS'what'
p3793
ag187
aS'was'
p3794
aS'looking'
p3795
aS'for.'
p3796
ag140
tp3797
a((lp3798
S'You'
p3799
aS"won't"
p3800
aS'regret'
p3801
aS'it.'
p3802
ag140
tp3803
a((lp3804
S'The'
p3805
aS'setup'
p3806
aS'was'
p3807
aS'very'
p3808
aS'easy.'
p3809
ag24
tp3810
a((lp3811
S'Just'
p3812
aS'follow'
p3813
aS'the'
p3814
aS'instructions'
p3815
aS'carefully,'
p3816
aS"it's"
p3817
aS'all'
p3818
aS'based'
p3819
aS'on'
p3820
ag29
aS'CD'
p3821
aS'that'
p3822
aS'has'
p3823
aS'everything'
p3824
aS'you'
p3825
aS'need'
p3826
aS'to'
p3827
aS'get'
p3828
aS'you'
p3829
aS'up'
p3830
aS'and'
p3831
aS'running'
p3832
aS'in'
p3833
aS'no'
p3834
aS'time.'
p3835
ag24
tp3836
a((lp3837
S'The'
p3838
aS'dual'
p3839
aS'anteanna'
p3840
aS'is'
p3841
ag29
aS'plus'
p3842
aS'and'
p3843
aS'the'
p3844
aS'design'
p3845
aS'is'
p3846
aS'slick.'
p3847
ag24
tp3848
a((lp3849
S'No'
p3850
aS'more'
p3851
aS'connection!'
p3852
ag140
tp3853
a((lp3854
S'drops'
p3855
aS'and'
p3856
aS'strong'
p3857
aS'signals'
p3858
aS'even'
p3859
aS'from'
p3860
aS'the'
p3861
aS'backyard.'
p3862
ag24
tp3863
a((lp3864
S'The'
p3865
aS'WRT54G'
p3866
aS'offers'
p3867
aS'excellent'
p3868
aS'security'
p3869
aS'features'
p3870
aS'and'
p3871
aS'much'
p3872
aS'more'
p3873
aS'(and'
p3874
aS'easier)'
p3875
aS'configuration'
p3876
aS'menu'
p3877
aS'that'
p3878
ag187
aS"didn't"
p3879
aS'even'
p3880
aS'need'
p3881
ag29
aS'manual'
p3882
aS'to'
p3883
aS'setup'
p3884
aS'correctly.'
p3885
ag24
tp3886
a((lp3887
S'Even'
p3888
aS'though'
p3889
aS'you'
p3890
aS'could'
p3891
aS'get'
p3892
ag29
aS'cheap'
p3893
aS'router'
p3894
aS'these'
p3895
aS'days,'
p3896
aS"I'm"
p3897
aS'happy'
p3898
ag187
aS'spent'
p3899
ag29
aS'little'
p3900
aS'extra'
p3901
aS'for'
p3902
aS'the'
p3903
aS'Linksys.'
p3904
ag24
tp3905
a((lp3906
S'The'
p3907
aS'quality'
p3908
aS'is'
p3909
aS'significant'
p3910
aS'and'
p3911
aS"you'll"
p3912
aS'be'
p3913
aS'very'
p3914
aS'happy'
p3915
aS'from'
p3916
aS'saving'
p3917
aS'time'
p3918
aS'and'
p3919
aS'the'
p3920
aS'headache.'
p3921
ag24
tp3922
a((lp3923
g187
aS'got'
p3924
aS'it'
p3925
aS'working'
p3926
aS'fast'
p3927
aS'enough.'
p3928
ag24
tp3929
a((lp3930
S'It'
p3931
aS'is'
p3932
ag29
aS'nice'
p3933
aS'router'
p3934
aS'in'
p3935
aS'all'
p3936
aS'ways'
p3937
aS'but'
p3938
aS'one.'
p3939
ag24
tp3940
a((lp3941
S'It'
p3942
aS'is'
p3943
aS'not'
p3944
aS'reliable.'
p3945
ag310
tp3946
a((lp3947
g1376
aS'couple'
p3948
aS'of'
p3949
aS'times'
p3950
ag29
aS'week'
p3951
aS'it'
p3952
aS'seems'
p3953
aS'to'
p3954
aS'cease'
p3955
aS'access'
p3956
aS'to'
p3957
aS'the'
p3958
aS'internet.'
p3959
ag310
tp3960
a((lp3961
S'That'
p3962
aS'is,'
p3963
aS'you'
p3964
aS'cannot'
p3965
aS'access'
p3966
aS'the'
p3967
aS'internet'
p3968
aS'at'
p3969
aS'all.'
p3970
ag310
tp3971
a((lp3972
S'All'
p3973
aS'lights'
p3974
aS'blink,'
p3975
aS'and'
p3976
aS'you'
p3977
aS'can'
p3978
aS'still'
p3979
aS'access'
p3980
aS'other'
p3981
aS'computers'
p3982
aS'on'
p3983
aS'wired'
p3984
aS'and'
p3985
aS'wireless'
p3986
aS'LAN.'
p3987
ag140
tp3988
a((lp3989
S'Just'
p3990
aS'no'
p3991
aS'internet.'
p3992
ag140
tp3993
a((lp3994
S'You'
p3995
aS'have'
p3996
aS'to'
p3997
aS'unplug'
p3998
aS'the'
p3999
aS'unit'
p4000
aS'to'
p4001
aS'get'
p4002
aS'it'
p4003
aS'to'
p4004
aS'work'
p4005
aS'again.'
p4006
ag140
tp4007
a((lp4008
S'Very'
p4009
aS'annoying.'
p4010
ag310
tp4011
a((lp4012
g187
aS'did'
p4013
aS'know'
p4014
aS'about'
p4015
aS'this'
p4016
aS'from'
p4017
aS'researching'
p4018
aS'on'
p4019
aS'the'
p4020
aS'internet'
p4021
aS'before'
p4022
aS'purchasing'
p4023
aS'it,'
p4024
aS'but'
p4025
ag187
aS'bought'
p4026
aS'it'
p4027
aS'anyway.'
p4028
ag140
tp4029
a((lp4030
S'My'
p4031
aS'mistake.'
p4032
ag140
tp4033
a((lp4034
g187
aS'have'
p4035
aS'returned'
p4036
aS'it'
p4037
aS'and'
p4038
aS'have'
p4039
ag29
aS'cheaper,'
p4040
aS'nicer'
p4041
aS'Belkin.'
p4042
ag140
tp4043
a((lp4044
g187
aS'replaced'
p4045
aS'my'
p4046
aS'D-link'
p4047
aS'802.11b'
p4048
aS'router'
p4049
aS'because'
p4050
aS'it'
p4051
aS'could'
p4052
aS'not'
p4053
aS'hold'
p4054
ag29
aS'connection'
p4055
aS'continuously.'
p4056
ag140
tp4057
a((lp4058
S'See'
p4059
aS'my'
p4060
aS'other'
p4061
aS'reviews'
p4062
aS'for'
p4063
aS'the'
p4064
aS'details.'
p4065
ag140
tp4066
a((lp4067
g187
aS'also'
p4068
aS'wanted'
p4069
aS'to'
p4070
aS'switch'
p4071
aS'to'
p4072
aS'Broadcom'
p4073
aS'hardware'
p4074
aS'(which'
p4075
aS'the'
p4076
aS'linksys'
p4077
aS'uses)'
p4078
aS'because'
p4079
aS'my'
p4080
aS'WiFi'
p4081
aS'MiniPCI'
p4082
aS'card'
p4083
aS'in'
p4084
aS'my'
p4085
aS'dell'
p4086
aS'laptop'
p4087
aS'with'
p4088
aS'lucent'
p4089
aS'silicon'
p4090
aS'in'
p4091
aS'it'
p4092
aS'used'
p4093
aS'70%'
p4094
aS'of'
p4095
aS'my'
p4096
aS'1.2Ghz'
p4097
aS"laptop's"
p4098
aS'CPU'
p4099
aS'when'
p4100
aS'using'
p4101
aS'the'
p4102
aS'wireless'
p4103
aS'at'
p4104
aS'full'
p4105
aS'speed.'
p4106
ag24
tp4107
a((lp4108
S'This'
p4109
aS'is'
p4110
aS'because'
p4111
aS'the'
p4112
aS'Lucent'
p4113
aS'drivers'
p4114
aS'use'
p4115
aS'PIO'
p4116
aS'whereas'
p4117
aS'the'
p4118
aS'Broadcom'
p4119
aS'drivers'
p4120
aS'use'
p4121
aS'DMA.'
p4122
ag140
tp4123
a((lp4124
g187
aS'am'
p4125
aS'not'
p4126
aS'sure'
p4127
aS'if'
p4128
aS'this'
p4129
aS'is'
p4130
aS'still'
p4131
aS'the'
p4132
aS'case'
p4133
aS'with'
p4134
aS'lucent'
p4135
aS'drivers.'
p4136
ag140
tp4137
a((lp4138
g187
aS'bought'
p4139
aS'this'
p4140
aS'in'
p4141
aS'order'
p4142
aS'to'
p4143
aS'upgrade'
p4144
aS'from'
p4145
aS'an'
p4146
aS'old'
p4147
aS'802.11b'
p4148
aS'router'
p4149
aS'to'
p4150
aS'g'
p4151
aS'technology,'
p4152
aS'and'
p4153
ag187
aS'spent'
p4154
aS'several'
p4155
aS'hours'
p4156
aS'trying'
p4157
aS'to'
p4158
aS'get'
p4159
aS'it'
p4160
aS'to'
p4161
aS'work.'
p4162
ag140
tp4163
a((lp4164
S'The'
p4165
aS'installation'
p4166
aS'software'
p4167
aS'CD'
p4168
aS'crashed'
p4169
aS'repeatedly.'
p4170
ag310
tp4171
a((lp4172
S'Thinking'
p4173
aS'the'
p4174
aS'CD'
p4175
aS'was'
p4176
aS'faulty,'
p4177
ag187
aS'went'
p4178
aS'to'
p4179
aS'the'
p4180
aS'Linksys'
p4181
aS'website,'
p4182
aS'hoping'
p4183
aS'to'
p4184
aS'simply'
p4185
aS'download'
p4186
aS'the'
p4187
aS'setup'
p4188
aS'program,'
p4189
aS'but'
p4190
aS"it's"
p4191
aS'not'
p4192
aS'available.'
p4193
ag140
tp4194
a((lp4195
g187
aS'then'
p4196
aS'tried'
p4197
aS'to'
p4198
aS'set'
p4199
aS'up'
p4200
aS'the'
p4201
aS'router'
p4202
aS'through'
p4203
aS"Linksys's"
p4204
aS'browser'
p4205
aS'interface,'
p4206
aS'but'
p4207
aS'as'
p4208
aS'the'
p4209
aS'only'
p4210
aS'instructions'
p4211
aS'available'
p4212
aS'tell'
p4213
aS'you'
p4214
aS'to'
p4215
aS'use'
p4216
aS'the'
p4217
aS'installation'
p4218
aS'CD,'
p4219
ag187
aS'had'
p4220
aS'little'
p4221
aS'luck'
p4222
ag795
ag187
aS'did'
p4223
aS'manage'
p4224
aS'to'
p4225
aS'connect'
p4226
aS'briefly,'
p4227
aS'but'
p4228
aS'the'
p4229
aS'connection'
p4230
aS'kept'
p4231
aS'dropping,'
p4232
aS'and'
p4233
aS'with'
p4234
aS'no'
p4235
aS'idea'
p4236
aS'of'
p4237
aS'how'
p4238
aS'to'
p4239
aS'resolve'
p4240
aS'THAT'
p4241
aS'issue,'
p4242
ag187
aS'gave'
p4243
aS'up.'
p4244
ag310
tp4245
a((lp4246
S"I'm"
p4247
aS'returning'
p4248
aS'this,'
p4249
aS'as'
p4250
aS"I'm"
p4251
aS'not'
p4252
aS'willing'
p4253
aS'to'
p4254
aS'waste'
p4255
aS'more'
p4256
aS'time'
p4257
aS'trying'
p4258
aS'to'
p4259
aS'contact'
p4260
aS'tech'
p4261
aS'support,'
p4262
aS'particularly'
p4263
aS'in'
p4264
aS'light'
p4265
aS'of'
p4266
aS'the'
p4267
aS'comments'
p4268
aS'of'
p4269
aS'other'
p4270
aS'reviewers'
p4271
aS'who'
p4272
aS'have'
p4273
aS'done'
p4274
aS'so.'
p4275
ag140
tp4276
a((lp4277
S'Very'
p4278
aS'disappointing.'
p4279
ag140
tp4280
a((lp4281
g187
aS"couldn't"
p4282
aS'get'
p4283
aS'the'
p4284
aS'install'
p4285
aS'wizard'
p4286
aS'to'
p4287
aS'work.'
p4288
ag310
tp4289
a((lp4290
S'However,'
p4291
aS'setting'
p4292
aS'up'
p4293
aS'using'
p4294
aS'the'
p4295
aS'quick'
p4296
aS'start'
p4297
aS'instructions'
p4298
aS'was'
p4299
ag29
aS'breeze.'
p4300
ag24
tp4301
a((lp4302
S"It's"
p4303
aS'easy'
p4304
aS'to'
p4305
aS'install'
p4306
aS'the'
p4307
aS'security'
p4308
aS'on'
p4309
aS'this'
p4310
aS'product'
p4311
aS'but'
p4312
aS'Linksys'
p4313
aS"doesn't"
p4314
aS'do'
p4315
ag29
aS'good'
p4316
aS'job'
p4317
aS'of'
p4318
aS'explaining'
p4319
aS'why'
p4320
aS'its'
p4321
aS'important.'
p4322
ag24
tp4323
a((lp4324
S'If'
p4325
aS'you'
p4326
aS'buy,'
p4327
aS'you'
p4328
aS'should'
p4329
aS'disable'
p4330
aS'the'
p4331
aS'SSID'
p4332
aS'Broadcast,'
p4333
aS'use'
p4334
aS'MAC'
p4335
aS'filtering'
p4336
aS'and'
p4337
aS'deploy'
p4338
aS'some'
p4339
aS'form'
p4340
aS'of'
p4341
aS'encryption'
p4342
aS'(multiple'
p4343
aS'choices)if'
p4344
aS'you'
p4345
aS'want'
p4346
aS'to'
p4347
aS'ensure'
p4348
aS'your'
p4349
aS'network'
p4350
aS'is'
p4351
aS'secure'
p4352
aS'(all'
p4353
aS'covered'
p4354
aS'off'
p4355
aS'in'
p4356
aS'the'
p4357
aS'manual).'
p4358
ag140
tp4359
a((lp4360
S'If'
p4361
aS'buying'
p4362
aS'for'
p4363
aS'home'
p4364
aS'office'
p4365
aS'or'
p4366
aS'small'
p4367
aS'business'
p4368
aS'this'
p4369
aS'is'
p4370
ag29
aS'must.'
p4371
ag140
tp4372
a((lp4373
S'For'
p4374
aS'effort'
p4375
aS'free'
p4376
aS'wireless'
p4377
aS'network'
p4378
aS'adaptors,'
p4379
aS'use'
p4380
aS'the'
p4381
aS'linksys'
p4382
aS'USB'
p4383
aS'adaptor.'
p4384
ag140
tp4385
a((lp4386
S'If'
p4387
aS'you'
p4388
aS'need'
p4389
aS'convincing'
p4390
aS'on'
p4391
aS'the'
p4392
aS'security'
p4393
aS'side,'
p4394
aS'read'
p4395
aS'Wireless'
p4396
aS'Hacks,'
p4397
aS'(this'
p4398
aS'is'
p4399
ag29
aS'book'
p4400
aS'of'
p4401
aS'excellent'
p4402
aS'tips,'
p4403
aS'not'
p4404
aS'just'
p4405
aS'security),'
p4406
aS'published'
p4407
aS'by'
p4408
aS"O'Reilly."
p4409
ag140
tp4410
a((lp4411
S'Knocked'
p4412
ag2407
aS'star'
p4413
aS'off'
p4414
aS'for'
p4415
aS'the'
p4416
aS'install'
p4417
aS'wizard'
p4418
ag795
aS'it'
p4419
aS'wasted'
p4420
aS'alot'
p4421
aS'of'
p4422
aS'time'
p4423
aS'running'
p4424
aS'it.'
p4425
ag310
tp4426
a((lp4427
S'My'
p4428
aS'old'
p4429
aS'Linksys'
p4430
aS'router'
p4431
aS'recently'
p4432
aS'died'
p4433
aS'after'
p4434
aS'2.5'
p4435
aS'years'
p4436
aS'of'
p4437
aS'service.'
p4438
ag140
tp4439
a((lp4440
S'While'
p4441
ag187
aS'am'
p4442
aS'not'
p4443
aS'happy'
p4444
aS'that'
p4445
ag29
aS'solid'
p4446
aS'state'
p4447
aS'device'
p4448
aS'died'
p4449
aS'after'
p4450
aS'such'
p4451
ag29
aS'short'
p4452
aS'period'
p4453
aS'of'
p4454
aS'time,'
p4455
aS'my'
p4456
aS'quick'
p4457
aS'review'
p4458
aS'of'
p4459
aS'this'
p4460
aS'product'
p4461
aS'space'
p4462
aS'did'
p4463
aS'not'
p4464
aS'yield'
p4465
aS'any'
p4466
aS'other'
p4467
aS'brands'
p4468
aS'that'
p4469
aS'seem'
p4470
aS'much'
p4471
aS'better'
p4472
aS'than'
p4473
aS'Linksys.'
p4474
ag140
tp4475
a((lp4476
S'The'
p4477
aS'new'
p4478
aS'router'
p4479
aS'came'
p4480
aS'with'
p4481
aS'an'
p4482
aS'updated'
p4483
aS'setup'
p4484
aS'utility'
p4485
aS'that'
p4486
aS'makes'
p4487
aS'getting'
p4488
aS'the'
p4489
aS'router'
p4490
aS'installed'
p4491
ag29
aS'fairly'
p4492
aS'straight'
p4493
aS'forward'
p4494
aS'process.'
p4495
ag24
tp4496
a((lp4497
g187
aS'had'
p4498
aS'to'
p4499
aS'change'
p4500
aS'the'
p4501
aS'channel'
p4502
aS'of'
p4503
aS'the'
p4504
aS'router,'
p4505
aS'like'
p4506
aS'the'
p4507
aS'channel'
p4508
aS'on'
p4509
ag29
aS'cordless'
p4510
aS'phone,'
p4511
aS'to'
p4512
aS'get'
p4513
aS'it'
p4514
aS'to'
p4515
aS'work'
p4516
aS'with'
p4517
aS'the'
p4518
aS'Linksys'
p4519
aS'Instant'
p4520
aS'USB'
p4521
aS'Wireless'
p4522
aS'Adapter'
p4523
aS'v2.6.'
p4524
ag140
tp4525
a((lp4526
g187
aS'also'
p4527
aS'had'
p4528
aS'to'
p4529
aS'do'
p4530
aS'this'
p4531
aS'with'
p4532
aS'the'
p4533
aS'old'
p4534
aS'router.'
p4535
ag140
tp4536
a((lp4537
g187
aS'used'
p4538
aS'Linksys'
p4539
aS'technical'
p4540
aS'support'
p4541
aS'several'
p4542
aS'times.'
p4543
ag140
tp4544
a((lp4545
S'Unlike'
p4546
aS'other'
p4547
aS'reviewers,'
p4548
ag187
aS'have'
p4549
aS'found'
p4550
aS'the'
p4551
aS'support'
p4552
aS'to'
p4553
aS'be'
p4554
aS'responsive,'
p4555
aS'almost'
p4556
aS'no'
p4557
aS'wait'
p4558
aS'time'
p4559
aS'on'
p4560
aS'the'
p4561
aS'phone,'
p4562
aS'and'
p4563
aS'relatively'
p4564
aS'knowledgeable.'
p4565
ag24
tp4566
a((lp4567
S'Granted,'
p4568
ag187
aS'am'
p4569
ag29
aS'professional'
p4570
aS'technologist'
p4571
aS'with'
p4572
aS'years'
p4573
aS'of'
p4574
aS'experience.'
p4575
ag140
tp4576
a((lp4577
S'Overall,'
p4578
aS'this'
p4579
aS'router'
p4580
aS'seems'
p4581
aS'like'
p4582
ag29
aS'reasonably'
p4583
aS'priced'
p4584
aS'product'
p4585
aS'th!'
p4586
ag24
tp4587
a((lp4588
S'at'
p4589
aS'works'
p4590
aS'as'
p4591
aS'well'
p4592
aS'as'
p4593
aS'can'
p4594
aS'be'
p4595
aS'expected'
p4596
aS'for'
p4597
aS'products'
p4598
aS'in'
p4599
aS'this'
p4600
aS'space'
p4601
aS'and'
p4602
aS'the'
p4603
aS'company'
p4604
aS'backs'
p4605
aS'it'
p4606
aS'up'
p4607
aS'with'
p4608
aS'good'
p4609
aS'support.'
p4610
ag24
tp4611
a((lp4612
S'Now'
p4613
aS'that'
p4614
aS'the'
p4615
aS'11g'
p4616
aS'spec'
p4617
aS'is'
p4618
aS'final,'
p4619
aS'and'
p4620
ag29
aS'new'
p4621
aS'firmware'
p4622
aS'has'
p4623
aS'been'
p4624
aS'released'
p4625
aS'supporting'
p4626
aS'it,'
p4627
aS'the'
p4628
aS'WRT54G'
p4629
aS'is'
p4630
ag29
aS'serious'
p4631
aS'contender'
p4632
aS'for'
p4633
aS'your'
p4634
aS'wireless'
p4635
aS'network.'
p4636
ag140
tp4637
a((lp4638
S"It's"
p4639
aS'easy'
p4640
aS'and'
p4641
aS'really'
p4642
aS'works,'
p4643
aS'with'
p4644
aS'some'
p4645
aS'incredible'
p4646
aS'range.'
p4647
ag24
tp4648
a((lp4649
S'Compatability'
p4650
aS'with'
p4651
aS'other'
p4652
aS'devices'
p4653
aS'is'
p4654
aS'excellent'
p4655
aS'too;'
p4656
aS"I've"
p4657
aS'only'
p4658
aS'found'
p4659
aS'one'
p4660
aS'11b'
p4661
aS'device'
p4662
aS'that'
p4663
aS"won't"
p4664
aS'work'
p4665
aS'with'
p4666
aS'its'
p4667
aS'mixed'
p4668
aS'mode'
p4669
aS'(and'
p4670
aS'it'
p4671
aS"won't"
p4672
aS'work'
p4673
aS'with'
p4674
aS"*anyone's*"
p4675
aS'mixed'
p4676
aS'mode).'
p4677
ag24
tp4678
a((lp4679
S'Then'
p4680
aS'this'
p4681
aS'is'
p4682
aS'the'
p4683
aS'way'
p4684
aS'to'
p4685
aS'go.'
p4686
ag140
tp4687
a((lp4688
S'Setup'
p4689
aS'in'
p4690
aS'XP'
p4691
aS'was'
p4692
aS'instant'
p4693
aS'and'
p4694
aS'intuitive.'
p4695
ag24
tp4696
a((lp4697
S'However,'
p4698
aS'your'
p4699
aS'PC'
p4700
aS'cards'
p4701
aS'should'
p4702
aS'also'
p4703
aS'be'
p4704
aS'Linksys'
p4705
aS'"g"'
p4706
aS'rated,'
p4707
aS'as'
p4708
aS'interoperability'
p4709
aS'has'
p4710
aS'been'
p4711
ag29
aS'problem'
p4712
aS'on'
p4713
aS'some'
p4714
aS'"b"'
p4715
aS'cards.'
p4716
ag140
tp4717
a((lp4718
S'The'
p4719
aS'main'
p4720
aS'advantage'
p4721
aS'of'
p4722
aS'this'
p4723
aS'system'
p4724
aS'over'
p4725
aS'its'
p4726
aS'predecessor'
p4727
aS'is'
p4728
aS'the'
p4729
aS'ability'
p4730
aS'to'
p4731
aS'open'
p4732
ag29
aS'wider'
p4733
aS'pipeline'
p4734
aS'between'
p4735
aS'clients.'
p4736
ag24
tp4737
a((lp4738
S'Therefore,'
p4739
aS'if'
p4740
aS'you'
p4741
aS'have'
p4742
ag29
aS'really'
p4743
aS'robust'
p4744
aS'connection'
p4745
aS'(like'
p4746
ag29
aS'T3),'
p4747
aS'this'
p4748
aS'will'
p4749
aS'help.'
p4750
ag140
tp4751
a((lp4752
S'If'
p4753
aS'you'
p4754
aS'are'
p4755
aS'sharing'
p4756
ag29
aS'cable'
p4757
aS'modem'
p4758
aS'or'
p4759
aS'DSL,'
p4760
aS"it's"
p4761
aS'probably'
p4762
aS'not'
p4763
aS'going'
p4764
aS'to'
p4765
aS'be'
p4766
aS'noticeable.'
p4767
ag140
tp4768
a((lp4769
S'Linksys'
p4770
aS'quality'
p4771
aS'and'
p4772
aS'tech'
p4773
aS'support'
p4774
aS'have'
p4775
aS'been'
p4776
aS'outstanding.'
p4777
ag24
tp4778
a((lp4779
S'This'
p4780
aS'router'
p4781
aS'seems'
p4782
aS'to'
p4783
aS'have'
p4784
aS'gotten'
p4785
aS'mixed'
p4786
aS'reviews'
p4787
aS'for'
p4788
aS'ease'
p4789
aS'of'
p4790
aS'installation'
p4791
aS'and'
p4792
aS'its'
p4793
aS'compatability'
p4794
aS'with'
p4795
aS'11b'
p4796
aS'cards.'
p4797
ag140
tp4798
a((lp4799
S'My'
p4800
aS'experience'
p4801
aS'with'
p4802
aS'installation'
p4803
aS'was'
p4804
aS'quite'
p4805
aS'good.'
p4806
ag24
tp4807
a((lp4808
g187
aS'upgraded'
p4809
aS'both'
p4810
aS'my'
p4811
aS'card'
p4812
aS'and'
p4813
aS'router'
p4814
aS'and'
p4815
aS'really'
p4816
aS'had'
p4817
aS'no'
p4818
aS'problems'
p4819
aS'with'
p4820
aS'installation'
p4821
aS'on'
p4822
aS'my'
p4823
aS'Sony'
p4824
aS'VAIO'
p4825
aS'laptop'
p4826
aS'(XP'
p4827
aS'operating'
p4828
aS'system).'
p4829
ag24
tp4830
a((lp4831
S'The'
p4832
aS'card'
p4833
aS'basically'
p4834
aS'installed'
p4835
aS'itself'
p4836
aS'and'
p4837
aS'the'
p4838
aS'"install'
p4839
aS'wizard"'
p4840
aS'on'
p4841
aS'the'
p4842
aS'CD'
p4843
aS'that'
p4844
aS'came'
p4845
aS'with'
p4846
aS'the'
p4847
aS'router'
p4848
aS'basically'
p4849
aS'set'
p4850
aS'the'
p4851
aS'router'
p4852
aS'up'
p4853
aS'to'
p4854
aS'work'
p4855
aS'with'
p4856
aS'one'
p4857
aS'computer'
p4858
aS'(with'
p4859
aS'the'
p4860
aS'54g'
p4861
aS'card)'
p4862
aS'and'
p4863
aS'also'
p4864
ag29
aS'second'
p4865
aS'computer'
p4866
aS'in'
p4867
aS'my'
p4868
aS'house'
p4869
aS'(with'
p4870
aS'an'
p4871
aS'11b'
p4872
aS'card).'
p4873
ag24
tp4874
a((lp4875
S'The'
p4876
aS'setup'
p4877
aS"wasn't"
p4878
aS'quite'
p4879
aS'perfect'
p4880
aS'the'
p4881
aS'first'
p4882
aS'time'
p4883
aS'--'
p4884
ag187
aS'needed'
p4885
aS'to'
p4886
aS'go'
p4887
aS'through'
p4888
ag29
aS'web-based'
p4889
aS'interface'
p4890
aS'to'
p4891
aS'set'
p4892
aS'up'
p4893
aS'the'
p4894
aS'router'
p4895
aS'(to'
p4896
aS'give'
p4897
aS'it'
p4898
aS'info'
p4899
aS'on'
p4900
aS'my'
p4901
aS'DSL'
p4902
aS'provider'
p4903
aS'account),'
p4904
aS'though'
p4905
aS'the'
p4906
aS'documentation'
p4907
aS'for'
p4908
aS'this'
p4909
aS'was'
p4910
aS'staightforward.'
p4911
ag140
tp4912
a((lp4913
S'The'
p4914
aS'whole'
p4915
aS'process'
p4916
aS'was'
p4917
aS'probably'
p4918
aS'about'
p4919
aS'10'
p4920
aS'minutes.'
p4921
ag140
tp4922
a((lp4923
S'Setting'
p4924
aS'up'
p4925
aS'the'
p4926
aS'2nd'
p4927
aS'computer'
p4928
aS'really'
p4929
aS'was'
p4930
aS'easy'
p4931
aS'too'
p4932
aS'--'
p4933
aS'basically'
p4934
aS'hooking'
p4935
aS'the'
p4936
aS'computer'
p4937
aS'to'
p4938
aS'the'
p4939
aS'router'
p4940
aS'and!'
p4941
ag140
tp4942
a((lp4943
S'running'
p4944
aS'the'
p4945
aS'installation'
p4946
aS'wizard'
p4947
aS'again.'
p4948
ag140
tp4949
a((lp4950
g187
aS"haven't"
p4951
aS'tried'
p4952
aS'to'
p4953
aS'set'
p4954
aS'up'
p4955
aS'any'
p4956
aS'advanced'
p4957
aS'features'
p4958
aS'on'
p4959
aS'the'
p4960
aS'router,'
p4961
aS'but'
p4962
aS'it'
p4963
aS'is'
p4964
aS'not'
p4965
aS'difficult'
p4966
aS'to'
p4967
aS'set'
p4968
aS'up'
p4969
aS'for'
p4970
aS'basic'
p4971
aS'use.'
p4972
ag24
tp4973
a((lp4974
S'The'
p4975
aS'documentation'
p4976
aS'is'
p4977
aS'much'
p4978
aS'better'
p4979
aS'than'
p4980
aS'the'
p4981
aS'documentation'
p4982
aS'that'
p4983
aS'came'
p4984
aS'with'
p4985
aS'the'
p4986
aS'11b'
p4987
aS'router'
p4988
aS'--'
p4989
ag187
aS'needed'
p4990
ag29
aS'lot'
p4991
aS'of'
p4992
aS'help'
p4993
aS'from'
p4994
aS'Linksys'
p4995
aS'technical'
p4996
aS'assistance'
p4997
aS'to'
p4998
aS'set'
p4999
aS'that'
p5000
aS'one'
p5001
aS'up.'
p5002
ag24
tp5003
a((lp5004
g187
aS'like'
p5005
aS'this'
p5006
aS'router'
p5007
ag29
aS'whole'
p5008
aS'lot'
p5009
aS'better'
p5010
aS'the'
p5011
aS'Linksys'
p5012
aS'11b'
p5013
aS'router'
p5014
aS'it'
p5015
aS'replaced'
p5016
aS'--'
p5017
aS'the'
p5018
aS'signal'
p5019
aS'strength'
p5020
aS'seems'
p5021
aS'ot'
p5022
aS'be'
p5023
aS'much'
p5024
aS'stroners,'
p5025
aS'seldom'
p5026
aS'falling'
p5027
aS'below'
p5028
aS'the'
p5029
aS'"very'
p5030
aS'good"'
p5031
aS'range'
p5032
aS'(and'
p5033
aS'most'
p5034
aS'often'
p5035
aS'excellent'
p5036
aS'within'
p5037
aS'25-50'
p5038
aS'feet'
p5039
aS'of'
p5040
aS'the'
p5041
aS'router.'
p5042
ag24
tp5043
a((lp5044
S'The'
p5045
aS'transmission'
p5046
aS'speed'
p5047
aS'is'
p5048
aS'also'
p5049
aS'quite'
p5050
aS'good,'
p5051
aS'with'
p5052
aS'pages'
p5053
aS'loading'
p5054
aS'very'
p5055
aS'quickly.'
p5056
ag24
tp5057
a((lp5058
g187
aS'have'
p5059
aS'had'
p5060
aS'no'
p5061
aS'problem'
p5062
aS'either'
p5063
aS'with'
p5064
aS'backward'
p5065
aS'compatiaibility,'
p5066
aS'in'
p5067
aS'that'
p5068
aS'the'
p5069
aS'"mixed'
p5070
aS'mode"'
p5071
aS'feature'
p5072
aS'lets'
p5073
aS'you'
p5074
aS'both'
p5075
aS'54'
p5076
aS'and'
p5077
aS'11'
p5078
aS'Mb'
p5079
aS'cards'
p5080
aS'off'
p5081
aS'the'
p5082
aS'router.'
p5083
ag24
tp5084
a((lp5085
g187
aS'have'
p5086
aS'been'
p5087
aS'using'
p5088
aS'my'
p5089
aS'router'
p5090
aS'for'
p5091
aS'some'
p5092
aS'months'
p5093
aS'now...'
p5094
ag187
aS'still'
p5095
aS'cant'
p5096
aS'wirelessly'
p5097
aS'access'
p5098
aS'the'
p5099
aS'internet'
p5100
aS'through'
p5101
aS'my'
p5102
aS'laptop'
p5103
aS'but'
p5104
aS"that's"
p5105
ag29
aS'laptop'
p5106
aS'problem.'
p5107
ag140
tp5108
a((lp5109
S'As'
p5110
aS'far'
p5111
aS'as'
p5112
aS'dealing'
p5113
aS'with'
p5114
aS'network'
p5115
aS'access'
p5116
aS'of'
p5117
aS'other'
p5118
aS'computers'
p5119
aS'this'
p5120
aS'router'
p5121
aS'is'
p5122
aS'pretty'
p5123
aS'good'
p5124
aS'given'
p5125
aS'the'
p5126
aS'price-'
p5127
aS'remember'
p5128
aS'this'
p5129
aS'router'
p5130
aS'is'
p5131
aS'the'
p5132
aS'same'
p5133
aS'one'
p5134
aS'that'
p5135
aS'was'
p5136
aS'released'
p5137
aS'right'
p5138
aS'when'
p5139
aS'the'
p5140
aS'G'
p5141
aS'standard'
p5142
aS'was'
p5143
aS'introduced'
p5144
aS'to'
p5145
aS'the'
p5146
aS'market.'
p5147
ag24
tp5148
a((lp5149
S'If'
p5150
aS'you'
p5151
aS'want'
p5152
aS'"the'
p5153
aS'newest'
p5154
aS'gadget"'
p5155
aS'get'
p5156
aS'the'
p5157
aS'one'
p5158
aS'with'
p5159
aS'speedbooster.'
p5160
ag140
tp5161
a((lp5162
g187
aS'like'
p5163
aS'the'
p5164
aS'fact'
p5165
aS'that'
p5166
aS'it'
p5167
aS'IS'
p5168
aS'EASY'
p5169
aS'to'
p5170
aS'use'
p5171
aS'with'
p5172
aS'limited'
p5173
aS'networking'
p5174
aS'experience-'
p5175
aS'the'
p5176
aS'problem'
p5177
ag187
aS'have'
p5178
aS'is'
p5179
aS'that'
p5180
aS'there'
p5181
aS'are'
p5182
aS'many'
p5183
aS'useless'
p5184
aS'features'
p5185
aS'on'
p5186
aS'the'
p5187
aS'unit,'
p5188
aS'and'
p5189
aS'some'
p5190
aS'wanted'
p5191
aS'features,'
p5192
aS'like'
p5193
ag29
aS'list'
p5194
aS'of'
p5195
aS'computers'
p5196
aS'accessing'
p5197
aS'my'
p5198
aS'wireless,'
p5199
aS'is'
p5200
aS'not'
p5201
aS'easily'
p5202
aS'found'
p5203
aS'on'
p5204
aS'my'
p5205
aS'router.'
p5206
ag140
tp5207
a((lp5208
S'All'
p5209
aS'in'
p5210
aS'all,'
p5211
aS"it's"
p5212
ag29
aS'good'
p5213
aS'router'
p5214
aS'if'
p5215
aS'you'
p5216
aS"don't"
p5217
aS'have'
p5218
aS'the'
p5219
aS'cash'
p5220
aS'for'
p5221
ag29
aS'Speedbooster'
p5222
aS'one.'
p5223
ag24
tp5224
a((lp5225
S'Expect'
p5226
aS'about'
p5227
aS'10MBps'
p5228
aS'and'
p5229
aS'not'
p5230
aS'more'
p5231
aS'though!'
p5232
ag140
tp5233
a((lp5234
g187
aS'upgraded'
p5235
aS'my'
p5236
aS'network'
p5237
aS'to'
p5238
aS'wireless'
p5239
aS'with'
p5240
aS'this'
p5241
aS'router.'
p5242
ag140
tp5243
a((lp5244
g187
aS'just'
p5245
aS'replaced'
p5246
aS'my'
p5247
aS'old'
p5248
aS'Linksys'
p5249
aS'router'
p5250
aS'with'
p5251
aS'this'
p5252
aS'one,'
p5253
aS'turned'
p5254
aS'everything'
p5255
aS'on'
p5256
aS'in'
p5257
aS'the'
p5258
aS'right'
p5259
aS'order,'
p5260
aS'and'
p5261
aS'it'
p5262
aS'was'
p5263
aS'up'
p5264
aS'and'
p5265
aS'running'
p5266
aS'with'
p5267
aS'no'
p5268
aS'problems.'
p5269
ag24
tp5270
a((lp5271
S'All'
p5272
aS'of'
p5273
aS'the'
p5274
aS'wireless'
p5275
aS'components'
p5276
aS'that'
p5277
ag187
aS'bought'
p5278
aS'were'
p5279
ag29
aS'breeze'
p5280
aS'to'
p5281
aS'set'
p5282
aS'up'
p5283
aS'as'
p5284
aS'well.'
p5285
ag24
tp5286
a((lp5287
S'This'
p5288
aS'product'
p5289
aS'is'
p5290
aS'by'
p5291
aS'far'
p5292
aS'the'
p5293
aS'best'
p5294
aS'Broadband'
p5295
aS'Router'
p5296
aS'on'
p5297
aS'the'
p5298
aS'market,'
p5299
ag187
aS'bought'
p5300
aS'this'
p5301
aS'to'
p5302
aS'replace'
p5303
aS'one'
p5304
aS'of'
p5305
aS'those'
p5306
aS'Linksys'
p5307
aS'Instant'
p5308
aS'Wireless'
p5309
aS'B'
p5310
aS'routers,'
p5311
aS'worked'
p5312
aS'great'
p5313
aS'for'
p5314
aS'about'
p5315
ag29
aS'year.'
p5316
ag24
tp5317
a((lp5318
S'In'
p5319
aS'my'
p5320
aS'opinion'
p5321
ag29
aS'year'
p5322
aS'is'
p5323
ag29
aS'good'
p5324
aS'service'
p5325
aS'time'
p5326
aS'for'
p5327
ag29
aS'device,'
p5328
ag187
aS'dont'
p5329
aS'expect'
p5330
aS'this'
p5331
aS'router'
p5332
aS'or'
p5333
aS'any'
p5334
aS'other'
p5335
aS'to'
p5336
aS'work'
p5337
aS'great'
p5338
aS'for'
p5339
aS'more'
p5340
aS'than'
p5341
ag29
aS'year.'
p5342
ag140
tp5343
a((lp5344
S'My'
p5345
aS'opion'
p5346
aS'is'
p5347
aS'concentrate'
p5348
aS'on'
p5349
aS'what'
p5350
aS'you'
p5351
aS'need'
p5352
aS'now,'
p5353
aS'This'
p5354
aS'product'
p5355
aS'has'
p5356
aS'EXELENT'
p5357
aS'range,'
p5358
aS'holds'
p5359
ag29
aS'teady'
p5360
aS'connection,'
p5361
aS'hasent'
p5362
aS'even'
p5363
aS'droped'
p5364
aS'one'
p5365
aS'and'
p5366
ag13
aS'have'
p5367
aS'it'
p5368
aS'for'
p5369
aS'more'
p5370
aS'than'
p5371
ag29
aS'month'
p5372
aS'now.'
p5373
ag24
tp5374
a((lp5375
S'IF'
p5376
aS'YOU'
p5377
aS'NEED'
p5378
ag1376
aS'WIRELESS'
p5379
aS'ROUTER....'
p5380
aS'GET'
p5381
aS'IT'
p5382
aS'GET'
p5383
aS'IT'
p5384
aS'GET'
p5385
aS'IT....'
p5386
aS'works'
p5387
aS'really'
p5388
aS'good....'
p5389
ag24
tp5390
a((lp5391
g187
aS'was'
p5392
aS'an'
p5393
aS'early'
p5394
aS'purchaser'
p5395
aS'of'
p5396
aS'the'
p5397
aS'WRT54G,'
p5398
aS'and'
p5399
aS'had'
p5400
ag29
aS'few'
p5401
aS'problems'
p5402
aS'with'
p5403
aS'stability'
p5404
aS'and'
p5405
aS'speed'
p5406
ag795
aS'finally,'
p5407
aS'the'
p5408
aS'March'
p5409
aS'03'
p5410
aS'firmware'
p5411
aS'update'
p5412
aS'has'
p5413
aS'resulted'
p5414
aS'in'
p5415
aS'an'
p5416
aS'excellent'
p5417
aS'product!'
p5418
ag24
tp5419
a((lp5420
S'It'
p5421
aS'took'
p5422
aS'me'
p5423
aS'three'
p5424
aS'days,'
p5425
aS'to'
p5426
aS'the'
p5427
aS'tune'
p5428
aS'of'
p5429
aS'Neil'
p5430
aS"Young's"
p5431
aS'song'
p5432
aS'"Piece'
p5433
aS'Of'
p5434
aS'Cr--!",'
p5435
aS'to'
p5436
aS'get'
p5437
aS'this'
p5438
aS'to'
p5439
aS'work'
p5440
aS'with'
p5441
aS'the'
p5442
aS'satellite'
p5443
aS'hookup'
p5444
ag187
aS'was'
p5445
aS'hired'
p5446
aS'to'
p5447
aS'connect'
p5448
aS'this'
p5449
aS'wireless'
p5450
aS'network'
p5451
aS'up'
p5452
aS'to.'
p5453
ag310
tp5454
a((lp5455
S'There'
p5456
aS'is'
p5457
aS'not'
p5458
ag29
aS'word'
p5459
aS'about'
p5460
aS'satellite'
p5461
aS'issues'
p5462
aS'in'
p5463
aS'either'
p5464
aS'the'
p5465
aS'user'
p5466
aS'guide'
p5467
aS'or'
p5468
aS'the'
p5469
aS'"knowledge"'
p5470
aS'database'
p5471
aS'at'
p5472
aS'linksys.com,'
p5473
aS'and'
p5474
aS'first'
p5475
aS'tech'
p5476
aS'support'
p5477
aS'person'
p5478
ag187
aS'spoke'
p5479
aS'with'
p5480
aS'kept'
p5481
aS'me'
p5482
aS'on'
p5483
aS'the'
p5484
aS'phone'
p5485
aS'for'
p5486
aS'an'
p5487
aS'hour,'
p5488
aS'then'
p5489
aS'gave'
p5490
aS'me'
p5491
ag29
aS'web'
p5492
aS'site'
p5493
aS'address'
p5494
aS'to'
p5495
aS'consult--that'
p5496
aS'turned'
p5497
aS'out'
p5498
aS'to'
p5499
aS'be'
p5500
aS'the'
p5501
aS'one'
p5502
aS"I'd"
p5503
aS'already'
p5504
aS'found'
p5505
aS'during'
p5506
ag29
aS'search'
p5507
aS'of'
p5508
aS'my'
p5509
aS'own.'
p5510
ag310
tp5511
a((lp5512
S'The'
p5513
aS'only'
p5514
aS'way'
p5515
ag187
aS'got'
p5516
aS'the'
p5517
aS'thing'
p5518
aS'working'
p5519
aS'(this'
p5520
aS'was'
p5521
aS'with'
p5522
ag29
aS'DirecWay'
p5523
aS'satellite):'
p5524
ag140
tp5525
a((lp5526
g187
aS'just'
p5527
aS'upgraded'
p5528
aS'to'
p5529
aS'the'
p5530
aS'Linksys'
p5531
aS'WRT54G'
p5532
aS'Wireless-G'
p5533
aS'router'
p5534
aS'last'
p5535
aS'month'
p5536
aS'and'
p5537
ag187
aS'am'
p5538
aS'very'
p5539
aS'happy'
p5540
aS'with'
p5541
aS'the'
p5542
aS'quality'
p5543
aS'of'
p5544
aS'the'
p5545
aS'product.'
p5546
ag24
tp5547
a((lp5548
S'This'
p5549
aS'router'
p5550
aS'acts'
p5551
aS'as'
p5552
ag29
aS'wireless'
p5553
aS'access'
p5554
aS'point,'
p5555
aS'100'
p5556
aS'MB'
p5557
aS'switch'
p5558
aS'and'
p5559
ag29
aS'router'
p5560
aS'making'
p5561
aS'it'
p5562
ag29
aS'nice'
p5563
aS'multipurpose'
p5564
aS'device.'
p5565
ag24
tp5566
a((lp5567
S'Bought'
p5568
aS'this'
p5569
ag29
aS'few'
p5570
aS'months'
p5571
aS'ago'
p5572
aS'with'
p5573
aS'the'
p5574
aS'Laptop'
p5575
aS'card.'
p5576
ag140
tp5577
a((lp5578
g187
aS'was'
p5579
aS'having'
p5580
aS'intermittent'
p5581
aS'problems'
p5582
aS'with'
p5583
aS'it'
p5584
aS'losing'
p5585
aS'connection.'
p5586
ag310
tp5587
a((lp5588
g187
aS'purchased'
p5589
aS'the'
p5590
aS'router'
p5591
aS'and'
p5592
ag2407
aS'Linksys'
p5593
aS'WPC54G'
p5594
aS'Wireless'
p5595
aS'54g'
p5596
aS'PC'
p5597
aS'Card.'
p5598
ag140
tp5599
a((lp5600
S'The'
p5601
aS'inital'
p5602
aS'setup'
p5603
aS'of'
p5604
aS'the'
p5605
aS'router'
p5606
aS'was'
p5607
aS'simple.'
p5608
ag24
tp5609
a((lp5610
S'The'
p5611
aS'PC'
p5612
aS'card'
p5613
aS'setup'
p5614
aS'was'
p5615
aS'painless'
p5616
aS'as'
p5617
aS'well.'
p5618
ag140
tp5619
a((lp5620
S'Works'
p5621
aS'pretty'
p5622
aS'well.'
p5623
ag24
tp5624
a((lp5625
S"Haven't"
p5626
aS'had'
p5627
aS'any'
p5628
aS'of'
p5629
aS'the'
p5630
aS'issues'
p5631
aS"I've"
p5632
aS'been'
p5633
aS'reading'
p5634
aS'in'
p5635
aS'the'
p5636
aS'other'
p5637
aS'reviews.'
p5638
ag140
tp5639
a((lp5640
S'The'
p5641
aS'best'
p5642
aS'part'
p5643
aS'about'
p5644
aS'this'
p5645
aS'router'
p5646
aS'is'
p5647
aS'now'
p5648
ag187
aS'have'
p5649
ag29
aS'DHCP'
p5650
aS'server.'
p5651
ag24
tp5652
a((lp5653
S'Before'
p5654
ag187
aS'had'
p5655
aS'to'
p5656
aS'manually'
p5657
aS'put'
p5658
aS'my'
p5659
aS'IP'
p5660
aS'settings'
p5661
aS'into'
p5662
aS'my'
p5663
aS'laptop'
p5664
aS'every'
p5665
aS'time'
p5666
ag187
aS'switched'
p5667
aS'networks.'
p5668
ag140
tp5669
a((lp5670
S'This'
p5671
aS'concept'
p5672
aS'seems'
p5673
aS'to'
p5674
aS'be'
p5675
aS'unusual.'
p5676
ag140
tp5677
a((lp5678
S'Cisco'
p5679
aS"(let's"
p5680
aS'be'
p5681
aS'honest'
p5682
aS'they'
p5683
aS'own'
p5684
aS'Linksys)'
p5685
aS'has'
p5686
aS'lowered'
p5687
aS'the'
p5688
aS'memory'
p5689
aS'and'
p5690
aS'processing'
p5691
aS'power'
p5692
aS'of'
p5693
aS'the'
p5694
aS'newer'
p5695
aS'versions'
p5696
aS'of'
p5697
aS'this'
p5698
aS'device.'
p5699
ag140
tp5700
a((lp5701
S"They've"
p5702
aS'gone'
p5703
aS'from'
p5704
aS'16'
p5705
aS'MB'
p5706
aS'of'
p5707
aS'RAM'
p5708
aS'in'
p5709
aS'version'
p5710
ag989
aS'to'
p5711
aS'8'
p5712
aS'MB'
p5713
aS'of'
p5714
aS'RAM'
p5715
aS'in'
p5716
aS'version'
p5717
aS'5.'
p5718
ag140
tp5719
a((lp5720
S'They'
p5721
aS'also'
p5722
aS'lowered'
p5723
aS'flash'
p5724
aS'memory'
p5725
aS'from'
p5726
ag989
aS'to'
p5727
ag112
aS'MB'
p5728
aS'at'
p5729
aS'the'
p5730
aS'same'
p5731
aS'time.'
p5732
ag140
tp5733
a((lp5734
S'Interestingly,'
p5735
aS'they'
p5736
aS'upgraded'
p5737
aS'from'
p5738
aS'200'
p5739
aS'MHz'
p5740
aS'to'
p5741
aS'216'
p5742
aS'MHz'
p5743
aS'processors'
p5744
aS'from'
p5745
aS'version'
p5746
aS'3.0'
p5747
aS'to'
p5748
aS'3.1'
p5749
aS'and'
p5750
aS'then'
p5751
aS'throttled'
p5752
aS'back'
p5753
aS'to'
p5754
aS'200'
p5755
aS'MHz'
p5756
aS'at'
p5757
aS'version'
p5758
aS'4.0.'
p5759
ag140
tp5760
a((lp5761
S'There'
p5762
aS'may'
p5763
aS'be'
p5764
aS'many'
p5765
aS'theories'
p5766
aS'as'
p5767
aS'to'
p5768
aS'why'
p5769
aS"they've"
p5770
aS'done'
p5771
aS'this,'
p5772
aS'but'
p5773
ag29
aS'logical'
p5774
aS'argument'
p5775
aS'is'
p5776
aS'that'
p5777
aS'with'
p5778
ag29
aS'faster'
p5779
aS'processor'
p5780
aS'and'
p5781
aS'more'
p5782
aS'memory,'
p5783
aS'they'
p5784
aS'Linksys'
p5785
aS'device'
p5786
aS'may'
p5787
aS'compete'
p5788
ag29
aS'little'
p5789
aS'to'
p5790
aS'close'
p5791
aS'to'
p5792
aS'the'
p5793
aS'Enterprise-Class'
p5794
aS'Cisco'
p5795
aS'devices.'
p5796
ag140
tp5797
a((lp5798
S'Someone'
p5799
aS'in'
p5800
aS'Cisco'
p5801
aS'should'
p5802
aS'post'
p5803
ag29
aS'review'
p5804
aS'here'
p5805
aS'letting'
p5806
aS'us'
p5807
aS'know'
p5808
aS'why'
p5809
aS'this'
p5810
aS'was'
p5811
aS'done.'
p5812
ag140
tp5813
a((lp5814
S'If'
p5815
aS'it'
p5816
aS'was'
p5817
ag29
aS'software'
p5818
aS'comaptiblity'
p5819
aS'issue'
p5820
aS'or'
p5821
ag29
aS'component'
p5822
aS'availability'
p5823
aS'issue,'
p5824
aS'explain'
p5825
aS'it'
p5826
aS'to'
p5827
aS'us'
p5828
aS'so'
p5829
aS'we'
p5830
aS"don't"
p5831
aS'have'
p5832
aS'to'
p5833
aS'theorize'
p5834
aS'on'
p5835
aS'the'
p5836
aS'motives.'
p5837
ag140
tp5838
a((lp5839
S'In'
p5840
aS'the'
p5841
aS'mean'
p5842
aS'time,'
p5843
aS"I'll"
p5844
aS'buy'
p5845
ag29
aS'different'
p5846
aS'ro!'
p5847
ag140
tp5848
a((lp5849
S'uter'
p5850
aS'like'
p5851
aS'the'
p5852
aS'Buffalo'
p5853
aS'WZR-RS-G54'
p5854
aS'with'
p5855
aS'64'
p5856
aS'megabytes'
p5857
aS'of'
p5858
aS'RAM'
p5859
aS'and'
p5860
ag5712
aS'MB'
p5861
aS'flash'
p5862
aS'(plus'
p5863
aS'an'
p5864
aS'amazing'
p5865
aS'built-in'
p5866
aS'PPTP'
p5867
aS'VPN'
p5868
aS'server'
p5869
aS'that'
p5870
aS'supports'
p5871
aS'client-to-LAN'
p5872
aS'as'
p5873
aS'well'
p5874
aS'as'
p5875
aS'LAN-to-LAN'
p5876
aS'connections).'
p5877
ag140
tp5878
a((lp5879
S'Maybe'
p5880
aS'you'
p5881
aS'could'
p5882
aS'consider'
p5883
aS'the'
p5884
aS'used'
p5885
aS'WRT54G'
p5886
aS'version'
p5887
aS'3.1'
p5888
aS'if'
p5889
aS'you'
p5890
aS'can'
p5891
aS'find'
p5892
aS'it?'
p5893
ag140
tp5894
a((lp5895
S'This'
p5896
aS'is'
p5897
ag29
aS'good'
p5898
aS'product,'
p5899
aS'but'
p5900
aS'the'
p5901
aS'Linksys'
p5902
aS'54g'
p5903
aS'desktop'
p5904
aS'card'
p5905
aS'is'
p5906
aS'not.'
p5907
ag140
tp5908
a((lp5909
S"I'd"
p5910
aS'recommend'
p5911
aS'this'
p5912
aS'is'
p5913
aS'you'
p5914
aS'want'
p5915
aS'to'
p5916
aS'wireless'
p5917
aS'network'
p5918
aS'your'
p5919
aS'laptop,'
p5920
aS'but'
p5921
aS'if'
p5922
aS'you'
p5923
aS'want'
p5924
aS'to'
p5925
aS'wirelessly'
p5926
aS'network'
p5927
ag29
aS'couple'
p5928
aS'desktops'
p5929
aS'together'
p5930
aS'you'
p5931
aS'might'
p5932
aS'want'
p5933
aS'to'
p5934
aS'wait'
p5935
aS'until'
p5936
aS'Linksys'
p5937
aS'improves'
p5938
aS'their'
p5939
aS'desktop'
p5940
aS'software/hardware.'
p5941
ag310
tp5942
a((lp5943
S'Years'
p5944
aS'ago'
p5945
ag187
aS'had'
p5946
aS'an'
p5947
aS'old'
p5948
aS'Linksys'
p5949
aS'router'
p5950
aS'that'
p5951
ag187
aS'never'
p5952
aS'could'
p5953
aS'get'
p5954
aS'to'
p5955
aS'work'
p5956
aS'right.'
p5957
ag140
tp5958
a((lp5959
S'My'
p5960
aS'new'
p5961
aS'Toshiba'
p5962
aS"M35-S359's"
p5963
aS'Wi-Fi'
p5964
aS'capabilities'
p5965
aS'became'
p5966
aS'apparent'
p5967
aS'when'
p5968
ag187
aS'took'
p5969
aS'it'
p5970
aS'on'
p5971
aS'th'
p5972
aS'eroad'
p5973
aS'over'
p5974
aS'Thanksgiving.'
p5975
ag140
tp5976
a((lp5977
S'My'
p5978
aS'brother'
p5979
aS'had'
p5980
aS'an'
p5981
aS'old'
p5982
aS'Linksys'
p5983
ag5310
aS'band'
p5984
aS'wireless'
p5985
aS'router'
p5986
aS'in'
p5987
aS'his'
p5988
aS'home'
p5989
aS'and'
p5990
aS'it'
p5991
aS'was'
p5992
aS'like'
p5993
aS'magic.'
p5994
ag24
tp5995
a((lp5996
S'First,'
p5997
ag187
aS'must'
p5998
aS'point'
p5999
aS'out'
p6000
aS'that'
p6001
aS'any'
p6002
aS'router'
p6003
aS'installation'
p6004
aS'is'
p6005
aS'not'
p6006
aS'for'
p6007
aS'the'
p6008
aS'faint'
p6009
aS'of'
p6010
aS'heart.'
p6011
ag140
tp6012
a((lp6013
S'Networking'
p6014
aS'computers'
p6015
aS'is'
p6016
aS'quite'
p6017
aS'beyond'
p6018
aS'the'
p6019
aS'capabilities'
p6020
aS'of'
p6021
aS'those,'
p6022
aS'who'
p6023
aS'used'
p6024
aS'to'
p6025
aS'think'
p6026
aS'you'
p6027
aS'had'
p6028
aS'to'
p6029
aS'keep'
p6030
aS'the'
p6031
aS'TV'
p6032
aS'on'
p6033
aS'to'
p6034
aS'record'
p6035
aS'it'
p6036
aS'from'
p6037
aS'your'
p6038
aS'VCR.'
p6039
ag140
tp6040
a((lp6041
S'You'
p6042
aS'have'
p6043
ag29
aS'chance'
p6044
aS'if'
p6045
aS"you're"
p6046
ag29
aS'good'
p6047
aS'cookbook'
p6048
aS'recipe'
p6049
aS'follower.'
p6050
ag140
tp6051
a((lp6052
S'Yes,'
p6053
aS'that'
p6054
aS'makes'
p6055
aS'women'
p6056
aS'capable'
p6057
aS'of'
p6058
aS'installing'
p6059
aS'these,'
p6060
aS"there's"
p6061
aS'no'
p6062
aS'heavy'
p6063
aS'lifting'
p6064
aS'involved,'
p6065
aS'just'
p6066
aS'some'
p6067
aS'focused'
p6068
aS'thought.'
p6069
ag140
tp6070
a((lp6071
S'Unfortunately,'
p6072
aS'Linksys'
p6073
aS'does'
p6074
aS'not'
p6075
aS'write'
p6076
aS'the'
p6077
aS'best'
p6078
aS'documentation.'
p6079
ag310
tp6080
a((lp6081
S'What'
p6082
aS'is'
p6083
aS'really'
p6084
aS'needed'
p6085
aS'with'
p6086
aS'these'
p6087
aS'are'
p6088
aS'plug-ins,'
p6089
aS'(ever'
p6090
aS'present'
p6091
aS'software'
p6092
aS'controls)'
p6093
aS'standard'
p6094
aS'from'
p6095
aS'the'
p6096
aS'operating'
p6097
aS'system,'
p6098
aS'(OS)'
p6099
aS'(Windows,'
p6100
aS'Mac,'
p6101
aS'Linux'
p6102
aS'etc.'
p6103
ag140
tp6104
a((lp6105
g768
aS'that'
p6106
aS'use'
p6107
aS'some'
p6108
aS'type'
p6109
aS'of'
p6110
aS'connect'
p6111
aS'standard'
p6112
aS'where'
p6113
aS'the'
p6114
aS'OS'
p6115
aS'does'
p6116
aS'all'
p6117
aS'the'
p6118
aS'work.'
p6119
ag140
tp6120
a((lp6121
S"It's"
p6122
aS'not'
p6123
aS'here'
p6124
aS'yet!'
p6125
ag140
tp6126
a((lp6127
S'Why'
p6128
aS'own'
p6129
aS'one'
p6130
aS'of'
p6131
aS'these'
p6132
aS'things'
p6133
aS'then,'
p6134
aS'especially'
p6135
aS'if'
p6136
aS'you'
p6137
aS'only'
p6138
aS'have'
p6139
aS'one'
p6140
aS'computer.'
p6141
ag140
tp6142
a((lp6143
S'The'
p6144
aS'reason'
p6145
aS'is'
p6146
aS'simple,'
p6147
aS'one'
p6148
aS'word,'
p6149
aS'and'
p6150
aS'"security".'
p6151
ag140
tp6152
a((lp6153
S'The'
p6154
aS'average'
p6155
aS'Windows'
p6156
aS'based'
p6157
aS'computer,'
p6158
aS'can'
p6159
aS'exist'
p6160
aS'on'
p6161
aS'an'
p6162
aS'unprote!'
p6163
ag140
tp6164
a((lp6165
S'cted'
p6166
aS'Internet'
p6167
aS'connection'
p6168
aS'less'
p6169
aS'than'
p6170
aS'20'
p6171
aS'minutes'
p6172
aS'before'
p6173
aS'someone'
p6174
aS'will'
p6175
aS'find'
p6176
aS'its'
p6177
aS'port'
p6178
aS'address,'
p6179
aS'and'
p6180
aS'access'
p6181
aS'it.'
p6182
ag140
tp6183
a((lp6184
S'They'
p6185
aS'then'
p6186
aS'send'
p6187
aS'in'
p6188
aS'Trojans,'
p6189
aS'Worms,'
p6190
aS'(programs'
p6191
aS'that'
p6192
aS'extract,'
p6193
aS'and'
p6194
aS'run'
p6195
aS'themselves'
p6196
aS'in'
p6197
aS'your'
p6198
aS'computer)'
p6199
aS'plus'
p6200
aS'other'
p6201
aS'nasties,'
p6202
aS'to'
p6203
aS'steal'
p6204
aS'information,'
p6205
aS'or'
p6206
aS'take'
p6207
aS'control.'
p6208
ag140
tp6209
a((lp6210
S'In'
p6211
aS'some'
p6212
aS'cases,'
p6213
aS'you'
p6214
aS"can't"
p6215
aS'even'
p6216
aS'get'
p6217
aS'your'
p6218
aS'PC'
p6219
aS'to'
p6220
aS'the'
p6221
aS'MS'
p6222
aS'patch'
p6223
aS'site'
p6224
aS'to'
p6225
aS'download'
p6226
aS'XP'
p6227
aS'security'
p6228
aS'patch'
p6229
aS'#2'
p6230
aS'before'
p6231
aS'being'
p6232
aS'hit.'
p6233
ag140
tp6234
a((lp6235
S"It's"
p6236
aS'no'
p6237
aS'wonder'
p6238
aS'many'
p6239
aS'new'
p6240
aS'PCs'
p6241
aS'ship'
p6242
aS'with'
p6243
aS'full'
p6244
aS'hard'
p6245
aS'drive'
p6246
aS'images'
p6247
aS'on'
p6248
aS'DVDs,'
p6249
aS'so'
p6250
aS'you'
p6251
aS'can'
p6252
aS'restore'
p6253
aS'your'
p6254
aS'system'
p6255
aS'back'
p6256
aS'to'
p6257
aS'as-shipped'
p6258
aS'condition.'
p6259
ag140
tp6260
a((lp6261
S'Of'
p6262
aS'course'
p6263
aS'your'
p6264
aS'data,'
p6265
aS'and'
p6266
aS'installed'
p6267
aS'programs'
p6268
aS'are'
p6269
aS'gone'
p6270
aS'if'
p6271
aS'you'
p6272
aS'do'
p6273
aS'that.'
p6274
ag140
tp6275
a((lp6276
S"You'll"
p6277
aS'have'
p6278
aS'to'
p6279
aS'reinstall'
p6280
aS'everything'
p6281
aS'you'
p6282
aS'put'
p6283
aS'on,'
p6284
aS'from'
p6285
aS'the'
p6286
aS'day'
p6287
aS'you'
p6288
aS'first'
p6289
aS'turned'
p6290
aS'it'
p6291
aS'on.'
p6292
ag140
tp6293
a((lp6294
S'Unless'
p6295
aS'you'
p6296
aS'backed'
p6297
aS'up'
p6298
aS'the'
p6299
aS'documents,'
p6300
aS'and'
p6301
aS'other'
p6302
aS'things'
p6303
aS'you'
p6304
aS'created,'
p6305
aS'(data)'
p6306
aS'that'
p6307
aS'will'
p6308
aS'be'
p6309
aS'lost'
p6310
aS'too.'
p6311
ag140
tp6312
a((lp6313
S'What'
p6314
aS'does'
p6315
ag29
aS'router,'
p6316
aS'access'
p6317
aS'point,'
p6318
aS'do'
p6319
aS'to'
p6320
aS'help'
p6321
aS'prevent'
p6322
aS'this?'
p6323
ag140
tp6324
a((lp6325
S'For'
p6326
aS'one,'
p6327
aS'it'
p6328
aS'clones'
p6329
aS'the'
p6330
aS'Mac'
p6331
aS'address'
p6332
aS'on'
p6333
aS'many'
p6334
aS'systems.'
p6335
ag140
tp6336
a((lp6337
g1376
aS'Mac'
p6338
aS'address'
p6339
aS'is'
p6340
ag29
aS'unique'
p6341
aS'hardware'
p6342
aS'identifier.'
p6343
ag140
tp6344
a((lp6345
S'Many'
p6346
aS'if'
p6347
aS'not'
p6348
aS'most'
p6349
aS'cable'
p6350
aS'/'
p6351
aS'DSL'
p6352
aS'systems'
p6353
aS'are'
p6354
aS'looking'
p6355
aS'for'
p6356
aS'the'
p6357
aS'Mac'
p6358
aS'address!'
p6359
ag140
tp6360
a((lp6361
S'from'
p6362
aS'the'
p6363
aS'cable'
p6364
aS'modem'
p6365
aS'you'
p6366
aS'are'
p6367
aS'using.'
p6368
ag140
tp6369
a((lp6370
S'Since'
p6371
aS'you'
p6372
aS'are'
p6373
aS'connecting'
p6374
ag29
aS'router'
p6375
aS'in-between'
p6376
aS'the'
p6377
aS'cable'
p6378
aS'modem'
p6379
aS'and'
p6380
aS'the'
p6381
aS'internet,'
p6382
aS'the'
p6383
aS'Mac'
p6384
aS'address'
p6385
aS'must'
p6386
aS'be'
p6387
aS'copied'
p6388
aS'because'
p6389
aS'its'
p6390
aS"what's"
p6391
aS'recognized'
p6392
aS'by'
p6393
aS'the'
p6394
aS'your'
p6395
aS'network'
p6396
aS'service'
p6397
aS'provider'
p6398
aS'to'
p6399
aS'identify'
p6400
aS'you'
p6401
aS'on'
p6402
aS'their'
p6403
aS'network.'
p6404
ag140
tp6405
a((lp6406
S'In'
p6407
aS'addition,'
p6408
aS'your'
p6409
aS'port'
p6410
aS'address'
p6411
aS'is'
p6412
aS'now'
p6413
aS'the'
p6414
aS'router,'
p6415
aS'not'
p6416
aS'your'
p6417
aS'computer.'
p6418
ag140
tp6419
a((lp6420
S'Networks'
p6421
aS'on'
p6422
aS'the'
p6423
aS'outside'
p6424
aS"can't"
p6425
aS'see'
p6426
aS'your'
p6427
aS'computer,'
p6428
aS'and'
p6429
aS'unless'
p6430
aS'you'
p6431
aS'install'
p6432
aS'the'
p6433
aS'security'
p6434
aS'protocols'
p6435
aS'incorrectly,'
p6436
aS'all'
p6437
aS'they'
p6438
aS'see'
p6439
aS'is'
p6440
aS'the'
p6441
aS'router,'
p6442
aS'and'
p6443
aS'what'
p6444
aS"can't"
p6445
aS'be'
p6446
aS'seen'
p6447
aS"can't"
p6448
aS'be'
p6449
aS'accessed.'
p6450
ag140
tp6451
a((lp6452
S'Now'
p6453
aS'to'
p6454
aS'get'
p6455
aS'you,'
p6456
aS'they'
p6457
aS'have'
p6458
aS'to'
p6459
aS'trick'
p6460
aS'you'
p6461
aS'into'
p6462
aS'accessing'
p6463
aS'them'
p6464
aS'by'
p6465
aS'sending'
p6466
aS'E-mails,'
p6467
aS'or'
p6468
aS'otherwise'
p6469
aS'enticing'
p6470
aS'you'
p6471
aS'into'
p6472
aS'downloading'
p6473
aS'their'
p6474
aS'mal-ware.'
p6475
ag140
tp6476
a((lp6477
S'This'
p6478
aS'is'
p6479
aS'what'
p6480
aS'is'
p6481
aS'commonly'
p6482
aS'called'
p6483
ag29
aS'firewall.'
p6484
ag140
tp6485
a((lp6486
S'You'
p6487
aS'now'
p6488
aS'set'
p6489
aS'the'
p6490
aS'software'
p6491
aS'to'
p6492
aS'allow'
p6493
aS'what'
p6494
aS'access'
p6495
aS'you'
p6496
aS'will'
p6497
aS'allow.'
p6498
ag140
tp6499
a((lp6500
S'Here'
p6501
aS'is'
p6502
aS'where'
p6503
aS'many'
p6504
aS'typical'
p6505
aS'problems'
p6506
aS'begin.'
p6507
ag140
tp6508
a((lp6509
S'Windows'
p6510
aS'security'
p6511
aS'and'
p6512
aS'most'
p6513
aS'routers'
p6514
aS'are'
p6515
aS'not'
p6516
aS'compatible'
p6517
aS'on'
p6518
aS'all'
p6519
aS'levels.'
p6520
ag140
tp6521
a((lp6522
S'You'
p6523
aS'have'
p6524
aS'to'
p6525
aS'look'
p6526
aS'to'
p6527
aS'the'
p6528
aS'Net,'
p6529
aS'tech'
p6530
aS'service'
p6531
aS'help'
p6532
aS'lines,'
p6533
aS'and'
p6534
aS'FAQ'
p6535
aS'sites'
p6536
aS'on'
p6537
aS'your'
p6538
aS'router,'
p6539
aS'to'
p6540
aS'find'
p6541
aS'out'
p6542
aS'how'
p6543
aS'to'
p6544
aS'solve'
p6545
aS'most'
p6546
aS'of'
p6547
aS'the'
p6548
aS'typical'
p6549
aS'problems.'
p6550
ag140
tp6551
a((lp6552
S'These'
p6553
aS'generally'
p6554
aS'range'
p6555
aS'from'
p6556
aS'not'
p6557
aS'connecting'
p6558
aS'at'
p6559
aS'all,'
p6560
aS'to'
p6561
aS'hosting'
p6562
ag199
ag140
tp6563
a((lp6564
S'online'
p6565
aS'games,'
p6566
aS'or'
p6567
aS'downloading'
p6568
aS'files'
p6569
aS'from'
p6570
aS'sites'
p6571
aS'with'
p6572
aS'different'
p6573
aS'security'
p6574
aS'levels.'
p6575
ag140
tp6576
a((lp6577
S'With'
p6578
aS'wireless'
p6579
aS'routers,'
p6580
aS'you'
p6581
aS'have'
p6582
aS'another'
p6583
aS'potential'
p6584
aS'hole,'
p6585
aS'"the'
p6586
aS'wireless'
p6587
aS'connection".'
p6588
ag140
tp6589
a((lp6590
S'Someone'
p6591
aS'next'
p6592
aS'door'
p6593
aS'may'
p6594
aS'have'
p6595
ag29
aS'wireless'
p6596
aS'system'
p6597
aS'too,'
p6598
aS'and'
p6599
aS'could'
p6600
aS'access'
p6601
aS'your'
p6602
aS'system'
p6603
aS'if'
p6604
aS'you'
p6605
aS'forget'
p6606
aS'to'
p6607
aS'set'
p6608
aS'these'
p6609
aS'software'
p6610
aS'firewalls.'
p6611
ag140
tp6612
a((lp6613
S'Computer'
p6614
aS'novices'
p6615
aS'should'
p6616
aS'have'
p6617
ag29
aS'computer'
p6618
aS'savvy'
p6619
aS'person'
p6620
aS'install,'
p6621
aS'and'
p6622
aS'set-up'
p6623
aS'their'
p6624
aS'router.'
p6625
ag140
tp6626
a((lp6627
S'You'
p6628
aS'are'
p6629
aS'really'
p6630
aS'the'
p6631
aS'ones'
p6632
aS'that'
p6633
aS'need'
p6634
aS'this'
p6635
aS'the'
p6636
aS'most.'
p6637
ag140
tp6638
a((lp6639
S'Your'
p6640
aS'newness'
p6641
aS'to'
p6642
aS'the'
p6643
aS'world'
p6644
aS'of'
p6645
aS'computing,'
p6646
aS'and'
p6647
aS'Internet'
p6648
aS'surfing'
p6649
aS'makes'
p6650
aS'you'
p6651
ag29
aS'prime'
p6652
aS'target'
p6653
aS'of'
p6654
aS'E-mail'
p6655
aS'spoofers,'
p6656
aS'identity'
p6657
aS'thieves,'
p6658
aS'and'
p6659
aS'others'
p6660
aS'who'
p6661
aS'would'
p6662
aS'attempt'
p6663
aS'to'
p6664
aS'take'
p6665
aS'your'
p6666
aS'private'
p6667
aS'information.'
p6668
ag140
tp6669
a((lp6670
S"Don't"
p6671
aS'try'
p6672
aS'to'
p6673
aS'install'
p6674
aS'this'
p6675
aS'yourself'
p6676
aS'unless'
p6677
aS'you'
p6678
aS'have'
p6679
aS'some'
p6680
aS'technical'
p6681
aS'knowledge.'
p6682
ag140
tp6683
a((lp6684
S'Ok,'
p6685
aS'so'
p6686
aS'what'
p6687
aS'can'
p6688
aS'we'
p6689
aS'say'
p6690
aS'about'
p6691
aS'this'
p6692
aS'particular'
p6693
aS'network'
p6694
aS'product?'
p6695
ag140
tp6696
a((lp6697
S'Well'
p6698
aS'Linksys'
p6699
aS'was'
p6700
aS'one'
p6701
aS'of'
p6702
aS'the'
p6703
aS'original'
p6704
aS'big'
p6705
aS'players'
p6706
aS'in'
p6707
aS'the'
p6708
aS'router'
p6709
aS'industry.'
p6710
ag24
tp6711
a((lp6712
S'Linksys'
p6713
aS'is'
p6714
aS'made'
p6715
aS'by'
p6716
aS'Cisco,'
p6717
aS'the'
p6718
aS'networking'
p6719
aS'giant'
p6720
aS'who'
p6721
aS'introduced'
p6722
aS'the'
p6723
aS'first'
p6724
aS'routers'
p6725
aS'for'
p6726
aS'the'
p6727
aS'Internet,'
p6728
aS'and'
p6729
aS'became'
p6730
ag29
aS'company'
p6731
aS'that'
p6732
aS'rivals'
p6733
aS'Microsoft'
p6734
aS'in'
p6735
aS'size.'
p6736
ag140
tp6737
a((lp6738
S"I'm"
p6739
aS'tr!'
p6740
ag140
tp6741
a((lp6742
S'ying'
p6743
aS'to'
p6744
aS'point'
p6745
aS'out'
p6746
aS'they'
p6747
aS'have'
p6748
aS'experience,'
p6749
aS'and'
p6750
aS'so'
p6751
aS'the'
p6752
aS'reliability'
p6753
aS'of'
p6754
aS'the'
p6755
aS'connection'
p6756
aS'you'
p6757
aS'get'
p6758
aS'is'
p6759
aS'among'
p6760
aS'the'
p6761
aS'best.'
p6762
ag24
tp6763
a((lp6764
S'You'
p6765
aS'typically'
p6766
aS'find'
p6767
aS'less'
p6768
aS'horror'
p6769
aS'stories'
p6770
aS'detailing'
p6771
aS'poor'
p6772
aS'connections'
p6773
aS'with'
p6774
aS'this,'
p6775
aS'and'
p6776
aS'most'
p6777
aS'Linksys'
p6778
aS'models.'
p6779
ag140
tp6780
a((lp6781
S'This'
p6782
aS'model'
p6783
aS'appears'
p6784
aS'to'
p6785
aS'be'
p6786
aS'especially'
p6787
aS'good.'
p6788
ag24
tp6789
a((lp6790
S'Why'
p6791
aS'the'
p6792
aS'four-port'
p6793
aS'wireless'
p6794
aS'model'
p6795
aS'you'
p6796
aS'ask?'
p6797
ag140
tp6798
a((lp6799
S'You'
p6800
aS'may'
p6801
aS'only'
p6802
aS'have'
p6803
aS'one'
p6804
aS'computer.'
p6805
ag140
tp6806
a((lp6807
S'True,'
p6808
aS'you'
p6809
aS"don't"
p6810
aS'need'
p6811
aS'more'
p6812
aS'than'
p6813
aS'an'
p6814
aS'access'
p6815
aS'point,'
p6816
aS'and'
p6817
ag29
aS'wired'
p6818
aS'one'
p6819
aS'at'
p6820
aS'that,'
p6821
aS'to'
p6822
aS'use'
p6823
aS'as'
p6824
ag29
aS'protective'
p6825
aS'firewall.'
p6826
ag140
tp6827
a((lp6828
S'Still,'
p6829
aS'if'
p6830
aS'you'
p6831
aS'think'
p6832
aS'there'
p6833
aS'may'
p6834
aS'be'
p6835
aS'more'
p6836
aS'computers'
p6837
aS'in'
p6838
aS'the'
p6839
aS'future,'
p6840
aS'and'
p6841
aS'there'
p6842
aS'is'
p6843
ag29
aS'need'
p6844
aS'for'
p6845
ag29
aS'multi-port'
p6846
aS'network.'
p6847
ag140
tp6848
a((lp6849
S'If'
p6850
aS'that'
p6851
aS'happens,'
p6852
aS"you'll"
p6853
aS'want'
p6854
aS'to'
p6855
aS'save'
p6856
aS'money'
p6857
aS'by'
p6858
aS'sharing'
p6859
aS'the'
p6860
aS'Internet'
p6861
aS'connection,'
p6862
aS'rather'
p6863
aS'than'
p6864
aS'pay'
p6865
aS'for'
p6866
aS'two'
p6867
aS'services'
p6868
aS'or'
p6869
aS'more,'
p6870
aS'at'
p6871
aS'multiple'
p6872
aS'single-connect'
p6873
aS'prices.'
p6874
ag140
tp6875
a((lp6876
S'Moreover,'
p6877
aS'the'
p6878
aS'price'
p6879
aS'of'
p6880
aS'these'
p6881
aS'is'
p6882
aS'very'
p6883
aS'low'
p6884
aS'compared'
p6885
aS'to'
p6886
aS'most'
p6887
aS'computer'
p6888
aS'add-ons,'
p6889
aS'so'
p6890
aS'getting'
p6891
aS'the'
p6892
aS'added'
p6893
aS'functionality'
p6894
aS'is'
p6895
aS'at'
p6896
aS'little,'
p6897
aS'and'
p6898
aS'sometimes'
p6899
aS'no'
p6900
aS'cost.'
p6901
aS'##What'
p6902
aS'about'
p6903
aS'the'
p6904
aS'wireless'
p6905
aS'capability,'
p6906
aS'you'
p6907
aS'ask.'
p6908
ag140
tp6909
a((lp6910
S'Well,'
p6911
aS'if'
p6912
aS'your'
p6913
aS'network'
p6914
aS'has'
p6915
aS'or'
p6916
aS'will'
p6917
aS'have,'
p6918
aS'computers'
p6919
aS'in'
p6920
aS'other'
p6921
aS'rooms,'
p6922
aS'you'
p6923
aS'may'
p6924
aS'not'
p6925
aS'want'
p6926
aS'to'
p6927
aS'wire'
p6928
aS'your'
p6929
aS'house'
p6930
aS'for'
p6931
aS'Ethernet.'
p6932
ag140
tp6933
a((lp6934
S'This'
p6935
aS'is'
p6936
aS'especially'
p6937
aS'true'
p6938
aS'if'
p6939
aS'you'
p6940
aS"don't"
p6941
aS'need'
p6942
aS'the!'
p6943
ag140
tp6944
a((lp6945
S'speed'
p6946
aS'of'
p6947
ag29
aS'wired'
p6948
aS'connection.'
p6949
ag140
tp6950
a((lp6951
S"Don't"
p6952
aS'worry'
p6953
aS'though,'
p6954
aS'the'
p6955
aS'primary'
p6956
aS'computer'
p6957
aS'located'
p6958
aS'by'
p6959
aS'the'
p6960
aS'Linksys,'
p6961
aS'can'
p6962
aS'be'
p6963
aS'connected'
p6964
aS'by'
p6965
aS'wire,'
p6966
aS'this'
p6967
aS'makes'
p6968
aS'for'
p6969
ag29
aS'solid,'
p6970
aS'and'
p6971
aS'fast'
p6972
aS'connection'
p6973
aS'to'
p6974
aS'the'
p6975
aS'Net.'
p6976
ag140
tp6977
a((lp6978
S'My'
p6979
aS'last'
p6980
aS'topic'
p6981
aS'concerns'
p6982
aS'the'
p6983
aS'security'
p6984
aS'setup'
p6985
aS'you'
p6986
aS'do,'
p6987
aS'or'
p6988
aS'have'
p6989
aS'done'
p6990
aS'with'
p6991
aS'your'
p6992
aS'router.'
p6993
ag140
tp6994
a((lp6995
S'Remember,'
p6996
aS'you'
p6997
aS'are'
p6998
aS'working'
p6999
aS'with'
p7000
aS'two'
p7001
aS'sets'
p7002
aS'of'
p7003
aS'security'
p7004
aS'hardware'
p7005
aS'boxes,'
p7006
aS'your'
p7007
aS'computer,'
p7008
aS'and'
p7009
aS'now'
p7010
aS'your'
p7011
aS'router.'
p7012
ag140
tp7013
a((lp7014
S'As'
p7015
aS'said'
p7016
aS'before,'
p7017
aS'you'
p7018
aS'may'
p7019
aS'get'
p7020
aS'some'
p7021
aS'conflicts.'
p7022
ag140
tp7023
a((lp7024
S'The'
p7025
aS'other'
p7026
aS'issue'
p7027
aS'is'
p7028
aS'how'
p7029
aS'secure'
p7030
aS'do'
p7031
aS'you'
p7032
aS'want'
p7033
aS'it.'
p7034
ag140
tp7035
a((lp7036
S'You'
p7037
aS'can'
p7038
aS'prevent'
p7039
aS'any,'
p7040
aS'and'
p7041
aS'all'
p7042
aS'file'
p7043
aS'transfers'
p7044
aS'to'
p7045
aS'your'
p7046
aS'PC.'
p7047
ag140
tp7048
a((lp7049
S'Even'
p7050
aS'things'
p7051
aS'like'
p7052
aS'the'
p7053
aS'downloaded'
p7054
aS'files,'
p7055
aS'and'
p7056
aS'E-Mail'
p7057
aS'attachments'
p7058
aS'you'
p7059
aS'do'
p7060
aS'want'
p7061
aS'to'
p7062
aS'receive.'
p7063
ag140
tp7064
a((lp7065
S'Another'
p7066
aS'thing'
p7067
aS'you'
p7068
aS'may'
p7069
aS'do'
p7070
aS'are'
p7071
aS'the'
p7072
aS'many'
p7073
aS'file'
p7074
aS'transfers'
p7075
aS'needed'
p7076
aS'to'
p7077
aS'playing'
p7078
aS'network'
p7079
aS'games.'
p7080
aS'Some'
p7081
aS'settings'
p7082
aS'allow'
p7083
aS'you'
p7084
aS'to'
p7085
aS'play,'
p7086
aS'but'
p7087
aS'not'
p7088
aS'host'
p7089
ag29
aS'game,'
p7090
aS'others'
p7091
aS"won't"
p7092
aS'even'
p7093
aS'let'
p7094
aS'##you'
p7095
aS'connect'
p7096
aS'to'
p7097
aS'play.'
p7098
ag140
tp7099
a((lp7100
S'It'
p7101
aS'may'
p7102
aS'take'
p7103
aS'several'
p7104
aS'attempts,'
p7105
aS'and'
p7106
aS'reading'
p7107
ag29
aS'lot'
p7108
aS'of'
p7109
aS'FAQs'
p7110
aS'or'
p7111
aS'network'
p7112
aS'help'
p7113
aS'sites'
p7114
aS'to'
p7115
aS'fix'
p7116
aS'some'
p7117
aS'of'
p7118
aS'these'
p7119
aS'issues.'
p7120
ag140
tp7121
a((lp7122
S'However'
p7123
aS'many'
p7124
aS'you'
p7125
aS'open'
p7126
aS'up,'
p7127
aS'remember'
p7128
aS'you'
p7129
aS'are'
p7130
aS'putting'
p7131
aS'holes'
p7132
aS'in'
p7133
aS'your'
p7134
aS'firewall,'
p7135
aS'making'
p7136
aS'your'
p7137
aS'computer!'
p7138
ag140
tp7139
a((lp7140
S'less'
p7141
aS'secure.'
p7142
ag140
tp7143
a((lp7144
S'You'
p7145
aS'need'
p7146
aS'to'
p7147
aS'be'
p7148
aS'careful'
p7149
aS'not'
p7150
aS'to'
p7151
aS'just'
p7152
aS'take'
p7153
aS'down'
p7154
aS'so'
p7155
aS'much'
p7156
aS'security'
p7157
aS'that'
p7158
aS'you'
p7159
aS'allow'
p7160
aS'the'
p7161
aS'bad'
p7162
aS'guys'
p7163
aS'back'
p7164
aS'in'
p7165
aS'your'
p7166
aS'system.'
p7167
ag140
tp7168
a((lp7169
S'Let'
p7170
aS'me'
p7171
aS'give'
p7172
aS'you'
p7173
ag29
aS'word'
p7174
aS'about'
p7175
aS'AOL,'
p7176
aS'and'
p7177
aS'other'
p7178
aS'service'
p7179
aS'providers.'
p7180
ag140
tp7181
a((lp7182
S'They'
p7183
aS'provide'
p7184
aS'you'
p7185
aS'with'
p7186
aS'their'
p7187
aS'network'
p7188
aS'security'
p7189
aS'as'
p7190
ag29
aS'part'
p7191
aS'of'
p7192
aS'the'
p7193
aS'service,'
p7194
aS'but'
p7195
aS'for'
p7196
ag29
aS'price.'
p7197
ag140
tp7198
a((lp7199
S'It'
p7200
aS'is'
p7201
ag29
aS'good'
p7202
aS'place'
p7203
aS'for'
p7204
aS'new'
p7205
aS'users,'
p7206
aS'who'
p7207
aS'want'
p7208
aS'to'
p7209
aS'feel'
p7210
aS'safe,'
p7211
aS'and'
p7212
aS'they'
p7213
aS'do'
p7214
aS'provide'
p7215
ag29
aS'good'
p7216
aS'measure'
p7217
aS'of'
p7218
aS'safety,'
p7219
aS'but'
p7220
aS'they'
p7221
aS'are'
p7222
aS'not'
p7223
aS'the'
p7224
aS'total'
p7225
aS'answer.'
p7226
ag140
tp7227
a((lp7228
S'Often'
p7229
aS'they'
p7230
aS'restrict'
p7231
aS'you'
p7232
aS'from'
p7233
aS'sites'
p7234
aS'you'
p7235
aS'want'
p7236
aS'to'
p7237
aS'visit,'
p7238
aS'and'
p7239
aS'you'
p7240
aS'can'
p7241
aS'still'
p7242
aS'be'
p7243
aS'reached'
p7244
aS'by'
p7245
aS'clever'
p7246
aS'hackers'
p7247
aS'who'
p7248
aS'con'
p7249
aS'you'
p7250
aS'into'
p7251
aS'opening'
p7252
aS'or'
p7253
aS'using'
p7254
aS'their'
p7255
aS'files'
p7256
aS'or'
p7257
aS'programs.'
p7258
aS"##Let's"
p7259
aS'put'
p7260
aS'it'
p7261
aS'this'
p7262
aS'way,'
p7263
aS"it's"
p7264
ag29
aS'big'
p7265
aS'badge'
p7266
aS'of'
p7267
aS'honor'
p7268
aS'in'
p7269
aS'the'
p7270
aS'hacking'
p7271
aS'world'
p7272
aS'if'
p7273
aS'they'
p7274
aS'can'
p7275
aS'beat'
p7276
aS'AOL,'
p7277
aS'Microsoft,'
p7278
aS'Earthlink,'
p7279
aS'or'
p7280
aS'another'
p7281
aS'popular'
p7282
aS'sites'
p7283
aS'that'
p7284
aS'provides'
p7285
aS'Internet'
p7286
aS'security.'
p7287
ag140
tp7288
a((lp7289
S'The'
p7290
aS'purchase'
p7291
aS'of'
p7292
ag29
aS'router'
p7293
aS'is'
p7294
aS'one'
p7295
aS'of'
p7296
aS'the'
p7297
aS'best'
p7298
aS'things'
p7299
aS'you'
p7300
aS'can'
p7301
aS'do'
p7302
aS'to'
p7303
aS'protect'
p7304
aS'yourself'
p7305
aS'these'
p7306
aS'days.'
p7307
ag140
tp7308
a((lp7309
S"I'm"
p7310
aS'using'
p7311
aS"sveasoft's"
p7312
aS'firmware,'
p7313
aS'but'
p7314
aS'search'
p7315
aS'the'
p7316
aS'web'
p7317
aS'for'
p7318
aS'more'
p7319
aS'information'
p7320
aS'about'
p7321
aS'it--you'
p7322
aS'may'
p7323
aS'find'
p7324
aS'you'
p7325
aS"don't"
p7326
aS'approve'
p7327
aS'of'
p7328
aS'the'
p7329
aS"author's"
p7330
aS'tactics,'
p7331
aS'which'
p7332
ag187
aS'only'
p7333
aS'learned'
p7334
aS'about'
p7335
aS'after'
p7336
aS"I'd"
p7337
aS'paid'
p7338
aS'my'
p7339
aS'$20'
p7340
aS'subscription.'
p7341
ag140
tp7342
a((lp7343
S'OK,'
p7344
ag187
aS'never'
p7345
aS'read'
p7346
aS'the'
p7347
aS'manual.'
p7348
ag140
tp7349
a((lp7350
S"I'm"
p7351
ag29
aS'male'
p7352
aS'and'
p7353
aS"that's"
p7354
aS'what'
p7355
aS'we'
p7356
aS'do'
p7357
aS'(or'
p7358
aS'not'
p7359
aS'do).'
p7360
ag140
tp7361
a((lp7362
g187
aS'tried'
p7363
aS'to'
p7364
aS'do'
p7365
aS'this'
p7366
aS'by'
p7367
aS'instinct'
p7368
aS'and'
p7369
aS"it's"
p7370
aS'not'
p7371
aS'intuitive'
p7372
aS'unless'
p7373
aS'you'
p7374
aS'are'
p7375
ag29
aS'network'
p7376
aS'geek.'
p7377
ag310
tp7378
a((lp7379
g187
aS'tried'
p7380
aS'to'
p7381
aS'set'
p7382
aS'my'
p7383
aS'IP'
p7384
aS'address'
p7385
aS'and'
p7386
aS'subnet'
p7387
aS'mask'
p7388
aS'and'
p7389
aS'who'
p7390
aS'knows'
p7391
aS'what'
p7392
aS'else.'
p7393
ag140
tp7394
a((lp7395
S'When'
p7396
ag187
aS'gave'
p7397
aS'up'
p7398
aS'and'
p7399
aS'called'
p7400
aS'their'
p7401
aS'help'
p7402
aS'desk,'
p7403
aS'they'
p7404
aS'sent'
p7405
aS'me'
p7406
aS'to'
p7407
ag29
aS'web'
p7408
aS'site,'
p7409
ag187
aS'ran'
p7410
ag29
aS'program'
p7411
aS'and'
p7412
aS'viola'
p7413
ag795
ag187
aS'was'
p7414
aS'on'
p7415
aS'the'
p7416
aS'net'
p7417
aS'wirelessly.'
p7418
ag140
tp7419
a((lp7420
S'The'
p7421
aS'darn'
p7422
aS'thing'
p7423
aS'works'
p7424
aS'as'
p7425
aS'promised'
p7426
aS'and'
p7427
aS"it's"
p7428
aS'amazingly'
p7429
aS'cheap'
p7430
aS'too.'
p7431
ag24
tp7432
a((lp7433
S'Speed'
p7434
aS'is'
p7435
aS'identical'
p7436
aS'to'
p7437
aS'my'
p7438
aS'hard'
p7439
aS'wire'
p7440
aS'desktop'
p7441
aS'direct'
p7442
aS'cable'
p7443
aS'modem'
p7444
aS'connected'
p7445
aS'PC.'
p7446
ag140
tp7447
a((lp7448
g187
aS'bought'
p7449
aS'one'
p7450
aS'for'
p7451
aS'my'
p7452
aS'niece'
p7453
aS'and'
p7454
aS'will'
p7455
aS'be'
p7456
aS'installing'
p7457
aS'it'
p7458
aS'like'
p7459
ag29
aS'pro'
p7460
aS'(shhhh,'
p7461
aS"don't"
p7462
aS'tell'
p7463
aS'her'
p7464
ag187
aS'had'
p7465
aS'help).'
p7466
ag140
tp7467
a((lp7468
S'If'
p7469
aS'you'
p7470
aS'want'
p7471
aS'to'
p7472
aS'work'
p7473
aS'wirelessly,'
p7474
aS'this'
p7475
aS'router'
p7476
aS'does'
p7477
aS'just'
p7478
aS'what'
p7479
aS'you'
p7480
aS'want'
p7481
aS'it'
p7482
aS'to'
p7483
aS'do'
p7484
aS'and'
p7485
aS'my'
p7486
aS'geek'
p7487
aS'friends'
p7488
aS'say'
p7489
aS'that'
p7490
aS'the'
p7491
aS'security'
p7492
aS'is'
p7493
aS'as'
p7494
aS'good'
p7495
aS'as'
p7496
aS'it'
p7497
aS'gets'
p7498
aS'right'
p7499
aS'now.'
p7500
ag24
tp7501
a((lp7502
g187
aS'purchased'
p7503
aS'the'
p7504
aS'WRT54G'
p7505
aS'about'
p7506
ag29
aS'week'
p7507
aS'ago.'
p7508
ag140
tp7509
a((lp7510
S'It'
p7511
aS'is'
p7512
aS'attached'
p7513
aS'to'
p7514
aS'my'
p7515
aS'desktop'
p7516
ag29
aS'P4'
p7517
aS'at'
p7518
aS'2.6'
p7519
aS'Ghz'
p7520
aS'running'
p7521
aS'Win'
p7522
aS'XP'
p7523
aS'Home.'
p7524
ag140
tp7525
a((lp7526
S'To'
p7527
aS'be'
p7528
aS'honest'
p7529
ag187
aS'got'
p7530
aS'it'
p7531
aS'just'
p7532
aS'to'
p7533
aS'link'
p7534
aS'up'
p7535
aS'my'
p7536
aS'Xbox'
p7537
aS'(attached'
p7538
aS'to'
p7539
ag29
aS'WET11'
p7540
aS'wireless'
p7541
aS'ethernet'
p7542
aS'bridge)to'
p7543
aS'my'
p7544
aS'cable'
p7545
aS'modem'
p7546
aS'(ISP'
p7547
aS'Comcast),'
p7548
aS'so'
p7549
ag187
aS'could'
p7550
aS'get'
p7551
aS'rid'
p7552
aS'of'
p7553
aS'the'
p7554
aS'70'
p7555
aS'feet'
p7556
aS'of'
p7557
aS'ethernet'
p7558
aS'cable'
p7559
aS'that'
p7560
aS'ran'
p7561
aS'down'
p7562
aS'the'
p7563
aS'hall.'
p7564
ag140
tp7565
a((lp7566
S'Even'
p7567
aS'though'
p7568
aS'the'
p7569
aS'WET11'
p7570
aS'is'
p7571
ag29
ag5310
aS'standard'
p7572
ag187
aS'knew'
p7573
aS'that'
p7574
aS'this'
p7575
aS'router'
p7576
aS'would'
p7577
aS'be'
p7578
aS'compatiable'
p7579
aS'and'
p7580
aS'in'
p7581
aS'the'
p7582
aS'future'
p7583
ag187
aS'plan'
p7584
aS'to'
p7585
aS'link'
p7586
ag112
aS'other'
p7587
aS"PC's"
p7588
aS'too'
p7589
aS'it'
p7590
aS'.'
p7591
ag140
tp7592
a((lp7593
S'The'
p7594
aS'setup'
p7595
aS'was'
p7596
ag29
aS'breeze,'
p7597
ag187
aS'had'
p7598
aS'some'
p7599
aS'reservations'
p7600
aS'about'
p7601
ag29
aS'wireless'
p7602
aS'network'
p7603
aS'(see'
p7604
aS'my'
p7605
aS'review'
p7606
aS'for'
p7607
aS'linksys'
p7608
aS'wet11)but'
p7609
aS'this'
p7610
aS'item'
p7611
aS'was'
p7612
aS'on'
p7613
aS'sale'
p7614
aS'as'
p7615
aS'well'
p7616
aS'as'
p7617
aS'the'
p7618
aS'WET11'
p7619
aS'so'
p7620
ag187
aS'just'
p7621
aS'had'
p7622
aS'to'
p7623
aS'splruge.'
p7624
ag24
tp7625
a((lp7626
S'To'
p7627
aS'set'
p7628
aS'up'
p7629
aS'the'
p7630
aS'xbox,'
p7631
aS'wap,'
p7632
aS'and'
p7633
aS'ethernest'
p7634
aS'bridge,'
p7635
aS'with'
p7636
aS'the'
p7637
aS'encryption'
p7638
aS'on'
p7639
aS'was'
p7640
aS'less'
p7641
aS'then'
p7642
aS'30'
p7643
aS'mins.'
p7644
ag24
tp7645
a((lp7646
S'Not'
p7647
aS'once'
p7648
aS'did'
p7649
ag187
aS'have'
p7650
aS'to'
p7651
aS'call'
p7652
aS'tech'
p7653
aS'support'
p7654
aS'or'
p7655
aS'the'
p7656
aS'IT'
p7657
aS'guy'
p7658
aS'at'
p7659
aS'my'
p7660
aS'workplace.'
p7661
ag140
tp7662
a((lp7663
S'Nor'
p7664
aS'did'
p7665
ag187
aS'need'
p7666
aS'any'
p7667
aS'settings'
p7668
aS'from'
p7669
aS'my'
p7670
aS'ISP.'
p7671
ag140
tp7672
a((lp7673
S'The'
p7674
aS'setup'
p7675
aS'software'
p7676
aS'did'
p7677
aS'everything.'
p7678
ag24
tp7679
a((lp7680
S'This'
p7681
aS'is'
p7682
aS'my'
p7683
aS'first'
p7684
aS'foray'
p7685
aS'in!'
p7686
ag140
tp7687
a((lp7688
S'to'
p7689
aS'the'
p7690
aS'wrld'
p7691
aS'of'
p7692
aS'wireless'
p7693
aS'and'
p7694
aS'it'
p7695
aS"couldn't"
p7696
aS'have'
p7697
aS'gone'
p7698
aS'better.'
p7699
ag140
tp7700
a((lp7701
S'My'
p7702
aS'Xbox'
p7703
aS'connection'
p7704
aS'seems'
p7705
aS'as'
p7706
aS'good'
p7707
aS'as'
p7708
aS'with'
p7709
ag29
aS'cable.'
p7710
ag140
tp7711
a((lp7712
S'My'
p7713
aS'Xbox'
p7714
aS'is'
p7715
aS'about'
p7716
aS'70ft'
p7717
aS'and'
p7718
ag167
aS'walls'
p7719
aS'away'
p7720
aS'from'
p7721
aS'the'
p7722
aS'WRT54G.'
p7723
ag140
tp7724
a((lp7725
S'In'
p7726
ag29
aS'week'
p7727
aS'of'
p7728
aS'use'
p7729
aS"i've"
p7730
aS'never'
p7731
aS'had'
p7732
aS'to'
p7733
aS'reboot'
p7734
aS'the'
p7735
aS'router.'
p7736
ag24
tp7737
a((lp7738
S'There'
p7739
aS'is'
p7740
aS'also'
p7741
ag29
aS'Panasonic'
p7742
aS'cordless'
p7743
aS'phone'
p7744
aS'(2.4'
p7745
aS'Ghz)'
p7746
aS'between'
p7747
aS'the'
p7748
aS'wap'
p7749
aS'and'
p7750
aS'the'
p7751
aS'ethernet'
p7752
aS'bridge'
p7753
aS'but'
p7754
aS'it'
p7755
aS'never'
p7756
aS'causes'
p7757
ag29
aS'problem.'
p7758
ag140
tp7759
a((lp7760
S'Great'
p7761
aS'items'
p7762
ag199
ag140
tp7763
a((lp7764
g1376
aS'decent'
p7765
aS'peice'
p7766
aS'of'
p7767
aS'hardware'
p7768
aS'with'
p7769
aS'great'
p7770
aS'speed'
p7771
aS'(I'
p7772
aS'get'
p7773
aS'the'
p7774
aS'same'
p7775
aS'speeds'
p7776
aS'as'
p7777
aS'with'
p7778
aS'my'
p7779
aS'comp'
p7780
aS'connected'
p7781
aS'directly'
p7782
aS'to'
p7783
aS'the'
p7784
aS'modem)'
p7785
aS'and'
p7786
aS'good'
p7787
aS'signal'
p7788
aS'quality.'
p7789
ag24
tp7790
a((lp7791
g187
aS'guess'
p7792
aS'the'
p7793
aS'two'
p7794
aS'antennae'
p7795
aS'help'
p7796
aS'with'
p7797
aS'that'
p7798
aS'besides'
p7799
aS'making'
p7800
aS'it'
p7801
aS'look'
p7802
aS'cooler.'
p7803
ag24
tp7804
a((lp7805
g187
aS'am'
p7806
aS'getting'
p7807
aS'better'
p7808
aS'speeds'
p7809
aS'on'
p7810
aS'all'
p7811
aS'my'
p7812
aS'web'
p7813
aS'programs.'
p7814
ag24
tp7815
a((lp7816
S'There'
p7817
aS'seem'
p7818
aS'to'
p7819
aS'be'
p7820
aS'fewer'
p7821
aS'collisons'
p7822
aS'and'
p7823
aS'dropped'
p7824
aS'packets'
p7825
aS'as'
p7826
ag187
aS'read'
p7827
aS'from'
p7828
aS'the'
p7829
aS'router'
p7830
aS'logs'
p7831
aS'than'
p7832
aS'with'
p7833
aS'my'
p7834
aS'old'
p7835
aS'Dlink'
p7836
aS'router.'
p7837
ag24
tp7838
a((lp7839
g187
aS'had'
p7840
ag29
aS'lot'
p7841
aS'of'
p7842
aS'problems'
p7843
aS'setting'
p7844
aS'it'
p7845
aS'up,'
p7846
aS'since'
p7847
aS'the'
p7848
aS'software'
p7849
aS'given'
p7850
aS'along'
p7851
aS'with'
p7852
aS'it'
p7853
aS'is'
p7854
aS'buggy.'
p7855
ag310
tp7856
a((lp7857
S'The'
p7858
aS'firmware'
p7859
aS'has'
p7860
aS'bugs'
p7861
aS'too,'
p7862
aS'so'
p7863
aS'download'
p7864
aS'and'
p7865
aS'install'
p7866
aS'the'
p7867
aS'latest'
p7868
aS'firmware'
p7869
aS'from'
p7870
aS'Linksys.'
p7871
ag310
tp7872
a((lp7873
S'VERY'
p7874
aS'IMP.'
p7875
ag140
tp7876
a((lp7877
S'After'
p7878
aS'installing'
p7879
aS'the'
p7880
aS'firmware'
p7881
aS'hold'
p7882
aS'the'
p7883
aS'reset'
p7884
aS'button'
p7885
aS'at'
p7886
aS'the'
p7887
aS'back'
p7888
aS'for'
p7889
aS'30'
p7890
aS'secs.'
p7891
ag140
tp7892
a((lp7893
S'Also'
p7894
aS'use'
p7895
aS'Netstat'
p7896
aS'on'
p7897
aS'the'
p7898
aS'Linksys'
p7899
aS'website'
p7900
aS'which'
p7901
aS'helps'
p7902
aS'in'
p7903
aS'setting'
p7904
aS'it'
p7905
aS'up.'
p7906
ag140
tp7907
a((lp7908
S'The'
p7909
aS'instant'
p7910
aS'setup'
p7911
aS'button'
p7912
aS'in'
p7913
aS'the'
p7914
aS'front'
p7915
aS'of'
p7916
aS'the'
p7917
aS'router'
p7918
aS'messes'
p7919
aS'up'
p7920
aS'the'
p7921
aS'network'
p7922
aS'it'
p7923
aS'is'
p7924
aS'better'
p7925
aS'to'
p7926
aS'configure'
p7927
aS'the'
p7928
aS'router'
p7929
aS'manually.'
p7930
ag310
tp7931
a((lp7932
S'This'
p7933
aS'is'
p7934
aS'NOT'
p7935
ag29
aS'router'
p7936
ag187
aS'would'
p7937
aS'suggest'
p7938
aS'for'
p7939
ag29
aS'novice'
p7940
aS'user,'
p7941
aS'my'
p7942
aS'old'
p7943
aS'Dlink'
p7944
aS'DI52!'
p7945
ag140
tp7946
a((lp7947
g989
aS'was'
p7948
aS'much'
p7949
aS'more'
p7950
aS'easier'
p7951
aS'to'
p7952
aS'setup'
p7953
aS'but'
p7954
aS'had'
p7955
aS'slower'
p7956
aS'speeds'
p7957
aS'and'
p7958
aS'not'
p7959
aS'as'
p7960
aS'configurable'
p7961
aS'as'
p7962
aS'this.'
p7963
ag140
tp7964
a((lp7965
S'It'
p7966
aS'works'
p7967
aS'well'
p7968
aS'with'
p7969
aS'my'
p7970
aS'VOIP'
p7971
aS'adapter,'
p7972
aS'which'
p7973
aS'is'
p7974
aS'also'
p7975
ag29
aS'Linksys.'
p7976
ag24
tp7977
a((lp7978
S'At'
p7979
aS'first'
p7980
ag187
aS'was'
p7981
aS'going'
p7982
aS'to'
p7983
aS'give'
p7984
aS'it'
p7985
ag29
aS'really'
p7986
aS'bad'
p7987
aS'review.'
p7988
ag140
tp7989
a((lp7990
S'The'
p7991
aS'internet'
p7992
aS'connection'
p7993
aS'would'
p7994
aS'go'
p7995
aS'down'
p7996
aS'every'
p7997
ag1127
aS'mins'
p7998
aS'when'
p7999
ag187
aS'used'
p8000
aS'it'
p8001
aS'with'
p8002
ag29
aS'P2P'
p8003
aS'program'
p8004
aS'called'
p8005
aS'Bitspirit.'
p8006
ag310
tp8007
a((lp8008
S'The'
p8009
aS'UPnP'
p8010
aS'and'
p8011
aS'NAT'
p8012
aS'traversal'
p8013
aS'features'
p8014
aS'have'
p8015
aS'some'
p8016
aS'kinks'
p8017
aS'that'
p8018
aS'will'
p8019
aS'be'
p8020
aS'hopefully'
p8021
aS'fixed'
p8022
aS'in'
p8023
aS'the'
p8024
aS'later'
p8025
aS'versions'
p8026
aS'of'
p8027
aS'the'
p8028
aS'firmware.'
p8029
ag140
tp8030
a((lp8031
S'But'
p8032
aS'this'
p8033
aS'seems'
p8034
aS'to'
p8035
aS'be'
p8036
aS'isolated'
p8037
aS'only'
p8038
aS'to'
p8039
aS'the'
p8040
aS'latest'
p8041
aS'version'
p8042
aS'of'
p8043
aS'this'
p8044
aS'particular'
p8045
aS'program.'
p8046
ag140
tp8047
a((lp8048
S'Pros.1.Speed'
p8049
aS'2.'
p8050
aS'Signal'
p8051
aS'Strength'
p8052
aS'3.Advanced'
p8053
aS'Configuration'
p8054
aS'Options'
p8055
ag24
tp8056
a((lp8057
S'So-So'
p8058
aS'1.'
p8059
aS'Customer'
p8060
aS'Service'
p8061
ag795
aS'6'
p8062
aS'calls'
p8063
aS'Half'
p8064
aS'were'
p8065
aS'efficient'
p8066
aS'other'
p8067
aS'half'
p8068
aS'were'
p8069
aS'equally'
p8070
aS'incompetent.'
p8071
ag310
tp8072
a((lp8073
S'##Cons.'
p8074
aS'1.'
p8075
aS'Configuration'
p8076
aS'is'
p8077
aS'not'
p8078
aS'easy'
p8079
aS'as'
p8080
aS'it'
p8081
aS'made'
p8082
aS'out'
p8083
aS'to'
p8084
aS'be'
p8085
aS'2.Lousy'
p8086
aS'Initial'
p8087
aS'Software'
p8088
aS'3.'
p8089
aS'Does'
p8090
aS'not'
p8091
aS'work'
p8092
aS'with'
p8093
aS'BitSpirit'
p8094
aS'with'
p8095
aS'UPnP,'
p8096
aS'Besides'
p8097
aS'that'
p8098
aS'its'
p8099
aS'an'
p8100
aS'excellent'
p8101
aS'choice'
p8102
aS','
p8103
aS'If'
p8104
aS'you'
p8105
aS'know'
p8106
aS'your'
p8107
aS'way'
p8108
aS'around'
p8109
aS'network'
p8110
aS'configuration'
p8111
aS'go'
p8112
aS'for'
p8113
aS'it.'
p8114
ag310
tp8115
a((lp8116
g187
aS'have'
p8117
aS'two'
p8118
aS'linksys'
p8119
aS'routers,'
p8120
aS'one'
p8121
aS'wireless'
p8122
aS'g,'
p8123
aS'and'
p8124
aS'the'
p8125
aS'other'
p8126
aS'cabled.'
p8127
ag140
tp8128
a((lp8129
S'Both'
p8130
aS'of'
p8131
aS'them'
p8132
aS'keep'
p8133
aS'disconnecting'
p8134
aS'on'
p8135
aS'me'
p8136
aS'and'
p8137
aS'interruptions'
p8138
aS'are'
p8139
ag167
aS'or'
p8140
ag989
aS'times'
p8141
aS'per'
p8142
aS'day'
p8143
aS'at'
p8144
aS'best.'
p8145
ag310
tp8146
a((lp8147
S'When'
p8148
aS'that'
p8149
aS'happens'
p8150
ag13
aS'have'
p8151
aS'to'
p8152
aS'restart'
p8153
aS'my'
p8154
aS'pc'
p8155
aS'or'
p8156
aS'restart'
p8157
aS'the'
p8158
aS'linksys'
p8159
aS'router.'
p8160
ag140
tp8161
a((lp8162
S'Both'
p8163
aS'routes'
p8164
aS'take'
p8165
aS'me'
p8166
ag29
aS'few'
p8167
aS'minutes'
p8168
aS'of'
p8169
aS'precious'
p8170
aS'time'
p8171
aS'when'
p8172
ag13
aS'would'
p8173
aS'be'
p8174
aS'online'
p8175
aS'doing'
p8176
aS'something'
p8177
aS'important.'
p8178
ag140
tp8179
a((lp8180
S'Stay'
p8181
aS'away'
p8182
aS'from'
p8183
aS'this'
p8184
aS'junk.'
p8185
ag310
tp8186
a((lp8187
S'Do'
p8188
aS'your'
p8189
aS'research'
p8190
aS'and'
p8191
aS'buy'
p8192
aS'something'
p8193
aS'like'
p8194
aS'netgear'
p8195
aS'or'
p8196
aS'dlink.'
p8197
ag140
tp8198
a((lp8199
S'Purchased'
p8200
aS'this'
p8201
aS'router'
p8202
ag29
aS'few'
p8203
aS'months'
p8204
aS'back,'
p8205
aS'NO'
p8206
aS'PROBLEMS'
p8207
aS'whatsoever.'
p8208
ag24
tp8209
a((lp8210
S'In'
p8211
aS'fact,'
p8212
aS'it'
p8213
aS'supports'
p8214
aS'the'
p8215
aS'new'
p8216
aS'WPA'
p8217
aS'encryption'
p8218
aS'standard,'
p8219
aS'which'
p8220
aS'is'
p8221
aS'WAY'
p8222
aS'better'
p8223
aS'than'
p8224
aS'WEP.'
p8225
ag24
tp8226
a((lp8227
S'Works'
p8228
aS'perfectly'
p8229
aS'with'
p8230
aS'my'
p8231
aS'netgear'
p8232
aS'wireless'
p8233
aS'PCMCIA.'
p8234
ag24
tp8235
a((lp8236
S'Feature'
p8237
aS'wise,'
p8238
aS'its'
p8239
ag29
aS'lot'
p8240
aS'better'
p8241
aS'than'
p8242
aS'the'
p8243
aS'dlink'
p8244
aS'and'
p8245
aS'netgear'
p8246
aS'routers'
p8247
aS'out'
p8248
aS'there.'
p8249
ag24
tp8250
a((lp8251
S"I'm"
p8252
aS'going'
p8253
aS'to'
p8254
aS'be'
p8255
aS'moving'
p8256
aS'soon.'
p8257
ag140
tp8258
a((lp8259
S'One'
p8260
aS'device,'
p8261
aS'Tivo'
p8262
aS'Series'
p8263
ag2407
aS'DVR,'
p8264
aS'is'
p8265
aS'far'
p8266
aS'enough'
p8267
aS'away'
p8268
aS'from'
p8269
aS'my'
p8270
aS'network'
p8271
aS'router'
p8272
aS'to'
p8273
aS'need'
p8274
aS'either'
p8275
ag29
aS'really'
p8276
aS'long'
p8277
aS'Ethernet'
p8278
aS'cable,'
p8279
aS'or'
p8280
ag29
aS'wireless'
p8281
aS'connection.'
p8282
ag140
tp8283
a((lp8284
S'Got'
p8285
aS'the'
p8286
aS'Linksys'
p8287
aS'after'
p8288
aS'reading'
p8289
aS'some'
p8290
aS'reviews.'
p8291
ag140
tp8292
a((lp8293
S'Was'
p8294
ag29
aS'bit'
p8295
aS'wary'
p8296
aS'because'
p8297
aS'the'
p8298
aS'software'
p8299
aS'is'
p8300
aS'Windows'
p8301
aS'only'
p8302
aS'and'
p8303
ag187
aS'have'
p8304
aS'an'
p8305
aS'iMac.'
p8306
ag310
tp8307
a((lp8308
S'But'
p8309
aS'everything'
p8310
aS'worked'
p8311
aS'out'
p8312
aS'for'
p8313
aS'the'
p8314
aS'best.'
p8315
ag140
tp8316
a((lp8317
S'After'
p8318
aS'pulling'
p8319
aS'the'
p8320
aS'Router'
p8321
aS'out'
p8322
aS'and'
p8323
aS'connecting'
p8324
aS'it,'
p8325
ag187
aS'hooked'
p8326
ag29
aS'Linksys'
p8327
aS'WET11'
p8328
aS'Bridge'
p8329
aS'onto'
p8330
aS'the'
p8331
aS'Tivo.'
p8332
ag140
tp8333
a((lp8334
S'Reset'
p8335
aS'the'
p8336
aS'network,'
p8337
aS'tried'
p8338
aS'the'
p8339
aS'connection,'
p8340
aS'and'
p8341
aS"it's"
p8342
aS'working'
p8343
aS'like'
p8344
ag29
aS'charm.'
p8345
ag24
tp8346
a((lp8347
S'The'
p8348
aS'downside'
p8349
aS'being'
p8350
aS'that'
p8351
aS'the'
p8352
aS'Tivo'
p8353
aS'can'
p8354
aS'only'
p8355
aS'connect'
p8356
aS'at'
p8357
aS'802.11b'
p8358
aS'speeds'
p8359
aS'and'
p8360
aS'not'
p8361
aS'802.11g.'
p8362
ag310
tp8363
a((lp8364
S'However'
p8365
aS'since'
p8366
aS'this'
p8367
aS'Router'
p8368
aS'is'
p8369
aS'backward'
p8370
aS'compatible,'
p8371
aS'that'
p8372
aS"doesn't"
p8373
aS'pose'
p8374
ag29
aS'problem'
p8375
aS'at'
p8376
aS'all.'
p8377
ag24
tp8378
a((lp8379
S'Overall,'
p8380
aS"it'll"
p8381
aS'make'
p8382
aS'my'
p8383
aS'move'
p8384
aS'that'
p8385
aS'much'
p8386
aS'easier'
p8387
aS'knowing'
p8388
ag187
aS"don't"
p8389
aS'have'
p8390
aS'to'
p8391
aS'worry'
p8392
aS'about'
p8393
aS'connectivity.'
p8394
ag24
tp8395
a((lp8396
S'(...)'
p8397
aS'Like'
p8398
aS'most'
p8399
aS'SOHO'
p8400
aS'routers,'
p8401
aS'it'
p8402
aS'has'
p8403
aS'nearly'
p8404
aS'non-existant'
p8405
aS'logging.'
p8406
ag310
tp8407
a((lp8408
S'And'
p8409
aS'provides'
p8410
aS'near'
p8411
aS'zero-statistics.'
p8412
ag140
tp8413
a((lp8414
S'SOHO'
p8415
aS'boxes'
p8416
aS"don't"
p8417
aS'give'
p8418
aS'you'
p8419
ag29
aS'clue'
p8420
aS'about'
p8421
aS'who'
p8422
aS'is'
p8423
aS'one'
p8424
aS'your'
p8425
aS'network'
p8426
aS'or'
p8427
aS'what'
p8428
aS'they'
p8429
aS'are'
p8430
aS'doing.'
p8431
ag140
tp8432
a((lp8433
S'This'
p8434
aS'is'
p8435
aS'universal'
p8436
aS'across'
p8437
aS'every'
p8438
aS'brand'
p8439
aS"I've"
p8440
aS'worked'
p8441
aS'with.'
p8442
ag140
tp8443
a((lp8444
S'If'
p8445
ag29
aS'PC'
p8446
aS'asks'
p8447
aS'&'
p8448
aS'takes'
p8449
ag29
aS'DHCP'
p8450
aS'address'
p8451
aS"you'll"
p8452
aS'have'
p8453
aS'that'
p8454
aS'record,'
p8455
aS'but'
p8456
aS"that's"
p8457
aS'it.'
p8458
ag140
tp8459
a((lp8460
S'Very'
p8461
aS'easy'
p8462
aS'for'
p8463
aS'visitors'
p8464
aS'to'
p8465
aS'be'
p8466
aS'invisible'
p8467
aS'on'
p8468
aS'all'
p8469
aS'home-marketed'
p8470
aS'boxes.'
p8471
ag140
tp8472
a((lp8473
S"I'm"
p8474
aS'disappoointed'
p8475
aS'Linksys'
p8476
aS'still'
p8477
aS"doesn't"
p8478
aS'allow'
p8479
aS'mapping'
p8480
aS'specific'
p8481
aS'IP'
p8482
aS'addressses'
p8483
aS'in'
p8484
aS'DHCP'
p8485
aS'(what'
p8486
aS'Windows'
p8487
aS'Server'
p8488
aS'people'
p8489
aS'call'
p8490
aS'Reservations).'
p8491
ag140
tp8492
a((lp8493
S'Netgear'
p8494
aS'and'
p8495
aS'Dell'
p8496
aS'(which'
p8497
ag187
aS'think'
p8498
aS'may'
p8499
aS'be'
p8500
aS'DLink'
p8501
aS'rebranded)'
p8502
aS'do.'
p8503
ag140
tp8504
a((lp8505
S'BEST'
p8506
aS'SECURITY'
p8507
aS'PRACTICES'
p8508
ag187
aS'RECOMMEND...'
p8509
aS'Pick'
p8510
ag29
aS'UNIQUE'
p8511
aS'SSID.'
p8512
ag140
tp8513
a((lp8514
S'SSID'
p8515
aS'are'
p8516
aS'like'
p8517
aS'filenames'
p8518
aS'in'
p8519
aS'Windows.'
p8520
ag140
tp8521
a((lp8522
S'When'
p8523
aS'your'
p8524
aS'laptop'
p8525
aS'come'
p8526
aS'home'
p8527
aS'it'
p8528
aS'must'
p8529
aS'have'
p8530
ag29
aS'profile'
p8531
aS'with'
p8532
aS'the'
p8533
aS'SID.'
p8534
ag140
tp8535
a((lp8536
S'If'
p8537
aS'you'
p8538
aS'leave'
p8539
aS'it'
p8540
aS'as'
p8541
aS'LINKSYS'
p8542
aS'you'
p8543
aS'will'
p8544
aS'have'
p8545
aS'to'
p8546
aS'wipe'
p8547
aS'out'
p8548
aS'your'
p8549
aS'config'
p8550
aS'to'
p8551
aS'connect'
p8552
aS'to'
p8553
aS'someone'
p8554
aS"else's"
p8555
aS'LNKSYS'
p8556
aS'router'
p8557
aS'cause'
p8558
aS'they'
p8559
aS"didn't"
p8560
aS'change'
p8561
aS'the'
p8562
aS'default'
p8563
aS'SS!'
p8564
ag140
tp8565
a((lp8566
S'ID'
p8567
aS'on'
p8568
aS'their'
p8569
aS'router.'
p8570
ag140
tp8571
a((lp8572
S'MAC'
p8573
aS'filtering'
p8574
aS'stops'
p8575
aS'visitors'
p8576
aS'from'
p8577
aS'using'
p8578
aS'your'
p8579
aS'network'
p8580
aS'but'
p8581
aS'they'
p8582
aS'can'
p8583
aS'still'
p8584
aS'spy'
p8585
aS'on'
p8586
aS'your'
p8587
aS'traffic.'
p8588
ag140
tp8589
a((lp8590
S'MAC'
p8591
aS'filtering'
p8592
aS"isn't"
p8593
aS'too'
p8594
aS'hard'
p8595
aS'and'
p8596
aS'it'
p8597
aS'is'
p8598
aS'just'
p8599
ag29
aS'config'
p8600
aS'change'
p8601
aS'on'
p8602
aS'the'
p8603
aS'router.'
p8604
ag140
tp8605
a((lp8606
S'You'
p8607
aS"don't"
p8608
aS'have'
p8609
aS'to'
p8610
aS'monkey'
p8611
aS'with'
p8612
aS'the'
p8613
aS'PC'
p8614
aS'config.'
p8615
ag140
tp8616
a((lp8617
S'Easy'
p8618
aS'and'
p8619
ag29
aS'basic'
p8620
aS'step,'
p8621
aS'but'
p8622
aS'if'
p8623
aS'you'
p8624
aS'have'
p8625
aS'suspicious'
p8626
aS'teenae'
p8627
aS'computer'
p8628
aS'geeks'
p8629
aS'in'
p8630
aS'the'
p8631
aS'area,'
p8632
aS'maybe'
p8633
aS'not'
p8634
aS'enough'
p8635
aS'for'
p8636
aS'privacy.'
p8637
ag140
tp8638
a((lp8639
S'Best'
p8640
aS'practice'
p8641
aS'is'
p8642
aS'learn'
p8643
aS'how'
p8644
aS'to'
p8645
aS'setup'
p8646
aS'encryption.'
p8647
ag140
tp8648
a((lp8649
S'WEP'
p8650
aS'encryption'
p8651
aS'is'
p8652
aS'weak'
p8653
aS'but'
p8654
aS'most'
p8655
aS'computer'
p8656
aS'people'
p8657
aS"couldn't"
p8658
aS'figure'
p8659
aS'out'
p8660
aS'how'
p8661
aS'to'
p8662
aS'break'
p8663
aS'it.'
p8664
ag140
tp8665
a((lp8666
S'WPA'
p8667
aS'is'
p8668
aS'best.'
p8669
ag140
tp8670
a((lp8671
S'Problem'
p8672
aS'is'
p8673
aS'sometimes'
p8674
aS'you'
p8675
aS"can't"
p8676
aS'get'
p8677
ag29
aS'visiting'
p8678
aS'laptop'
p8679
aS'to'
p8680
aS'work'
p8681
aS'with'
p8682
aS'certain'
p8683
aS'encryption.'
p8684
ag140
tp8685
a((lp8686
S'Getting'
p8687
aS'Apple/Macs'
p8688
aS'was'
p8689
aS'historically'
p8690
ag29
aS'pain,'
p8691
aS'but'
p8692
aS"they've"
p8693
aS'all'
p8694
aS'improved'
p8695
aS'interoperability'
p8696
aS'now.'
p8697
ag140
tp8698
a((lp8699
S'Encryption'
p8700
aS'means'
p8701
aS'people'
p8702
aS"can't"
p8703
aS'join'
p8704
aS'OR'
p8705
aS'read'
p8706
aS'what'
p8707
aS"you're"
p8708
aS'doing.'
p8709
ag140
tp8710
a((lp8711
S"I've"
p8712
aS'had'
p8713
aS'this'
p8714
aS'Linksys'
p8715
aS'router.'
p8716
ag140
tp8717
a((lp8718
S'For'
p8719
aS'more'
p8720
aS'than'
p8721
ag29
aS'year,'
p8722
aS'and'
p8723
aS'it'
p8724
aS'is'
p8725
aS'totally'
p8726
aS'reliable.'
p8727
ag24
tp8728
a((lp8729
S'No'
p8730
aS'down'
p8731
aS'time,'
p8732
aS'great'
p8733
aS'signal'
p8734
aS'strength.'
p8735
ag24
tp8736
a((lp8737
S'Worth'
p8738
aS'every'
p8739
aS'penny'
p8740
aS'plus'
p8741
aS'for'
p8742
aS'those'
p8743
aS'who'
p8744
aS'are'
p8745
aS'really'
p8746
aS'into'
p8747
aS'networking.'
p8748
ag140
tp8749
a((lp8750
S'There'
p8751
aS'is'
p8752
aS'an'
p8753
aS'open-source'
p8754
aS'firmware'
p8755
aS'on'
p8756
aS'the'
p8757
aS'net'
p8758
aS'which'
p8759
aS'has'
p8760
aS'tons'
p8761
aS'of'
p8762
aS'extra'
p8763
aS'features.'
p8764
ag24
tp8765
a((lp8766
S'Setup'
p8767
aS'is'
p8768
aS'totally'
p8769
aS'breeze'
p8770
aS'and'
p8771
aS"Linksys's"
p8772
aS'web'
p8773
aS'site'
p8774
aS'is'
p8775
aS'pretty'
p8776
aS'easy'
p8777
aS'to'
p8778
aS'navigate.'
p8779
ag24
tp8780
a((lp8781
S'Now'
p8782
aS'this'
p8783
aS'router'
p8784
aS'is'
p8785
aS'not'
p8786
aS'the'
p8787
aS'cheapest'
p8788
aS'on'
p8789
aS'the'
p8790
aS'market.'
p8791
ag310
tp8792
a((lp8793
S'But'
p8794
aS'if'
p8795
aS'you'
p8796
aS'want'
p8797
aS'to'
p8798
aS'get'
p8799
aS'into'
p8800
aS'networking'
p8801
aS'and'
p8802
aS'running'
p8803
aS'wireless.'
p8804
ag140
tp8805
a((lp8806
S'The'
p8807
aS'fact'
p8808
aS'that'
p8809
aS'has'
p8810
aS'an'
p8811
aS'open-source'
p8812
aS'firmware'
p8813
aS'makes'
p8814
aS'it'
p8815
ag29
aS'great'
p8816
aS'option'
p8817
aS'in'
p8818
aS'my'
p8819
aS'opinion.'
p8820
ag24
tp8821
a((lp8822
g187
aS"can't"
p8823
aS'really'
p8824
aS'think'
p8825
aS'of'
p8826
aS'any'
p8827
aS'negatives,'
p8828
aS'but'
p8829
aS"I'll"
p8830
aS'try'
p8831
aS'okay.'
p8832
ag140
tp8833
a((lp8834
S'Nothing'
p8835
aS'came'
p8836
aS'to'
p8837
aS'mind.'
p8838
ag140
tp8839
a((lp8840
S'So'
p8841
aS'the'
p8842
aS'pretty'
p8843
aS'solid'
p8844
aS'router'
p8845
aS'all'
p8846
aS'around'
p8847
aS'good'
p8848
aS'for'
p8849
aS'the'
p8850
aS'money'
p8851
aS"here's"
p8852
aS'the'
p8853
aS'link'
p8854
aS'to'
p8855
aS'firmware'
p8856
aS'updates'
p8857
aS'http://www.sveasoft.com/forum6.html'
p8858
ag24
tp8859
a((lp8860
S'Absolutely'
p8861
aS'no'
p8862
aS'problems'
p8863
aS'with'
p8864
aS'this'
p8865
aS'router.'
p8866
ag24
tp8867
a((lp8868
g187
aS'downloaded'
p8869
aS'and'
p8870
aS'updated'
p8871
aS'the'
p8872
aS'firmware,'
p8873
aS'and'
p8874
aS'followed'
p8875
aS'the'
p8876
aS'easy'
p8877
aS'setup'
p8878
aS'instructions.'
p8879
ag24
tp8880
a((lp8881
g1376
aS'call'
p8882
aS'to'
p8883
aS'customer'
p8884
aS'support'
p8885
aS'(got'
p8886
aS'to'
p8887
ag29
aS'live'
p8888
aS'person'
p8889
aS'within'
p8890
ag29
aS'couple'
p8891
aS'of'
p8892
aS'minutes)'
p8893
aS'helped'
p8894
aS'me'
p8895
aS'tweak'
p8896
ag29
aS'couple'
p8897
aS'of'
p8898
aS'the'
p8899
aS'settings'
p8900
aS'to'
p8901
aS'streamline'
p8902
aS'performance.'
p8903
ag24
tp8904
a((lp8905
g187
aS'have'
p8906
aS'successfully'
p8907
aS'used'
p8908
aS'the'
p8909
aS'additional'
p8910
aS'Ethernet'
p8911
aS'ports'
p8912
aS'to'
p8913
aS'add'
p8914
aS'peripherals'
p8915
aS'to'
p8916
aS'my'
p8917
aS'wireless'
p8918
aS'networks.'
p8919
ag140
tp8920
a((lp8921
S'Speed'
p8922
aS'is'
p8923
aS'not'
p8924
ag29
aS'problem.'
p8925
ag24
tp8926
a((lp8927
g187
aS'bought'
p8928
aS'this'
p8929
aS'to'
p8930
aS'replace'
p8931
aS'my'
p8932
aS'Linksys'
p8933
aS'BEFW11S4'
p8934
ag795
aS'802.11b'
p8935
aS'wireless'
p8936
aS'router'
p8937
aS'(I'
p8938
aS'gave'
p8939
aS'the'
p8940
aS'old'
p8941
aS'router'
p8942
aS'to'
p8943
ag29
aS'friend'
p8944
ag795
aS'it'
p8945
aS'worked'
p8946
aS'great)'
p8947
aS'because'
p8948
ag187
aS'thought'
p8949
aS'it'
p8950
aS'would'
p8951
aS'be'
p8952
ag29
aS'nice'
p8953
aS'upgrade'
p8954
aS'in'
p8955
aS'speed'
p8956
aS'and'
p8957
aS'performance'
p8958
ag795
aS'WRONG!'
p8959
ag140
tp8960
a((lp8961
g187
aS"can't"
p8962
aS'notice'
p8963
aS'any'
p8964
aS'difference'
p8965
ag795
aS'except'
p8966
aS'it'
p8967
aS'used'
p8968
aS'to'
p8969
aS'drop'
p8970
aS'my'
p8971
aS'connection'
p8972
aS'several'
p8973
aS'times'
p8974
aS'an'
p8975
aS'hour!'
p8976
ag140
tp8977
a((lp8978
S'After'
p8979
aS'upgrading'
p8980
aS'the'
p8981
aS'drivers'
p8982
aS'and'
p8983
aS'firmware'
p8984
ag29
aS'few'
p8985
aS'times'
p8986
aS'and'
p8987
aS'e-mailing'
p8988
aS'tech'
p8989
aS'support'
p8990
aS'for'
p8991
aS'some'
p8992
aS'setting'
p8993
aS'tips'
p8994
aS'it'
p8995
aS'now'
p8996
aS'works'
p8997
aS'fine.'
p8998
ag24
tp8999
a((lp9000
S'If'
p9001
aS'you'
p9002
aS'currently'
p9003
aS'own'
p9004
ag29
aS'wireless'
p9005
aS'router'
p9006
aS'(802.11b)'
p9007
aS"don't"
p9008
aS'rush'
p9009
aS'to'
p9010
aS'replace'
p9011
aS'it!'
p9012
ag140
tp9013
a((lp9014
S'As'
p9015
aS'far'
p9016
aS'as'
p9017
aS'Linksys'
p9018
aS'goes,'
p9019
ag187
aS'have'
p9020
aS'used'
p9021
aS'several'
p9022
aS'of'
p9023
aS'their'
p9024
aS'products'
p9025
aS'and'
p9026
aS'they'
p9027
aS'seem'
p9028
aS'to'
p9029
aS'hold'
p9030
aS'up'
p9031
aS'well'
p9032
ag795
aS'no'
p9033
aS'problems.'
p9034
ag24
tp9035
a((lp9036
S'Getting'
p9037
aS'the'
p9038
aS'router'
p9039
aS'setup'
p9040
aS'in'
p9041
ag29
aS'"vanilla"'
p9042
aS'configuration'
p9043
aS'that'
p9044
aS'works'
p9045
aS'for'
p9046
aS'99%'
p9047
aS'of'
p9048
aS'users'
p9049
aS'was'
p9050
aS'very'
p9051
aS'easy,'
p9052
aS'and'
p9053
ag187
aS'was'
p9054
aS'able'
p9055
aS'to'
p9056
aS'do'
p9057
aS'this'
p9058
aS'no'
p9059
aS'problem.'
p9060
ag24
tp9061
a((lp9062
S'First,'
p9063
aS'let'
p9064
aS'me'
p9065
aS'set'
p9066
aS'the'
p9067
aS'stage'
p9068
aS'by'
p9069
aS'saying'
p9070
aS'that'
p9071
ag187
aS'am'
p9072
aS'not'
p9073
ag29
aS'network'
p9074
aS'specialist,'
p9075
aS'just'
p9076
ag29
aS'regular'
p9077
aS'Joe'
p9078
aS'who'
p9079
aS'for'
p9080
aS'convenience'
p9081
aS'reasons'
p9082
aS'wants'
p9083
ag29
aS'wireless'
p9084
aS'network'
p9085
aS'in'
p9086
aS'his'
p9087
aS'house.'
p9088
aS'##For'
p9089
aS'the'
p9090
aS'last'
p9091
aS'couple'
p9092
aS'of'
p9093
aS'years'
p9094
aS"I'd"
p9095
aS'run'
p9096
aS'the'
p9097
aS'Linksys'
p9098
aS'Wireless'
p9099
ag5310
aS'router;'
p9100
aS'it'
p9101
aS'was'
p9102
aS'rock'
p9103
aS'solid,'
p9104
aS'no'
p9105
aS'issues'
p9106
aS'whatsoever.'
p9107
ag140
tp9108
a((lp9109
S'However'
p9110
ag187
aS'realized'
p9111
aS'the'
p9112
aS'other'
p9113
aS'day'
p9114
aS'that'
p9115
ag187
aS"hadn't"
p9116
aS'even'
p9117
aS'secured'
p9118
aS'it'
p9119
aS'(yes,'
p9120
aS'stupid'
p9121
aS'me).'
p9122
ag140
tp9123
a((lp9124
S'As'
p9125
aS"I'd"
p9126
aS'just'
p9127
aS'purchased'
p9128
ag29
aS'new'
p9129
aS'computer'
p9130
aS'with'
p9131
ag29
aS'Wireless'
p9132
ag5141
aS'adapter,'
p9133
ag187
aS'figured'
p9134
aS"I'd"
p9135
aS'upgrade'
p9136
aS'the'
p9137
aS'router'
p9138
aS'as'
p9139
aS'well'
p9140
aS'and'
p9141
aS'set'
p9142
aS'it'
p9143
aS'up'
p9144
aS'as'
p9145
aS"it's"
p9146
aS'supposed'
p9147
aS'to'
p9148
aS'be.'
p9149
ag140
tp9150
a((lp9151
g187
aS'first'
p9152
aS'purchased'
p9153
aS'the'
p9154
aS'Wireless'
p9155
ag5141
aS'with'
p9156
aS'Speedbooster.'
p9157
ag140
tp9158
a((lp9159
S'Though'
p9160
aS'admittedly'
p9161
ag187
aS'am'
p9162
ag29
aS'novice'
p9163
aS'at'
p9164
aS'networking,'
p9165
ag187
aS'am'
p9166
aS'not'
p9167
aS'an'
p9168
aS'idiot'
p9169
aS'and'
p9170
aS'can'
p9171
aS'read'
p9172
aS'directions.'
p9173
ag140
tp9174
a((lp9175
S'Quite'
p9176
aS'frankly'
p9177
aS'though,'
p9178
aS"I've"
p9179
aS'never'
p9180
aS'seen'
p9181
ag29
aS'worse'
p9182
aS'setup'
p9183
aS'process'
p9184
aS'for'
p9185
ag29
aS'piece'
p9186
aS'of'
p9187
aS'hardware.'
p9188
ag140
tp9189
a((lp9190
S'The'
p9191
aS'documentation'
p9192
aS'was'
p9193
aS'just'
p9194
aS'horrible.'
p9195
ag140
tp9196
a((lp9197
S'When'
p9198
aS'you'
p9199
aS'open'
p9200
aS'the'
p9201
aS'package'
p9202
aS'the'
p9203
aS'first'
p9204
aS'thing'
p9205
aS'you'
p9206
aS'see'
p9207
aS'is'
p9208
aS'"Run'
p9209
aS'CD'
p9210
aS'first".'
p9211
ag140
tp9212
a((lp9213
S'So'
p9214
ag187
aS'run'
p9215
aS'the'
p9216
aS'CD,'
p9217
aS'and'
p9218
aS'get'
p9219
aS'all'
p9220
aS'kinds'
p9221
aS'of'
p9222
aS'quirky'
p9223
aS'error'
p9224
aS'messages.'
p9225
ag140
tp9226
a((lp9227
S'Somehow'
p9228
aS'the'
p9229
aS'adap'
p9230
ag140
tp9231
a((lp9232
S'ter'
p9233
aS'finds'
p9234
aS'the'
p9235
aS'router'
p9236
aS'anyway,'
p9237
aS'but'
p9238
aS"it's"
p9239
aS'unsecured.'
p9240
ag140
tp9241
a((lp9242
g187
aS'call'
p9243
aS'tech'
p9244
aS'support,'
p9245
aS'which'
p9246
aS'was'
p9247
aS'clearly'
p9248
aS'overseas,'
p9249
aS'and'
p9250
aS"I'm"
p9251
aS'pretty'
p9252
aS'sure'
p9253
aS'he'
p9254
aS'understood'
p9255
aS'me'
p9256
aS'about'
p9257
aS'as'
p9258
aS'well'
p9259
aS'as'
p9260
ag187
aS'understood'
p9261
aS'him.'
p9262
ag140
tp9263
a((lp9264
S'After'
p9265
aS'15'
p9266
aS'minutes'
p9267
aS'on'
p9268
aS'hold'
p9269
aS'and'
p9270
aS'10'
p9271
aS'painful'
p9272
aS'minutes'
p9273
aS'with'
p9274
aS'this'
p9275
aS'guy,'
p9276
aS'he'
p9277
aS'basically'
p9278
aS'tells'
p9279
aS'me'
p9280
aS'to'
p9281
aS'download'
p9282
ag29
aS'file'
p9283
aS'from'
p9284
aS'their'
p9285
aS'website'
p9286
aS'which'
p9287
aS'will'
p9288
aS'walk'
p9289
aS'me'
p9290
aS'through.'
p9291
ag140
tp9292
a((lp9293
g187
aS'did'
p9294
aS'this'
p9295
aS'and'
p9296
aS'indeed'
p9297
aS'the'
p9298
aS'setup'
p9299
aS'flowed'
p9300
aS'much'
p9301
aS'better.'
p9302
ag140
tp9303
a((lp9304
S'But'
p9305
aS'my'
p9306
aS'question:'
p9307
aS'How'
p9308
aS'does'
p9309
aS'this'
p9310
aS'CD'
p9311
aS'make'
p9312
aS'it'
p9313
aS'out'
p9314
aS'the'
p9315
aS'door'
p9316
aS'if'
p9317
aS"it's"
p9318
aS'this'
p9319
aS'bad?'
p9320
ag140
tp9321
a((lp9322
S'Anyway,'
p9323
aS'after'
p9324
aS'learning'
p9325
aS'that'
p9326
aS'the'
p9327
aS'"Speedboost"'
p9328
aS'feature'
p9329
aS'only'
p9330
aS'does'
p9331
aS'anything'
p9332
aS'for'
p9333
aS'you'
p9334
aS'if'
p9335
aS'(1)'
p9336
aS'you'
p9337
aS'are'
p9338
aS'also'
p9339
aS'using'
p9340
ag29
aS'Speedboost'
p9341
aS'adapter'
p9342
aS'(which'
p9343
ag187
aS'was),'
p9344
aS'and'
p9345
aS'(2)'
p9346
aS'if'
p9347
aS'you'
p9348
aS'are'
p9349
aS'transferring'
p9350
aS'large'
p9351
aS'data'
p9352
aS'files'
p9353
aS'between'
p9354
aS'computers'
p9355
aS'(Note:'
p9356
aS'it'
p9357
aS'does'
p9358
aS'NOT'
p9359
aS'increase'
p9360
aS'your'
p9361
aS'speed'
p9362
aS'on'
p9363
aS'the'
p9364
aS'Internet,'
p9365
aS'but'
p9366
aS'only'
p9367
aS'between'
p9368
aS'computers'
p9369
aS'on'
p9370
aS'the'
p9371
aS'network),'
p9372
ag187
aS'opted'
p9373
aS'to'
p9374
aS'return'
p9375
aS'the'
p9376
aS'product'
p9377
aS'and'
p9378
aS'get'
p9379
aS'the'
p9380
aS'standard'
p9381
aS'Wireless'
p9382
ag5141
aS'(v.5).'
p9383
ag140
tp9384
a((lp9385
S'Best'
p9386
aS'decision'
p9387
aS"I've"
p9388
aS'made'
p9389
aS'in'
p9390
ag29
aS'long'
p9391
aS'time.'
p9392
ag140
tp9393
a((lp9394
S'First,'
p9395
aS'the'
p9396
aS'router'
p9397
aS'was'
p9398
aS'on'
p9399
aS'sale'
p9400
aS'for'
p9401
aS'$49'
p9402
aS'at'
p9403
aS'Circuit'
p9404
aS'City.'
p9405
ag140
tp9406
a((lp9407
S'Second,'
p9408
aS'the'
p9409
aS'setup'
p9410
aS'CD'
p9411
aS'actually'
p9412
aS'worked'
p9413
aS'perfectly.'
p9414
ag24
tp9415
a((lp9416
g187
aS'was'
p9417
aS'able'
p9418
aS'to'
p9419
aS'use'
p9420
aS't!'
p9421
ag140
tp9422
a((lp9423
S'he'
p9424
aS'brower-based'
p9425
aS'administrative'
p9426
aS'screen'
p9427
aS'with'
p9428
aS'no'
p9429
aS'problems.'
p9430
ag140
tp9431
a((lp9432
g187
aS'still'
p9433
aS'need'
p9434
aS'to'
p9435
aS'read'
p9436
aS'up'
p9437
aS'on'
p9438
aS'some'
p9439
aS'of'
p9440
aS'the'
p9441
aS'security'
p9442
aS'settings,'
p9443
aS'etc'
p9444
aS'to'
p9445
aS'fully'
p9446
aS'understand'
p9447
aS'all'
p9448
aS"that's"
p9449
aS'up'
p9450
aS'there,'
p9451
aS'but'
p9452
aS'bottom-line'
p9453
aS'is'
p9454
aS'that'
p9455
aS'the'
p9456
aS'installation'
p9457
aS'was'
p9458
aS'like'
p9459
aS'night'
p9460
aS'and'
p9461
aS'day'
p9462
aS'compared'
p9463
aS'to'
p9464
aS'the'
p9465
aS'Speedboost'
p9466
aS'router.'
p9467
ag140
tp9468
a((lp9469
S'The'
p9470
aS'performance'
p9471
aS'of'
p9472
aS'the'
p9473
aS'router'
p9474
aS'itself'
p9475
aS'deserves'
p9476
ag1127
aS'stars,'
p9477
aS'but'
p9478
aS'the'
p9479
aS'Linksys'
p9480
aS'documentation'
p9481
aS'and'
p9482
aS'support'
p9483
aS'is'
p9484
aS'so'
p9485
aS'poor'
p9486
aS'that'
p9487
ag187
aS'can'
p9488
aS'only'
p9489
aS'give'
p9490
aS'it'
p9491
aS'4.'
p9492
ag140
tp9493
a((lp9494
S'Even'
p9495
aS'the'
p9496
aS'PDF'
p9497
aS'manual'
p9498
aS'that'
p9499
aS'comes'
p9500
aS'with'
p9501
aS'it'
p9502
aS'is'
p9503
aS'pretty'
p9504
aS'vague'
p9505
aS'for'
p9506
aS'someone'
p9507
aS'not'
p9508
aS'familiar'
p9509
aS'with'
p9510
aS'"MAC'
p9511
aS'settings",'
p9512
aS'etc.'
p9513
ag310
tp9514
a((lp9515
S'If'
p9516
aS'you'
p9517
aS'follow'
p9518
aS'the'
p9519
aS'directions'
p9520
aS'to'
p9521
aS'the'
p9522
aS'letter'
p9523
aS'though'
p9524
aS'then'
p9525
aS'you'
p9526
aS'should'
p9527
aS'be'
p9528
aS'OK'
p9529
aS'on'
p9530
aS'the'
p9531
aS'setup.'
p9532
ag140
tp9533
a((lp9534
g187
aS'tried'
p9535
aS'and'
p9536
aS'failed'
p9537
aS'using'
p9538
aS'the'
p9539
aS'D-Link'
p9540
aS'624'
p9541
aS'108M'
p9542
aS'wireless'
p9543
aS'router.'
p9544
ag140
tp9545
a((lp9546
S'Coverage'
p9547
aS'in'
p9548
aS'my'
p9549
aS'2-floor'
p9550
aS'brick-walled'
p9551
aS'house'
p9552
aS'was'
p9553
aS'poor'
p9554
aS'and'
p9555
aS'erratic.'
p9556
ag140
tp9557
a((lp9558
g187
aS'would'
p9559
aS'never'
p9560
aS'get'
p9561
aS'108M'
p9562
aS'rate'
p9563
aS'unless'
p9564
ag187
aS'was'
p9565
aS'half'
p9566
ag29
aS'meter'
p9567
aS'from'
p9568
aS'the'
p9569
aS'box.'
p9570
ag140
tp9571
a((lp9572
S'Two'
p9573
aS'walls'
p9574
aS'apart'
p9575
aS'from'
p9576
aS'it,'
p9577
aS'the'
p9578
aS'signal'
p9579
aS'would'
p9580
aS'start'
p9581
aS'failing.'
p9582
ag140
tp9583
a((lp9584
S'When'
p9585
ag187
aS'saw'
p9586
ag29
aS'high'
p9587
aS'gain'
p9588
aS'(low'
p9589
aS'price)'
p9590
aS'antenna'
p9591
aS'was'
p9592
aS'available'
p9593
aS'to'
p9594
aS'the'
p9595
aS'WRT54G'
p9596
aS'router,'
p9597
ag187
aS'thought'
p9598
aS"I'd"
p9599
aS'happily'
p9600
aS'give'
p9601
aS'up'
p9602
aS'some'
p9603
aS'(practically'
p9604
aS'unattainable'
p9605
aS'anyway,'
p9606
aS'since'
p9607
aS"you've"
p9608
aS'got'
p9609
aS'to'
p9610
aS'be'
p9611
aS'in'
p9612
aS'spitting'
p9613
aS'distance'
p9614
aS'from'
p9615
aS'the'
p9616
aS'router)'
p9617
aS'speed'
p9618
aS'in'
p9619
aS'favour'
p9620
aS'of'
p9621
aS'wider'
p9622
aS'coverage.'
p9623
ag24
tp9624
a((lp9625
S'Important'
p9626
aS'to'
p9627
aS'note'
p9628
aS'that'
p9629
aS'what'
p9630
ag187
aS'really'
p9631
aS'needed'
p9632
aS'was'
p9633
aS'an'
p9634
aS'access'
p9635
aS'point'
p9636
aS'as'
p9637
aS'my'
p9638
aS'DSL'
p9639
aS'modem'
p9640
aS'already'
p9641
aS'does'
p9642
aS'the'
p9643
aS'router'
p9644
aS'thing'
p9645
aS'and'
p9646
ag187
aS'have'
p9647
ag29
aS'wired'
p9648
aS'100M'
p9649
aS'network'
p9650
aS'round'
p9651
aS'the'
p9652
aS'house.'
p9653
aS'setup[-1]'
p9654
aS'##Setting'
p9655
aS'up'
p9656
aS'the'
p9657
aS'system'
p9658
aS'was'
p9659
aS'not'
p9660
aS'too'
p9661
aS'complicated.'
p9662
ag140
tp9663
a((lp9664
S'Firstly,'
p9665
ag187
aS'mounted'
p9666
aS'the'
p9667
aS'7dbi'
p9668
aS'antenna'
p9669
aS'pair,'
p9670
aS'replacing'
p9671
aS'the'
p9672
aS'original'
p9673
aS'ones.'
p9674
ag140
tp9675
a((lp9676
S'Then,'
p9677
aS'the'
p9678
aS'hardest'
p9679
aS'bit'
p9680
aS'was'
p9681
aS'to'
p9682
aS'figure'
p9683
aS'out'
p9684
aS'how'
p9685
aS'to'
p9686
aS'disable'
p9687
aS'the'
p9688
aS'router'
p9689
aS'and'
p9690
aS'the'
p9691
aS'DHCP'
p9692
aS'services'
p9693
aS'so'
p9694
aS'that'
p9695
aS'all'
p9696
aS'computers'
p9697
aS'woul!'
p9698
ag140
tp9699
a((lp9700
S'd'
p9701
aS'be'
p9702
aS'in'
p9703
aS'the'
p9704
aS'same'
p9705
aS'IP'
p9706
aS'range'
p9707
aS'and'
p9708
aS'see'
p9709
aS'each'
p9710
aS'other.'
p9711
ag140
tp9712
a((lp9713
S'Basically,'
p9714
ag187
aS'set'
p9715
aS'up'
p9716
aS'the'
p9717
aS'box'
p9718
aS'to'
p9719
aS'work'
p9720
aS'as'
p9721
aS'"router"'
p9722
aS'(!'
p9723
ag140
tp9724
a((lp9725
g768
aS'as'
p9726
aS'opposed'
p9727
aS'to'
p9728
aS'"gateway",'
p9729
aS'disabled'
p9730
aS'DHCP'
p9731
aS'and'
p9732
aS'gave'
p9733
aS'the'
p9734
aS'router'
p9735
aS'an'
p9736
aS'IP'
p9737
aS'number'
p9738
aS'within'
p9739
aS'the'
p9740
aS'range'
p9741
aS'served'
p9742
aS'by'
p9743
aS'the'
p9744
aS'DHCP'
p9745
aS'service'
p9746
aS'from'
p9747
aS'the'
p9748
aS'modem.'
p9749
ag140
tp9750
a((lp9751
S'Also,'
p9752
ag187
aS'set'
p9753
aS'up'
p9754
ag29
aS'WPA-PSK'
p9755
aS'security'
p9756
aS'protocol,'
p9757
aS'and'
p9758
aS'created'
p9759
ag29
aS'corresponding'
p9760
aS'profile'
p9761
aS'in'
p9762
aS'my'
p9763
aS'notebook.'
p9764
ag140
tp9765
a((lp9766
S'All'
p9767
aS'this'
p9768
aS'took'
p9769
ag29
aS'couple'
p9770
aS'of'
p9771
aS'hours'
p9772
aS'fidling,'
p9773
aS'as'
p9774
ag187
aS'did'
p9775
aS'not'
p9776
aS'go'
p9777
aS'to'
p9778
aS'Linksys'
p9779
aS'website'
p9780
aS'for'
p9781
aS'support'
p9782
ag795
aS'so'
p9783
ag187
aS"wouldn't"
p9784
aS'know'
p9785
aS'if'
p9786
aS'there'
p9787
aS'is'
p9788
aS'help'
p9789
aS'there.'
p9790
ag140
tp9791
a((lp9792
S'Having'
p9793
aS'done'
p9794
aS'all'
p9795
aS'this,'
p9796
ag187
aS'was'
p9797
aS'quite'
p9798
aS'pleased'
p9799
aS'to'
p9800
aS'see'
p9801
aS'that'
p9802
aS'all'
p9803
aS'corners'
p9804
ag187
aS'needed'
p9805
aS'were'
p9806
aS'decently'
p9807
aS'covered'
p9808
aS'by'
p9809
aS'the'
p9810
aS'signal.'
p9811
ag24
tp9812
a((lp9813
S'The'
p9814
aS'box'
p9815
aS'is'
p9816
aS'upstairs,'
p9817
aS'and'
p9818
aS'in'
p9819
aS'the'
p9820
aS'farthest'
p9821
aS'room'
p9822
ag187
aS'get'
p9823
aS'connected'
p9824
aS'at'
p9825
aS'11-18M'
p9826
aS'speed'
p9827
ag795
aS'that'
p9828
aS'is'
p9829
aS'similar'
p9830
aS'to'
p9831
aS'the'
p9832
aS'older'
p9833
aS'10M'
p9834
aS'ethernet'
p9835
aS'standard.'
p9836
ag24
tp9837
a((lp9838
S'For'
p9839
aS'surfing'
p9840
aS'the'
p9841
aS'net'
p9842
aS'it'
p9843
aS'is'
p9844
aS'more'
p9845
aS'than'
p9846
aS'one'
p9847
aS'can'
p9848
aS'hope'
p9849
aS'for.'
p9850
ag140
tp9851
a((lp9852
S'If'
p9853
aS'it'
p9854
aS'is'
p9855
aS'needed'
p9856
aS'to'
p9857
aS'make'
p9858
ag29
aS'multi-100'
p9859
aS'MB'
p9860
aS'disk'
p9861
aS'tranfer'
p9862
aS'(such'
p9863
aS'as'
p9864
aS'back-up'
p9865
aS'copies)'
p9866
aS'it'
p9867
aS'makes'
p9868
aS'sense'
p9869
aS'to'
p9870
aS'connect'
p9871
aS'through'
p9872
aS'the'
p9873
aS'wired'
p9874
aS'network.'
p9875
ag140
tp9876
a((lp9877
S'Apart'
p9878
aS'from'
p9879
aS'speed,'
p9880
aS'the'
p9881
aS'signal'
p9882
aS'is'
p9883
aS'consistent'
p9884
aS'and'
p9885
aS'works'
p9886
aS'without'
p9887
aS'interruptions,'
p9888
aS'etc.'
p9889
ag24
tp9890
a((lp9891
S'In'
p9892
aS'my'
p9893
aS'oppinion,!'
p9894
ag140
tp9895
a((lp9896
S'the'
p9897
aS'WRT54G'
p9898
aS'plus'
p9899
aS'the'
p9900
aS'HGA7T'
p9901
aS'is'
p9902
ag29
aS'perfect'
p9903
aS'solution'
p9904
aS'if'
p9905
aS'you'
p9906
aS'need'
p9907
aS'wireless'
p9908
aS'coverage'
p9909
aS'in'
p9910
ag29
aS'wider'
p9911
aS'area'
p9912
aS'or'
p9913
aS'for'
p9914
ag29
aS'hard-walled'
p9915
aS'house'
p9916
aS'as'
p9917
aS'was'
p9918
aS'my'
p9919
aS'case.'
p9920
ag24
tp9921
a((lp9922
S'We'
p9923
aS'bought'
p9924
aS'this'
p9925
aS'about'
p9926
ag8062
aS'months'
p9927
aS'ago'
p9928
aS'and'
p9929
aS"it's"
p9930
aS'been'
p9931
aS'worthless.'
p9932
ag310
tp9933
a((lp9934
S'It'
p9935
aS'constantly'
p9936
aS'drops'
p9937
aS'the'
p9938
aS'internet'
p9939
aS'connection'
p9940
aS'and'
p9941
aS'simple'
p9942
aS'things'
p9943
aS'like'
p9944
aS'WALLS'
p9945
aS'in'
p9946
aS'our'
p9947
aS'house'
p9948
aS'block'
p9949
aS'the'
p9950
aS'link'
p9951
aS'so'
p9952
aS'everything'
p9953
aS'is'
p9954
aS'very'
p9955
aS'slow.'
p9956
ag310
tp9957
a((lp9958
S"It's"
p9959
aS'very'
p9960
aS'frustrating'
p9961
aS'to'
p9962
aS'try'
p9963
aS'to'
p9964
aS'complete'
p9965
aS'school'
p9966
aS'work'
p9967
aS'or'
p9968
aS'work,'
p9969
aS'only'
p9970
aS'to'
p9971
aS'lose'
p9972
aS'it'
p9973
aS'because'
p9974
ag187
aS'am'
p9975
aS'dropped'
p9976
aS'every'
p9977
aS'couple'
p9978
aS'of'
p9979
aS'minutes.'
p9980
ag140
tp9981
a((lp9982
S'The'
p9983
aS'tech'
p9984
aS'support'
p9985
aS'is'
p9986
aS'worthless'
p9987
aS'too.'
p9988
ag310
tp9989
a.