(lp0
((lp1
S'The'
p2
aS'world'
p3
aS'of'
p4
aS'MP3'
p5
aS'players'
p6
aS'is'
p7
aS'blinding,'
p8
aS'and'
p9
aS'since'
p10
aS'most'
p11
aS'people'
p12
aS"don't"
p13
aS'understand'
p14
aS'the'
p15
aS'technology'
p16
aS'[myself'
p17
aS'included],'
p18
aS'user-friendliness'
p19
aS'is'
p20
aS'EXTREMELY'
p21
aS'IMPORTANT.'
p22
aS'neutral'
p23
tp24
a((lp25
S'Unfortunately,'
p26
aS'Creative'
p27
aS'offered'
p28
aS'scant'
p29
aS'few'
p30
aS'pages'
p31
aS'of'
p32
aS'instruction,'
p33
aS'which'
p34
aS'meant'
p35
aS'that'
p36
aS'I'
p37
aS'was'
p38
aS'on'
p39
aS'own'
p40
aS'from'
p41
aS'the'
p42
aS'outset.'
p43
aS'neg'
p44
tp45
a((lp46
S'After'
p47
aS'attempting'
p48
aS'to'
p49
aS'navigate'
p50
aS'the'
p51
aS'clumsy'
p52
aS'touch-pad'
p53
aS'system,'
p54
ag37
aS'could'
p55
aS'not'
p56
aS'get'
p57
aS'the'
p58
aS'unit'
p59
aS'to'
p60
aS'download'
p61
aS'my'
p62
aS'wma'
p63
aS'files.'
p64
ag44
tp65
a((lp66
S'When'
p67
aS'most'
p68
aS'of'
p69
aS'us'
p70
aS'purchase'
p71
aS'these'
p72
aS'little'
p73
aS'devises,'
p74
aS'we'
p75
aS'do'
p76
aS'so'
p77
aS'because'
p78
aS'of'
p79
aS'their'
p80
aS'diminuitive'
p81
aS'size'
p82
aS'and'
p83
aS'extraordinary'
p84
aS'storage'
p85
aS'capacities.'
p86
ag23
tp87
a((lp88
S'SO,'
p89
aS'YOU'
p90
aS'MIGHT'
p91
aS'INQUIRE,'
p92
aS'WHY'
p93
aS"DON'T"
p94
aS'THEY'
p95
aS'MAKE'
p96
aS'IT'
p97
aS'A'
p98
aS'FIRST'
p99
aS'PRIORITY'
p100
aS'TO'
p101
aS'CAREFULLY,'
p102
aS'SIMPLY'
p103
aS'EXPLAIN'
p104
aS'HOW'
p105
aS'DOWNLOAD'
p106
aS'MUSIC'
p107
aS'FROM'
p108
aS'YOUR'
p109
aS'MUSIC'
p110
aS'LIBRARY'
p111
aS'TO'
p112
aS'THEIR'
p113
aS'DEVICE???'
p114
aS'This'
p115
aS'seems'
p116
aS'academic'
p117
aS'to'
p118
aS'me.'
p119
ag44
tp120
a((lp121
S'Most'
p122
aS'of'
p123
aS'us'
p124
aS'just'
p125
aS'want'
p126
aS'to'
p127
aS'plug'
p128
aS'and'
p129
aS'play,'
p130
aS'not'
p131
aS'spend'
p132
aS'a'
p133
aS'year'
p134
aS'navigating'
p135
ag133
aS'maze'
p136
aS'of'
p137
aS'complicated'
p138
aS'options...like'
p139
aS'transfering'
p140
aS'everything'
p141
aS'on'
p142
ag133
aS'hard'
p143
aS'drive'
p144
aS'to'
p145
aS'this'
p146
aS'stupid'
p147
aS'thing.'
p148
ag44
tp149
a((lp150
g37
aS"don't"
p151
aS'care'
p152
aS'what'
p153
aS'ELSE'
p154
aS'it'
p155
aS'can'
p156
aS'do.'
p157
ag23
tp158
a((lp159
g37
aS'just'
p160
aS'want'
p161
aS'MUSIC'
p162
aS'to'
p163
aS'eminate'
p164
aS'from'
p165
aS'it'
p166
aS'when'
p167
ag37
aS'want,'
p168
aS'how'
p169
ag37
aS'want.'
p170
ag23
tp171
a((lp172
S'All'
p173
aS'of'
p174
aS'this'
p175
aS'said'
p176
aS'[as'
p177
aS"it's"
p178
aS'on'
p179
aS"it's"
p180
aS'way'
p181
aS'back'
p182
aS'to'
p183
aS'Amazon],'
p184
aS'the'
p185
aS'one'
p186
aS'song'
p187
aS'it'
p188
aS'did'
p189
aS'include'
p190
aS'provided'
p191
aS'far'
p192
aS'better'
p193
aS'sound'
p194
aS'than'
p195
aS'the'
p196
aS'IPOD.'
p197
aS'pos'
p198
tp199
a((lp200
S'The'
p201
aS'base'
p202
aS'was'
p203
aS'deeper'
p204
aS'and'
p205
aS'the'
p206
aS'highs'
p207
aS'were'
p208
aS'crisper.'
p209
ag198
tp210
a((lp211
S'Unfortunately,'
p212
aS'the'
p213
aS'touch-pad'
p214
aS'issues'
p215
aS'[non-intuitive]'
p216
aS'and'
p217
aS'poor'
p218
aS'instruction'
p219
aS'guide'
p220
aS'killed'
p221
aS'it.'
p222
ag44
tp223
a((lp224
S'Why'
p225
aS'get'
p226
aS'locked'
p227
aS'in'
p228
aS'to'
p229
aS'crappy'
p230
aS'Itunes'
p231
aS'weather'
p232
aS'you'
p233
aS'want'
p234
aS'to'
p235
aS'or'
p236
aS'not?'
p237
ag23
tp238
a((lp239
S'what'
p240
ag133
aS'kick'
p241
aS'butt'
p242
aS'Mp3'
p243
aS'machine'
p244
aS'and'
p245
aS'the'
p246
aS'freedom'
p247
aS'to'
p248
aS'get'
p249
aS'songs'
p250
aS'from'
p251
ag133
aS'reasonable'
p252
aS'source,'
p253
aS'instead'
p254
aS'of'
p255
aS'paying'
p256
aS'for'
p257
aS'them'
p258
aS'two'
p259
aS'or'
p260
aS'three'
p261
aS'times,'
p262
aS'then'
p263
aS'get'
p264
aS'the'
p265
aS'Creative'
p266
aS'Zen'
p267
aS'IPOD'
p268
aS'killer,'
p269
aS'kiss'
p270
aS'my'
p271
aS'ass'
p272
aS'Itunes!'
p273
ag198
tp274
a((lp275
S'i'
p276
aS'got'
p277
aS'6000'
p278
aS"mp3's"
p279
aS"you'll"
p280
aS'never'
p281
aS'register'
p282
aS'or'
p283
aS'gay'
p284
aS'up.'
p285
ag23
tp286
a((lp287
S'Two'
p288
aS'days'
p289
aS'after'
p290
aS'writing'
p291
aS'this'
p292
aS'review'
p293
aS'below,'
p294
ag37
aS'want'
p295
aS'to'
p296
aS'remove'
p297
aS'another'
p298
aS'two'
p299
aS'stars.'
p300
ag23
tp301
a((lp302
g37
aS'just'
p303
aS'discovered'
p304
aS'another'
p305
aS'con'
p306
aS'in'
p307
aS'my'
p308
aS'list'
p309
aS'of'
p310
aS'pros'
p311
aS'and'
p312
aS'cons.'
p313
ag23
tp314
a((lp315
S'This'
p316
aS'one'
p317
aS'is'
p318
aS'particularly'
p319
aS'bothersome:'
p320
aS'Allegedly'
p321
aS'one'
p322
aS'can'
p323
aS'use'
p324
aS'the'
p325
aS'Zen'
p326
aS'Micro'
p327
aS'as'
p328
ag133
aS'portable'
p329
aS'drive'
p330
aS'to'
p331
aS'store'
p332
aS'and'
p333
aS'transport'
p334
aS'data'
p335
aS'from'
p336
aS'one'
p337
aS'computer'
p338
aS'to'
p339
aS'another.'
p340
ag44
tp341
a((lp342
S'Ahhh!'
p343
aS'There'
p344
aS'is'
p345
ag133
aS'catch,'
p346
aS'the'
p347
aS'manufacturer'
p348
aS'does'
p349
aS'not'
p350
aS'tell'
p351
aS'you.'
p352
ag23
tp353
a((lp354
S'Although'
p355
aS'you'
p356
aS'can'
p357
aS'store'
p358
aS'any'
p359
aS'type'
p360
aS'of'
p361
aS'file'
p362
aS'on'
p363
aS'the'
p364
aS'Zen'
p365
aS'Micro'
p366
aS'to'
p367
aS'download'
p368
aS'onto'
p369
ag133
aS'different'
p370
aS'computer,'
p371
aS'you'
p372
aS'need'
p373
aS'to'
p374
aS'INSTALL'
p375
aS'(on'
p376
aS'the'
p377
aS'computer'
p378
aS'you'
p379
aS'are'
p380
aS'moving'
p381
aS'the'
p382
aS'data'
p383
aS'to)'
p384
aS'Zen'
p385
aS'Micro'
p386
aS'software'
p387
aS'and'
p388
aS'drivers'
p389
aS'to'
p390
aS'do'
p391
aS'it!!!'
p392
ag23
tp393
a((lp394
g37
aS'just'
p395
aS'tried'
p396
aS'to'
p397
aS'move'
p398
ag133
aS'load'
p399
aS'of'
p400
aS'plain'
p401
aS'data'
p402
aS'files'
p403
aS'from'
p404
aS'my'
p405
aS'home'
p406
aS'computer'
p407
aS'to'
p408
aS'my'
p409
aS'office'
p410
aS'work'
p411
aS'computer,'
p412
aS'and'
p413
aS'it'
p414
aS'is'
p415
aS'promting'
p416
aS'me'
p417
aS'to'
p418
aS'install'
p419
aS'Zen'
p420
aS'Micro'
p421
aS'software,'
p422
aS'etc....'
p423
ag23
tp424
a((lp425
g37
aS'have'
p426
aS'used'
p427
aS'similar'
p428
aS'devices'
p429
aS'and'
p430
aS'they'
p431
aS'are'
p432
aS'seamless'
p433
aS'and'
p434
aS'simple.'
p435
ag23
tp436
a((lp437
S'Who'
p438
aS'wants'
p439
aS'to'
p440
aS'go'
p441
aS'through'
p442
aS'the'
p443
aS'hassles'
p444
aS'of'
p445
aS'loading'
p446
aS'software'
p447
aS'onto'
p448
ag133
aS'"foreign"'
p449
aS'computer'
p450
aS'just'
p451
aS'to'
p452
aS'move'
p453
aS'over'
p454
aS'some'
p455
aS'simple'
p456
aS'(*.txt)'
p457
aS'files?'
p458
ag44
tp459
a((lp460
S'This'
p461
aS'brings'
p462
aS'my'
p463
aS'review'
p464
aS'to'
p465
aS'one'
p466
aS'star!'
p467
ag23
tp468
a((lp469
S'But'
p470
aS'Amazon'
p471
aS"won't"
p472
aS'allow'
p473
aS'me'
p474
aS'to'
p475
aS'reduce'
p476
aS'the'
p477
aS'number'
p478
aS'of'
p479
aS'stars'
p480
aS'once'
p481
ag37
aS'have'
p482
aS'already'
p483
aS'established'
p484
aS'three'
p485
aS'two'
p486
aS'days'
p487
aS'ago.'
p488
ag23
tp489
a((lp490
S'The'
p491
aS'sound'
p492
aS'is'
p493
aS'great,'
p494
aS'the'
p495
aS'portability,'
p496
aS'etc...'
p497
aS'all'
p498
aS'the'
p499
aS'"stuff"'
p500
aS'you'
p501
aS'expect'
p502
aS'from'
p503
ag133
aS'good'
p504
aS'MP-3'
p505
aS'player,'
p506
aS'this'
p507
aS'Zen'
p508
aS'Micro'
p509
aS'has'
p510
aS'it.'
p511
ag198
tp512
a((lp513
S'It'
p514
aS'COULD'
p515
aS'have'
p516
aS'been'
p517
ag133
aS'great'
p518
aS'product.'
p519
ag23
tp520
a((lp521
S'Why'
p522
aS"isn't"
p523
aS'it?'
p524
ag23
tp525
a((lp526
S'Read'
p527
aS'the'
p528
aS'next'
p529
aS'six'
p530
aS'mixed'
p531
aS'pros'
p532
aS'and'
p533
aS'cons:'
p534
aS'.'
p535
ag23
tp536
a((lp537
S'1.'
p538
ag23
tp539
a((lp540
S')'
p541
aS'Button'
p542
aS'sensitivity:'
p543
aS'Even'
p544
aS'reduced'
p545
aS'to'
p546
aS'the'
p547
aS'lowest'
p548
aS'sensitivity'
p549
aS'setting,'
p550
aS'the'
p551
aS'buttons'
p552
aS'are'
p553
aS'far'
p554
aS'two'
p555
aS'sensitive,'
p556
aS'really'
p557
aS'takes'
p558
aS'some'
p559
aS'getting'
p560
aS'use'
p561
aS'to,'
p562
aS'and'
p563
aS'even'
p564
aS'then,'
p565
aS'it'
p566
aS'is'
p567
aS'still'
p568
aS'too'
p569
aS'sensitive.'
p570
ag44
tp571
a((lp572
S'The'
p573
aS'company'
p574
aS'has'
p575
aS'received'
p576
aS'thousands'
p577
aS'of'
p578
aS'complaints'
p579
aS'about'
p580
aS'this'
p581
aS'and'
p582
aS'refuses'
p583
aS'to'
p584
aS'do'
p585
aS'anything'
p586
aS'about'
p587
aS'it.'
p588
ag535
ag23
tp589
a((lp590
S'2.'
p591
ag23
tp592
a((lp593
g541
aS'WORST'
p594
aS'FEATURE'
p595
aS'POSSIBLE,'
p596
aS'THIS'
p597
aS'ALONE'
p598
aS'MAKES'
p599
aS'IT'
p600
aS'RATE'
p601
aS'ONE'
p602
aS'STAR:'
p603
aS"What's"
p604
aS'up'
p605
aS'with'
p606
aS'no'
p607
aS'recharge'
p608
aS'cord?'
p609
ag44
tp610
a((lp611
S'You'
p612
aS'have'
p613
aS'to'
p614
aS'purchase'
p615
aS'that'
p616
aS'separately'
p617
aS'for'
p618
aS'some'
p619
aS'outrageous'
p620
aS'cost.'
p621
ag44
tp622
a((lp623
S'If'
p624
aS'you'
p625
aS'want'
p626
aS'to'
p627
aS'recharge'
p628
aS'it,'
p629
aS'you'
p630
aS'MUST'
p631
aS'connect'
p632
aS'it'
p633
aS'to'
p634
aS'your'
p635
aS'computer.'
p636
ag23
tp637
a((lp638
S'The'
p639
aS'recharge'
p640
aS'cord'
p641
aS'will'
p642
aS'do'
p643
aS'the'
p644
aS'job'
p645
aS'in'
p646
ag133
aS'fraction'
p647
aS'of'
p648
aS'the'
p649
aS'time'
p650
aS'that'
p651
aS'the'
p652
aS'USB'
p653
aS'cable'
p654
aS'will'
p655
aS'hooked'
p656
aS'to'
p657
aS'your'
p658
aS'computer.'
p659
ag23
tp660
a((lp661
g37
aS'took'
p662
aS'my'
p663
aS'Zen'
p664
aS'Micro'
p665
aS'with'
p666
aS'me'
p667
aS'over'
p668
aS'the'
p669
aS'weekend,'
p670
aS'and'
p671
aS'was'
p672
aS'forced'
p673
aS'to'
p674
aS'lug'
p675
aS'my'
p676
aS'laptop'
p677
aS'with'
p678
aS'me'
p679
aS'on'
p680
aS'the'
p681
aS'trip'
p682
aS'for'
p683
aS'one'
p684
aS'reason:'
p685
aS'to'
p686
aS'keep'
p687
aS'the'
p688
aS'Zen'
p689
aS'Micro'
p690
aS'charged.'
p691
ag44
tp692
a((lp693
S'Infuriating!'
p694
aS'Nearly'
p695
aS'all'
p696
aS'other'
p697
aS'MP-3'
p698
aS'producing'
p699
aS'companies'
p700
aS'include'
p701
ag133
aS'recharging'
p702
aS'cord'
p703
aS'with'
p704
aS'their'
p705
aS'product'
p706
aS'that'
p707
aS'can'
p708
aS'be'
p709
aS'plugged'
p710
aS'into'
p711
ag133
aS'wall'
p712
aS'socket.'
p713
ag23
tp714
a((lp715
S'If'
p716
aS'you'
p717
aS'want'
p718
ag133
aS'wall-socket'
p719
aS'recharging'
p720
aS'cord,'
p721
aS'you'
p722
aS'have'
p723
aS'to'
p724
aS'dish'
p725
aS'out'
p726
aS'somewhere'
p727
aS'between'
p728
aS'$30'
p729
aS'and'
p730
aS'$35,'
p731
aS'plus'
p732
aS'shipping'
p733
aS'and'
p734
aS'handling,'
p735
aS'for'
p736
ag133
aS'cord'
p737
aS'that'
p738
aS'cost'
p739
aS'less'
p740
aS'than'
p741
aS'$1'
p742
aS'to'
p743
aS'manufacture'
p744
aS'and'
p745
aS'market.'
p746
ag23
tp747
a((lp748
g37
aS'have'
p749
aS'trashed'
p750
aS'this'
p751
aS'product'
p752
aS'on'
p753
aS'other'
p754
aS'opinion'
p755
aS'sites'
p756
aS'based'
p757
aS'on'
p758
aS'this'
p759
aS'major'
p760
aS'flaw'
p761
aS'alone.'
p762
ag44
tp763
a((lp764
S'What'
p765
aS'is'
p766
aS'up'
p767
aS'with'
p768
aS'nickle'
p769
aS'and'
p770
aS'dimeing'
p771
aS'consumers'
p772
aS'on'
p773
aS'the'
p774
aS'recharge'
p775
aS'cord?'
p776
ag23
tp777
a((lp778
S'Buy'
p779
aS'from'
p780
aS'another'
p781
aS'company'
p782
aS'and'
p783
aS'run'
p784
aS'from'
p785
aS'Creative,'
p786
aS'Inc.'
p787
ag23
tp788
a((lp789
S'Their'
p790
aS'product'
p791
aS'may'
p792
aS'appear'
p793
aS'more'
p794
aS'enconomical,'
p795
aS'but'
p796
aS'it'
p797
aS"isn't"
p798
aS'in'
p799
aS'the'
p800
aS'long'
p801
aS'run.'
p802
ag535
ag23
tp803
a((lp804
S'3.'
p805
ag23
tp806
a((lp807
g541
aS'Creative,'
p808
aS'Inc.'
p809
aS'the'
p810
aS'maker'
p811
aS'includes'
p812
aS'the'
p813
aS'barest'
p814
aS'of'
p815
aS'the'
p816
aS'bare'
p817
aS'minimum'
p818
aS'in'
p819
aS'the'
p820
aS'box,'
p821
aS'then'
p822
aS'through'
p823
aS'gross'
p824
aS'profiteering'
p825
aS'nickles'
p826
aS'and'
p827
aS'dimes'
p828
aS'you'
p829
aS'on'
p830
aS'EVERY'
p831
aS'single'
p832
aS'accessory'
p833
aS'at'
p834
aS'extraordinarily'
p835
aS'inflated'
p836
aS'prices.'
p837
ag44
tp838
a((lp839
S'The'
p840
aS'box'
p841
aS'included'
p842
ag133
aS'little'
p843
aS'polyester,'
p844
aS'pull-string'
p845
aS'BAG,'
p846
aS'(yes,'
p847
aS'you'
p848
aS'read'
p849
aS'right'
p850
ag133
aS'BAG,'
p851
aS'something'
p852
ag133
aS'boy'
p853
aS'would'
p854
aS'carry'
p855
aS'ten'
p856
aS'marbles'
p857
aS'in)'
p858
aS'and'
p859
aS'tries'
p860
aS'to'
p861
aS'pass'
p862
aS'it'
p863
aS'off'
p864
aS'as'
p865
aS'the'
p866
aS'case.'
p867
ag44
tp868
a((lp869
S'If'
p870
aS'you'
p871
aS'want'
p872
aS'to'
p873
aS'purchase'
p874
ag133
aS'real'
p875
aS'case'
p876
aS'or'
p877
aS'container'
p878
aS'or'
p879
aS'clip-on'
p880
aS'carrier'
p881
aS'for'
p882
aS'you'
p883
aS'Zen'
p884
aS'Micro,'
p885
aS'expect'
p886
aS'to'
p887
aS'purchase'
p888
aS'it'
p889
aS'separately'
p890
aS'and'
p891
aS'to'
p892
aS'dish'
p893
aS'out'
p894
aS'big'
p895
aS'time.'
p896
ag535
ag44
tp897
a((lp898
S'4.'
p899
ag23
tp900
a((lp901
g541
aS'One'
p902
aS'outstanding'
p903
aS'positive'
p904
aS'feature'
p905
aS'is'
p906
aS'the'
p907
aS'battery.'
p908
aS'It'
p909
aS'holds'
p910
ag133
aS'charge'
p911
aS'for'
p912
ag133
aS'long'
p913
aS'time,'
p914
aS'longer'
p915
aS'than'
p916
aS'most'
p917
aS'other'
p918
aS'similar'
p919
aS'products'
p920
aS'and'
p921
aS'the'
p922
aS'user'
p923
aS'can'
p924
aS'replace'
p925
aS'it'
p926
aS'easily'
p927
aS'or'
p928
aS'take'
p929
aS'another'
p930
aS'along'
p931
aS'as'
p932
ag133
aS'backup.'
p933
ag198
tp934
a((lp935
S'Some'
p936
aS'other'
p937
aS'companies'
p938
aS'require'
p939
aS'you'
p940
aS'to'
p941
aS'send'
p942
aS'your'
p943
aS'player'
p944
aS'back'
p945
aS'and'
p946
aS'then'
p947
aS'charge'
p948
aS'you'
p949
aS'an'
p950
aS'additional'
p951
aS'$130'
p952
aS'to'
p953
aS'replace'
p954
aS'their'
p955
aS'batteries.'
p956
ag23
tp957
a((lp958
S'Creative'
p959
aS'did'
p960
aS'well'
p961
aS'on'
p962
aS'its'
p963
aS'rechargeable'
p964
aS'battery'
p965
aS'feature.'
p966
ag535
ag198
tp967
a((lp968
S'5.'
p969
ag23
tp970
a((lp971
g541
ag37
aS'purchased'
p972
aS'this'
p973
aS'device'
p974
aS'primarily'
p975
aS'to'
p976
aS'record'
p977
aS'off'
p978
aS'the'
p979
aS'built-in'
p980
aS'FM'
p981
aS'receiver'
p982
aS'for'
p983
aS'lectures'
p984
aS'and'
p985
aS'seminars'
p986
aS'that'
p987
aS'are'
p988
aS'broadcast'
p989
aS'live'
p990
aS'over'
p991
ag133
aS'FM'
p992
aS'signal'
p993
aS'for'
p994
aS'the'
p995
aS'hearing'
p996
aS'impaired.'
p997
ag23
tp998
a((lp999
S'The'
p1000
aS'Zen'
p1001
aS'Micro'
p1002
aS'FM'
p1003
aS'receiver'
p1004
aS'is'
p1005
aS'ok,'
p1006
aS'not'
p1007
aS'great.'
p1008
ag198
tp1009
a((lp1010
S'IRiver'
p1011
aS'has'
p1012
ag133
aS'better'
p1013
aS'FM'
p1014
aS'receiver'
p1015
aS'built'
p1016
aS'in,'
p1017
aS'but'
p1018
aS'the'
p1019
aS'drawback'
p1020
aS'to'
p1021
aS'IRiver'
p1022
aS'products'
p1023
aS'is'
p1024
aS'they'
p1025
aS'are'
p1026
aS'flimsy'
p1027
aS'and'
p1028
aS'poorly'
p1029
aS'constructed.'
p1030
ag23
tp1031
a((lp1032
g37
aS'have'
p1033
aS'gone'
p1034
aS'through'
p1035
aS'two'
p1036
aS'of'
p1037
aS'them'
p1038
aS'in'
p1039
aS'two'
p1040
aS'years.'
p1041
ag535
ag23
tp1042
a((lp1043
S'6.'
p1044
ag23
tp1045
a((lp1046
g541
aS'The'
p1047
aS'Zen'
p1048
aS'Micro'
p1049
aS'appears'
p1050
aS'sturdy'
p1051
aS'and'
p1052
aS'well'
p1053
aS'constructed,'
p1054
aS'hefty,'
p1055
aS'if'
p1056
aS'you'
p1057
aS'will,'
p1058
aS'far'
p1059
aS'better'
p1060
aS'than'
p1061
aS'many'
p1062
aS'of'
p1063
aS'its'
p1064
aS'competitors.'
p1065
ag535
ag198
tp1066
a((lp1067
S'As'
p1068
ag37
aS'wrote,'
p1069
aS'this'
p1070
aS'COULD'
p1071
aS'have'
p1072
aS'been'
p1073
ag133
aS'great'
p1074
aS'product,'
p1075
aS'but'
p1076
aS'expect'
p1077
aS'hidden'
p1078
aS'charges'
p1079
aS'(read'
p1080
aS'gross'
p1081
aS'profiteering'
p1082
aS'and'
p1083
aS'price'
p1084
aS'gouging)'
p1085
aS'as'
p1086
aS'the'
p1087
aS'company'
p1088
aS'royally'
p1089
aS'sticks'
p1090
aS'you'
p1091
aS'on'
p1092
aS'every'
p1093
aS'conceivable'
p1094
aS'accessory'
p1095
aS'necessary'
p1096
aS'for'
p1097
aS'normal'
p1098
aS'daily'
p1099
aS'usage.'
p1100
ag44
tp1101
a((lp1102
S'Well,'
p1103
ag37
aS'have'
p1104
aS'an'
p1105
aS'Ipod'
p1106
aS'mini'
p1107
aS'-'
p1108
aS'and'
p1109
ag37
aS'really'
p1110
aS'like'
p1111
aS'it,'
p1112
aS'but'
p1113
aS'all'
p1114
aS'in'
p1115
aS'all,'
p1116
ag37
aS'like'
p1117
aS'the'
p1118
aS'Zen'
p1119
aS'Micro'
p1120
aS'more.'
p1121
ag198
tp1122
a((lp1123
S'Why?'
p1124
ag23
tp1125
a((lp1126
S'Smaller'
p1127
aS'size,'
p1128
aS'1'
p1129
aS'gb'
p1130
aS'of'
p1131
aS'more'
p1132
aS'space,'
p1133
aS'radio,'
p1134
aS'voice'
p1135
aS'recording,'
p1136
aS'removable'
p1137
aS'battery,'
p1138
aS'cooler'
p1139
aS'look,'
p1140
aS'all'
p1141
aS'in'
p1142
aS'one.'
p1143
ag198
tp1144
a((lp1145
S'The'
p1146
aS'touchpad'
p1147
aS'is'
p1148
aS'annoying'
p1149
aS'sometimes'
p1150
aS'(give'
p1151
aS'me'
p1152
aS'the'
p1153
aS'click-wheel'
p1154
aS'and'
p1155
aS'pressable'
p1156
aS'buttons'
p1157
aS'any'
p1158
aS'day),'
p1159
aS'but'
p1160
aS'not'
p1161
aS'at'
p1162
aS'all'
p1163
aS'as'
p1164
aS'difficult'
p1165
aS'to'
p1166
aS'get'
p1167
aS'over'
p1168
aS'as'
p1169
aS'other'
p1170
aS'people'
p1171
aS'are'
p1172
aS'saying.'
p1173
ag44
tp1174
a((lp1175
g37
aS'love'
p1176
aS'how'
p1177
aS'small'
p1178
aS'the'
p1179
aS'thing'
p1180
aS'is,'
p1181
aS'and'
p1182
aS'the'
p1183
aS'blue'
p1184
aS'glow'
p1185
ag1108
aS"I've"
p1186
aS'had'
p1187
aS'it'
p1188
aS'for'
p1189
aS'two'
p1190
aS'weeks'
p1191
aS'with'
p1192
aS'no'
p1193
aS'electronic'
p1194
aS'problems'
p1195
aS'at'
p1196
aS'all.'
p1197
ag198
tp1198
a((lp1199
S'Creative'
p1200
aS'Media'
p1201
aS'Source'
p1202
aS'is'
p1203
aS'very'
p1204
aS'easy'
p1205
aS'to'
p1206
aS'use'
p1207
aS'once'
p1208
aS'you'
p1209
aS'get'
p1210
aS'the'
p1211
aS'hang'
p1212
aS'of'
p1213
aS'it,'
p1214
aS'and'
p1215
aS'the'
p1216
aS'file'
p1217
aS'transfers'
p1218
aS'are'
p1219
aS'fast.'
p1220
ag198
tp1221
a((lp1222
S'Sound'
p1223
aS'quality'
p1224
aS'is'
p1225
aS'great,'
p1226
aS'fm'
p1227
aS'tuner'
p1228
aS'is'
p1229
aS'fine,'
p1230
aS'as'
p1231
aS'is'
p1232
aS'the'
p1233
aS'recorder.'
p1234
ag198
tp1235
a((lp1236
S'This'
p1237
aS'is'
p1238
aS'the'
p1239
aS'mp3'
p1240
aS'player'
p1241
aS'with'
p1242
aS'everything'
p1243
ag37
aS'need.'
p1244
aS'As'
p1245
aS'long'
p1246
aS'as'
p1247
aS'it'
p1248
aS'lasts'
p1249
aS'me'
p1250
ag133
aS'good'
p1251
aS'three'
p1252
aS'years,'
p1253
aS"I'm"
p1254
aS'satisfied.'
p1255
ag198
tp1256
a((lp1257
g37
aS'am'
p1258
aS'one'
p1259
aS'of'
p1260
aS'the'
p1261
aS'many'
p1262
aS'people'
p1263
aS'who'
p1264
aS'(a)'
p1265
aS'are'
p1266
aS'PC'
p1267
aS'Based'
p1268
aS'and'
p1269
aS'(b)'
p1270
aS"can't"
p1271
aS'stand'
p1272
aS'to'
p1273
aS'see'
p1274
aS'the'
p1275
aS'multitudes'
p1276
aS'of'
p1277
aS'people'
p1278
aS'with'
p1279
aS'those'
p1280
aS'funky'
p1281
aS'white'
p1282
aS'headphones'
p1283
aS'that'
p1284
aS'belong'
p1285
aS'to'
p1286
aS'Ipod'
p1287
aS'users.'
p1288
aS'##I'
p1289
aS'first'
p1290
aS'want'
p1291
aS'to'
p1292
aS'say'
p1293
aS'that'
p1294
ag37
aS'think'
p1295
aS'Apple'
p1296
aS'is'
p1297
aS'making'
p1298
aS'the'
p1299
aS'same'
p1300
aS'old'
p1301
aS'mistake'
p1302
aS'as'
p1303
aS'they'
p1304
aS'did'
p1305
aS'with'
p1306
aS'Macintosh'
p1307
aS'years'
p1308
aS'ago.'
p1309
ag23
tp1310
a((lp1311
S'This'
p1312
aS'proprietory'
p1313
aS'software'
p1314
aS'to'
p1315
aS'download.'
p1316
ag23
tp1317
a((lp1318
S'(That'
p1319
aS'was'
p1320
ag133
aS'major'
p1321
aS'turn'
p1322
aS'off).'
p1323
ag23
tp1324
a((lp1325
g37
aS'am'
p1326
aS'the'
p1327
aS'type'
p1328
aS'of'
p1329
aS'person'
p1330
aS'that'
p1331
aS'will'
p1332
aS'always'
p1333
aS'go'
p1334
aS'against'
p1335
aS'the'
p1336
aS'masses'
p1337
aS'of'
p1338
aS'blind'
p1339
aS'followers'
p1340
aS'so'
p1341
aS'there'
p1342
aS'was'
p1343
aS'no'
p1344
aS'way'
p1345
ag37
aS'was'
p1346
aS'getting'
p1347
aS'an'
p1348
aS'Ipod.'
p1349
ag23
tp1350
a((lp1351
S'Also'
p1352
aS'If'
p1353
aS'you'
p1354
aS'want'
p1355
ag133
aS'device'
p1356
aS'that'
p1357
aS'does'
p1358
aS'soo'
p1359
aS'much'
p1360
aS'more'
p1361
aS'than'
p1362
aS'the'
p1363
aS'Ipod'
p1364
aS'mini'
p1365
aS'but'
p1366
aS'is'
p1367
aS'at'
p1368
aS'the'
p1369
aS'same'
p1370
aS'price,'
p1371
aS'this'
p1372
aS'is'
p1373
aS'the'
p1374
aS'player'
p1375
aS'for'
p1376
aS'you.'
p1377
ag198
tp1378
a((lp1379
S'The'
p1380
aS'reason'
p1381
aS'why'
p1382
ag37
aS"didn't"
p1383
aS'give'
p1384
aS'the'
p1385
aS'Zen'
p1386
aS'Micro'
p1387
aS'5'
p1388
aS'stars'
p1389
aS'is'
p1390
aS'that'
p1391
aS'they'
p1392
aS'also'
p1393
aS'seem'
p1394
aS'to'
p1395
aS'want'
p1396
aS'to'
p1397
aS'conform'
p1398
aS'the'
p1399
aS'the'
p1400
aS'Ipod'
p1401
aS'sense'
p1402
aS'of'
p1403
aS'style.'
p1404
ag23
tp1405
a((lp1406
S'and'
p1407
aS'supply'
p1408
aS'those'
p1409
aS'stupid'
p1410
aS'white'
p1411
aS'Headphones.'
p1412
ag44
tp1413
a((lp1414
g37
aS'also'
p1415
aS'think'
p1416
aS'that'
p1417
aS'if'
p1418
aS'you'
p1419
aS'are'
p1420
aS'going'
p1421
aS'to'
p1422
aS'offer'
p1423
aS'them'
p1424
aS'in'
p1425
aS'different'
p1426
aS'colors'
p1427
aS'then'
p1428
aS'commit'
p1429
aS'all'
p1430
aS'the'
p1431
aS'way'
p1432
aS'and'
p1433
aS'have'
p1434
aS'the'
p1435
aS'entire'
p1436
aS'device'
p1437
aS'in'
p1438
aS'that'
p1439
aS'color,'
p1440
aS'not'
p1441
aS'just'
p1442
aS'the'
p1443
aS'front'
p1444
aS'and'
p1445
aS'color'
p1446
aS'the'
p1447
aS'head'
p1448
aS'phones'
p1449
aS'as'
p1450
aS'well.'
p1451
ag23
tp1452
a((lp1453
S"Let's"
p1454
aS'face'
p1455
aS'it.'
p1456
ag23
tp1457
a((lp1458
S'Apple'
p1459
aS'is'
p1460
aS'Apple.'
p1461
ag23
tp1462
a((lp1463
S'So'
p1464
aS'Creative'
p1465
aS'should'
p1466
aS'be'
p1467
aS'"Creative".'
p1468
ag23
tp1469
a((lp1470
S"I've"
p1471
aS'been'
p1472
aS'looking'
p1473
aS'for'
p1474
ag133
aS'portable'
p1475
aS'MP3'
p1476
aS'player'
p1477
aS'for'
p1478
aS'awhile'
p1479
aS'now.'
p1480
ag23
tp1481
a((lp1482
S'With'
p1483
aS'so'
p1484
aS'many'
p1485
aS'choices'
p1486
aS'it'
p1487
aS'was'
p1488
ag133
aS'tough'
p1489
aS'decision.'
p1490
ag23
tp1491
a((lp1492
S'My'
p1493
aS'first'
p1494
aS'instinct'
p1495
aS'was'
p1496
aS'to'
p1497
aS'go'
p1498
aS'with'
p1499
aS'an'
p1500
aS'iPod.'
p1501
ag23
tp1502
a((lp1503
g37
aS'visited'
p1504
aS'quite'
p1505
ag133
aS'few'
p1506
aS'forums'
p1507
aS'and'
p1508
aS'while'
p1509
aS'the'
p1510
aS'iPod'
p1511
aS'is'
p1512
ag133
aS'great'
p1513
aS'player'
p1514
ag37
aS'was'
p1515
aS'concerned'
p1516
aS'with'
p1517
aS'the'
p1518
aS'battery'
p1519
aS'life'
p1520
aS'and'
p1521
aS'the'
p1522
aS'inability'
p1523
aS'to'
p1524
aS'change'
p1525
aS'them'
p1526
aS'without'
p1527
aS'breaking'
p1528
aS'open'
p1529
aS'the'
p1530
aS'case.'
p1531
ag23
tp1532
a((lp1533
g37
aS'started'
p1534
aS'looking'
p1535
aS'at'
p1536
aS'the'
p1537
aS'Creative'
p1538
aS'Zen'
p1539
aS'Micro'
p1540
aS'and'
p1541
aS'after'
p1542
aS'reading'
p1543
aS'numerous'
p1544
aS'reviews'
p1545
aS'from'
p1546
aS'message'
p1547
aS'boards'
p1548
aS'and'
p1549
aS'magazines'
p1550
ag37
aS'decided'
p1551
aS"I'd"
p1552
aS'give'
p1553
aS'the'
p1554
aS'Zen'
p1555
ag133
aS'try.'
p1556
ag23
tp1557
a((lp1558
S'All'
p1559
ag37
aS'can'
p1560
aS'say'
p1561
aS'is'
p1562
aS'what'
p1563
ag133
aS'wonderful'
p1564
aS'choice!'
p1565
ag23
tp1566
a((lp1567
g37
aS'ordered'
p1568
aS'from'
p1569
aS'Amazon'
p1570
aS'and'
p1571
aS'got'
p1572
aS'the'
p1573
aS'Limited'
p1574
aS'Edition'
p1575
aS'package'
p1576
aS'that'
p1577
aS'includes'
p1578
ag133
aS'free'
p1579
aS'battery!'
p1580
ag23
tp1581
a((lp1582
S'Upon'
p1583
aS'opening'
p1584
aS'the'
p1585
aS'box'
p1586
ag37
aS'was'
p1587
aS'confronted'
p1588
aS'with'
p1589
aS'this'
p1590
aS'small'
p1591
aS'cute'
p1592
aS'little'
p1593
aS'MP3'
p1594
aS'player.'
p1595
ag198
tp1596
a((lp1597
g37
aS'popped'
p1598
aS'one'
p1599
aS'of'
p1600
aS'the'
p1601
aS'batteries'
p1602
aS'in'
p1603
aS'and'
p1604
aS'to'
p1605
aS'my'
p1606
aS'surprised'
p1607
aS'it'
p1608
aS'started'
p1609
aS'right'
p1610
aS'up.'
p1611
ag23
tp1612
a((lp1613
S'The'
p1614
aS'software'
p1615
aS'included'
p1616
aS'is'
p1617
aS'an'
p1618
aS'easy'
p1619
aS'installation'
p1620
aS'and'
p1621
aS'you'
p1622
aS'have'
p1623
aS'the'
p1624
aS'option'
p1625
aS'of'
p1626
aS'using'
p1627
aS'the'
p1628
aS'Creative'
p1629
aS'software,'
p1630
aS'Windows'
p1631
aS'Media'
p1632
aS'Player'
p1633
aS'10,'
p1634
aS'or'
p1635
aS'simply'
p1636
aS'Windows'
p1637
aS'Explorer'
p1638
aS'to'
p1639
aS'move'
p1640
aS'music'
p1641
aS'back'
p1642
aS'and'
p1643
aS'forth'
p1644
aS'between'
p1645
aS'your'
p1646
aS'Zen'
p1647
aS'Touch.'
p1648
ag198
tp1649
a((lp1650
g37
aS'did'
p1651
ag133
aS'quick'
p1652
aS'test'
p1653
aS'by'
p1654
aS'selecting'
p1655
ag133
aS'few'
p1656
aS'files'
p1657
aS'and'
p1658
aS'copying'
p1659
aS'them'
p1660
aS'over'
p1661
aS'and'
p1662
aS'they'
p1663
aS'loaded'
p1664
aS'right'
p1665
aS'in.'
p1666
ag23
tp1667
a((lp1668
S'Pressed'
p1669
aS'play'
p1670
aS'and'
p1671
ag37
aS'was'
p1672
aS'off.'
p1673
ag23
tp1674
a((lp1675
S'The'
p1676
aS'touch'
p1677
aS'pad'
p1678
aS'does'
p1679
aS'take'
p1680
ag133
aS'little'
p1681
aS'getting'
p1682
aS'used'
p1683
aS'to.'
p1684
ag44
tp1685
a((lp1686
S"I'm"
p1687
aS'still'
p1688
aS'trying'
p1689
aS'to'
p1690
aS'manage'
p1691
aS'the'
p1692
aS'thing'
p1693
aS'myself,'
p1694
aS'but'
p1695
aS"I've"
p1696
aS'found'
p1697
aS'that'
p1698
aS'if'
p1699
aS'you'
p1700
aS'put'
p1701
aS'the'
p1702
aS'sensitivity'
p1703
aS'to'
p1704
aS'low'
p1705
aS'it'
p1706
aS'is'
p1707
aS'fine.'
p1708
ag23
tp1709
a((lp1710
S'The'
p1711
aS'package'
p1712
aS'also'
p1713
aS'comes'
p1714
aS'with'
p1715
ag133
aS'USB'
p1716
aS'cable,'
p1717
aS'an'
p1718
aS'AC'
p1719
aS'adapter,'
p1720
ag133
aS'pair'
p1721
aS'of'
p1722
aS'headphones'
p1723
aS"(they're"
p1724
aS'okay'
p1725
aS'until'
p1726
aS'you'
p1727
aS'get'
p1728
ag133
aS'better'
p1729
aS'pair),'
p1730
ag133
aS'stand,'
p1731
aS'and'
p1732
ag133
aS'microfiber'
p1733
aS'pouch'
p1734
aS'to'
p1735
aS'carry'
p1736
aS'your'
p1737
aS'Zen'
p1738
aS'Touch'
p1739
aS'in.'
p1740
ag198
tp1741
a((lp1742
S'Overall'
p1743
aS"I'm"
p1744
aS'incredibly'
p1745
aS'impressed'
p1746
aS'with'
p1747
aS'my'
p1748
aS'new'
p1749
aS'Zen'
p1750
aS'Touch.'
p1751
ag198
tp1752
a((lp1753
S"It's"
p1754
aS'cute'
p1755
aS'as'
p1756
aS'anything'
p1757
aS'and'
p1758
aS'the'
p1759
aS'glowing'
p1760
aS'blue'
p1761
aS'LED'
p1762
aS'looks'
p1763
aS'super'
p1764
aS'cool'
p1765
aS'around'
p1766
aS'the'
p1767
aS'edges.'
p1768
ag198
tp1769
a((lp1770
S'For'
p1771
aS'the'
p1772
aS'price'
p1773
ag37
aS'think'
p1774
aS'this'
p1775
aS'is'
p1776
ag133
aS'remarkably'
p1777
aS'fun'
p1778
aS'MP3'
p1779
aS'player.'
p1780
ag198
tp1781
a((lp1782
S'Enjoy!'
p1783
ag23
tp1784
a((lp1785
S"I've"
p1786
aS'had'
p1787
aS'this'
p1788
aS'player'
p1789
aS'for'
p1790
aS'more'
p1791
aS'than'
p1792
aS'4'
p1793
aS'months'
p1794
aS'and'
p1795
aS"I'm"
p1796
aS'very'
p1797
aS'happy'
p1798
aS'with'
p1799
aS'it.'
p1800
ag198
tp1801
a((lp1802
g37
aS'use'
p1803
aS'it'
p1804
aS'on'
p1805
aS'an'
p1806
aS'average'
p1807
ag1388
aS'hours'
p1808
ag133
aS'day'
p1809
ag37
aS'hook'
p1810
aS'it'
p1811
aS'up'
p1812
aS'to'
p1813
aS'my'
p1814
aS'Belkin'
p1815
aS'FM'
p1816
aS'transmitter'
p1817
aS'in'
p1818
aS'the'
p1819
aS'car'
p1820
aS'or'
p1821
aS'to'
p1822
aS'my'
p1823
aS'Logitech'
p1824
aS'2.'
p1825
ag23
tp1826
a((lp1827
g1129
aS'Speakers'
p1828
aS'at'
p1829
aS'home,'
p1830
ag37
aS'rarely'
p1831
aS'use'
p1832
aS'it'
p1833
aS'with'
p1834
aS'the'
p1835
aS'earbuds,'
p1836
aS'though'
p1837
aS'they'
p1838
aS'are'
p1839
aS'much'
p1840
aS'better'
p1841
aS'than'
p1842
aS'the'
p1843
aS'ones'
p1844
aS'you'
p1845
aS'normally'
p1846
aS'get'
p1847
aS'with'
p1848
aS'other'
p1849
aS'mp3'
p1850
aS'players.'
p1851
ag198
tp1852
a((lp1853
S'The'
p1854
aS'Look'
p1855
aS'&'
p1856
aS'Feel:'
p1857
ag37
aS'have'
p1858
aS'the'
p1859
aS'black'
p1860
aS'one'
p1861
aS'and'
p1862
aS'the'
p1863
aS'contrasting'
p1864
aS'neon'
p1865
aS'blue'
p1866
aS'on'
p1867
aS'the'
p1868
aS'buttons'
p1869
aS'add'
p1870
ag133
aS'very'
p1871
aS'nice'
p1872
aS'ambience.'
p1873
ag198
tp1874
a((lp1875
S'The'
p1876
aS'light'
p1877
aS'pulsates'
p1878
aS'when'
p1879
aS'you'
p1880
aS'are'
p1881
aS'charging'
p1882
aS'it'
p1883
aS'almost'
p1884
aS'as'
p1885
aS'if'
p1886
aS'it'
p1887
aS'were'
p1888
aS'breathing.'
p1889
ag23
tp1890
a((lp1891
S'The'
p1892
aS'player'
p1893
aS'itself'
p1894
aS'is'
p1895
aS'tiny'
p1896
aS','
p1897
aS'it'
p1898
aS'gets'
p1899
ag133
aS'bit'
p1900
aS'bulky'
p1901
aS'when'
p1902
aS'you'
p1903
aS'put'
p1904
aS'it'
p1905
aS'in'
p1906
aS'the'
p1907
aS'hardcase,'
p1908
aS'which'
p1909
aS'you'
p1910
aS'need'
p1911
aS'to'
p1912
aS'do'
p1913
aS'if'
p1914
aS'you'
p1915
aS"don't"
p1916
aS'want'
p1917
aS'to'
p1918
aS'get'
p1919
aS'scrathes'
p1920
aS'on'
p1921
aS'the'
p1922
aS'back(its'
p1923
ag133
aS'nice'
p1924
aS'looking'
p1925
aS'back'
p1926
aS'too'
p1927
aS').'
p1928
ag23
tp1929
a((lp1930
S'It'
p1931
aS'feels'
p1932
aS'tiny'
p1933
aS'in'
p1934
aS'the'
p1935
aS'hand'
p1936
aS'without'
p1937
aS'it.'
p1938
ag198
tp1939
a((lp1940
S'The'
p1941
aS'stand'
p1942
aS'that'
p1943
aS'comes'
p1944
aS'with'
p1945
aS'it'
p1946
aS'is'
p1947
aS'very'
p1948
aS'useful'
p1949
aS'to'
p1950
aS'prop'
p1951
aS'it'
p1952
aS'up'
p1953
aS'on'
p1954
aS'the'
p1955
aS'desk.'
p1956
ag198
tp1957
a((lp1958
S'The'
p1959
aS'belt'
p1960
aS'clip'
p1961
aS'however'
p1962
aS'is'
p1963
aS'not'
p1964
aS'very'
p1965
aS'useful'
p1966
aS'if'
p1967
aS'you'
p1968
aS'move'
p1969
aS'around'
p1970
ag133
aS'lot.'
p1971
ag23
tp1972
a((lp1973
S'The'
p1974
aS'blue'
p1975
aS'backlit'
p1976
aS'LCD'
p1977
aS'looks'
p1978
aS'really'
p1979
aS'neat'
p1980
aS'and'
p1981
aS'is'
p1982
aS'easy'
p1983
aS'to'
p1984
aS'read.'
p1985
ag198
tp1986
a((lp1987
S'The'
p1988
aS'touch'
p1989
aS'controls'
p1990
aS'took'
p1991
ag133
aS'little'
p1992
aS'getting'
p1993
aS'used'
p1994
aS'to'
p1995
aS'but'
p1996
aS'now'
p1997
ag37
aS"wouldn't"
p1998
aS'change'
p1999
aS'it'
p2000
aS'for'
p2001
aS'the'
p2002
aS'scroll'
p2003
aS'wheel.'
p2004
ag44
tp2005
a((lp2006
S'The'
p2007
aS'touch'
p2008
aS'buttons'
p2009
aS'are'
p2010
aS'textured'
p2011
aS'so'
p2012
aS'that'
p2013
aS'your'
p2014
aS'finger'
p2015
aS"sdon't"
p2016
aS'slip'
p2017
aS'which'
p2018
aS'was'
p2019
aS'very'
p2020
aS'thoughtful.'
p2021
ag198
tp2022
a((lp2023
S'Reliability'
p2024
ag1856
aS'Build'
p2025
ag37
aS'dropped'
p2026
aS'the'
p2027
aS'player'
p2028
aS'once'
p2029
aS'from'
p2030
aS'about'
p2031
ag1793
aS'ft,'
p2032
aS'and'
p2033
aS'it'
p2034
aS'fell'
p2035
aS'hard,'
p2036
aS'but'
p2037
aS'kept'
p2038
aS'on'
p2039
aS'playing.'
p2040
ag198
tp2041
a((lp2042
S'The'
p2043
aS'hardcase'
p2044
aS'they'
p2045
aS'give'
p2046
aS'with'
p2047
aS'it'
p2048
aS'must'
p2049
aS'work'
p2050
aS'well.'
p2051
ag198
tp2052
a((lp2053
S'It'
p2054
aS'feels'
p2055
aS'solid'
p2056
aS'and'
p2057
aS'not'
p2058
aS'flimsy'
p2059
aS'like'
p2060
aS'the'
p2061
aS'carbon.'
p2062
ag198
tp2063
a((lp2064
S'Sound'
p2065
aS"I'm"
p2066
aS'no'
p2067
aS'audiophile'
p2068
aS'but'
p2069
ag37
aS'was'
p2070
aS'amazed'
p2071
aS'by'
p2072
aS'the'
p2073
aS'clarity'
p2074
aS'the'
p2075
aS'player'
p2076
aS'had,'
p2077
aS'it'
p2078
aS'was'
p2079
aS'much'
p2080
aS'better'
p2081
aS'than'
p2082
aS'the'
p2083
aS'sound'
p2084
aS'card'
p2085
aS'on'
p2086
aS'my'
p2087
aS'Computer'
p2088
aS'and'
p2089
aS'louder'
p2090
aS'too.'
p2091
ag198
tp2092
a((lp2093
g37
aS'have'
p2094
aS'had'
p2095
aS'the'
p2096
aS'ipod'
p2097
aS'mini'
p2098
aS'and'
p2099
aS'it'
p2100
aS'performs'
p2101
aS'on'
p2102
aS'the'
p2103
aS'level'
p2104
aS'with'
p2105
aS'my'
p2106
aS'sound'
p2107
aS'card'
p2108
aS'but'
p2109
aS'the'
p2110
aS'micro'
p2111
aS'beats'
p2112
aS'it'
p2113
aS'outright.'
p2114
ag198
tp2115
a((lp2116
S'Best'
p2117
aS'of'
p2118
aS'all'
p2119
aS'the'
p2120
aS'WMAs(I'
p2121
aS'have'
p2122
ag133
aS'lot'
p2123
aS'of'
p2124
aS'them)'
p2125
aS'sound'
p2126
aS'great.'
p2127
ag198
tp2128
a((lp2129
S'Utility'
p2130
aS'Its'
p2131
aS'got'
p2132
ag133
aS'huge'
p2133
aS'list'
p2134
aS'of'
p2135
aS'features'
p2136
aS'including'
p2137
aS'an'
p2138
aS'FM'
p2139
aS'Recorder'
p2140
ag133
aS'Calender'
p2141
aS'and'
p2142
aS'contacts'
p2143
aS'list.'
p2144
ag198
tp2145
a((lp2146
S'Its'
p2147
aS'not'
p2148
aS'convinient'
p2149
aS'to'
p2150
aS'enter'
p2151
aS'name'
p2152
aS'of'
p2153
aS'course'
p2154
aS'but'
p2155
aS'synchronise'
p2156
aS'it'
p2157
aS'with'
p2158
aS'outlook'
p2159
aS'and'
p2160
aS'it'
p2161
aS'becomes'
p2162
ag133
aS'gem'
p2163
aS'of'
p2164
ag133
aS'address'
p2165
aS'book.'
p2166
ag23
tp2167
a((lp2168
S'The'
p2169
aS'songs'
p2170
aS'recorded'
p2171
aS'with'
p2172
aS'FM'
p2173
aS'are'
p2174
aS'as'
p2175
aS'good'
p2176
aS'as'
p2177
aS'the'
p2178
aS'original'
p2179
aS'signal.'
p2180
ag198
tp2181
a((lp2182
S'The'
p2183
aS'interface'
p2184
aS'takes'
p2185
aS'2'
p2186
aS'secs'
p2187
aS'after'
p2188
aS'you'
p2189
aS'press'
p2190
aS'record'
p2191
aS'to'
p2192
aS'show'
p2193
aS'up'
p2194
aS'but'
p2195
aS'its'
p2196
aS'actually'
p2197
aS'started'
p2198
aS'recording'
p2199
aS'at'
p2200
aS'the'
p2201
aS'moment'
p2202
aS'you'
p2203
aS'press'
p2204
aS'record.'
p2205
ag23
tp2206
a((lp2207
S'Software'
p2208
aS'The'
p2209
aS'software'
p2210
aS'that'
p2211
aS'comes'
p2212
aS'along'
p2213
aS'with'
p2214
aS'it'
p2215
aS'is'
p2216
aS'not'
p2217
aS'very'
p2218
aS'intuitive'
p2219
aS'but'
p2220
aS'once'
p2221
aS'you'
p2222
aS'are'
p2223
aS'used'
p2224
aS'to'
p2225
aS'it,it'
p2226
aS'does'
p2227
aS'the'
p2228
aS'job'
p2229
aS'well.'
p2230
ag44
tp2231
a((lp2232
S'Creating'
p2233
aS'and'
p2234
aS'modifying'
p2235
aS'playlists'
p2236
aS'is'
p2237
aS'easy'
p2238
aS'and'
p2239
aS'clean.'
p2240
ag198
tp2241
a((lp2242
S'There'
p2243
aS'are'
p2244
ag2186
aS'things'
p2245
aS'that'
p2246
aS'need'
p2247
aS'fixing'
p2248
aS'First'
p2249
aS'is'
p2250
aS'the'
p2251
aS'battery'
p2252
aS'life.'
p2253
aS'It'
p2254
aS'will'
p2255
aS'run'
p2256
aS'for'
p2257
aS'6'
p2258
aS'hrs'
p2259
aS'without'
p2260
aS'problems'
p2261
aS'with'
p2262
aS'medium'
p2263
aS'usage'
p2264
aS'of'
p2265
aS'the'
p2266
aS'buttons.'
p2267
ag44
tp2268
a((lp2269
S'Second'
p2270
aS'might'
p2271
aS'be'
p2272
ag133
aS'problem'
p2273
ag37
aS'might'
p2274
aS'have'
p2275
aS'with'
p2276
aS'my'
p2277
aS'PC'
p2278
aS'but'
p2279
aS'not'
p2280
aS'too'
p2281
aS'sure,'
p2282
aS'when'
p2283
aS'the'
p2284
aS'player'
p2285
aS'is'
p2286
aS'connected'
p2287
aS'on'
p2288
aS'the'
p2289
aS'USB'
p2290
aS'and'
p2291
ag37
aS'start'
p2292
aS'playing'
p2293
aS'on'
p2294
aS'it'
p2295
aS'and'
p2296
aS'also'
p2297
aS'using'
p2298
aS'the'
p2299
aS'windows'
p2300
aS'explorer,'
p2301
aS'it'
p2302
aS'sometimes'
p2303
aS'pauses'
p2304
aS'by'
p2305
aS'itself'
p2306
aS'and'
p2307
aS'tries'
p2308
aS'to'
p2309
aS'synchronise'
p2310
aS'with'
p2311
aS'the'
p2312
aS'PC'
p2313
aS'during'
p2314
aS'play,'
p2315
aS'which'
p2316
aS'is'
p2317
ag133
aS'bit'
p2318
aS'irritating.'
p2319
ag44
tp2320
a((lp2321
g37
aS'think'
p2322
aS'that'
p2323
aS'for'
p2324
aS'its'
p2325
aS'price'
p2326
aS'compared'
p2327
aS'to'
p2328
aS'the'
p2329
aS'ipod'
p2330
aS'the'
p2331
aS'creative'
p2332
aS'zen'
p2333
aS'is'
p2334
aS'pretty'
p2335
aS'good.'
p2336
ag198
tp2337
a((lp2338
g276
aS'have'
p2339
ag133
aS'lot'
p2340
aS'of'
p2341
aS'files'
p2342
aS'in'
p2343
aS'wma'
p2344
aS'so'
p2345
aS'that'
p2346
aS'was'
p2347
aS'the'
p2348
aS'biggest'
p2349
aS'factor'
p2350
aS'in'
p2351
aS'my'
p2352
aS'decision'
p2353
aS'to'
p2354
aS'purchase'
p2355
aS'the'
p2356
aS'zen.'
p2357
ag23
tp2358
a((lp2359
S'HOWEVER'
p2360
aS'after'
p2361
aS'just'
p2362
aS'one'
p2363
aS'month'
p2364
aS'my'
p2365
aS'headphone'
p2366
aS'jack'
p2367
aS'was'
p2368
aS'BROKEN'
p2369
aS'as'
p2370
ag133
aS'result'
p2371
aS'of'
p2372
aS'normal,'
p2373
aS'every-day'
p2374
aS'use.'
p2375
ag44
tp2376
a((lp2377
S'by'
p2378
aS'broken'
p2379
ag276
aS'mean'
p2380
aS'that'
p2381
aS'it'
p2382
aS'would'
p2383
aS'no'
p2384
aS'longer'
p2385
aS'transmit'
p2386
aS'sound.'
p2387
ag23
tp2388
a((lp2389
S'The'
p2390
aS'good'
p2391
aS'news'
p2392
aS'is'
p2393
aS'that'
p2394
aS'the'
p2395
aS'creative'
p2396
aS'support'
p2397
aS'is'
p2398
aS'very'
p2399
aS'responsive'
p2400
aS'and'
p2401
aS'after'
p2402
aS'some'
p2403
aS'emails'
p2404
aS'and'
p2405
aS'postal'
p2406
aS'exchanges,'
p2407
ag276
aS'had'
p2408
ag133
aS'new'
p2409
aS'zen.'
p2410
ag198
tp2411
a((lp2412
g276
aS'havent'
p2413
aS'used'
p2414
aS'it'
p2415
aS'much'
p2416
aS'yet'
p2417
aS'so'
p2418
ag276
aS'dont'
p2419
aS'know'
p2420
aS'if'
p2421
ag276
aS'will'
p2422
aS'have'
p2423
aS'the'
p2424
aS'same'
p2425
aS'problem;'
p2426
aS'obviously'
p2427
ag276
aS'hope'
p2428
aS'not.'
p2429
ag23
tp2430
a((lp2431
g276
aS'dont'
p2432
aS'especially'
p2433
aS'like'
p2434
aS'how'
p2435
aS'music'
p2436
aS'files'
p2437
aS'are'
p2438
aS'unstructured;'
p2439
aS'basically'
p2440
aS'they'
p2441
aS'are'
p2442
aS'just'
p2443
aS'dumped'
p2444
aS'into'
p2445
aS'one'
p2446
aS'folder'
p2447
aS'with'
p2448
aS'no'
p2449
aS'organization,'
p2450
aS'like'
p2451
aS'you'
p2452
aS'might'
p2453
aS'have'
p2454
aS'in'
p2455
aS'windows'
p2456
aS'explorer'
p2457
aS'folders'
p2458
aS'and'
p2459
aS'subfolders.'
p2460
ag44
tp2461
a((lp2462
S'in'
p2463
aS'principle'
p2464
aS'playlists,'
p2465
aS'album'
p2466
aS'names,'
p2467
aS'artist'
p2468
aS'names,'
p2469
aS'etc'
p2470
aS'would'
p2471
aS'help'
p2472
aS'you'
p2473
aS'organize'
p2474
aS'but'
p2475
aS'this'
p2476
aS'only'
p2477
aS'works'
p2478
aS'IF'
p2479
aS'your'
p2480
aS'tracks'
p2481
aS'have'
p2482
aS'all'
p2483
aS'the'
p2484
aS'necessary'
p2485
aS'data;'
p2486
aS'mine'
p2487
aS'do'
p2488
aS'not.'
p2489
ag23
tp2490
a((lp2491
S'and'
p2492
aS'if'
p2493
aS'you'
p2494
aS'have'
p2495
aS'2500'
p2496
aS'songs,'
p2497
aS'as'
p2498
aS'you'
p2499
aS'might'
p2500
aS'very'
p2501
aS'well,'
p2502
aS'you'
p2503
aS'will'
p2504
aS'be'
p2505
aS'reluctant'
p2506
aS'to'
p2507
aS'edit'
p2508
aS'the'
p2509
aS'clip'
p2510
aS'properties'
p2511
aS'of'
p2512
aS'2500'
p2513
aS'files.'
p2514
ag23
tp2515
a((lp2516
S'the'
p2517
aS'sound'
p2518
aS'is'
p2519
aS'quite'
p2520
aS'good,'
p2521
aS'in'
p2522
aS'terms'
p2523
aS'of'
p2524
aS'volume.'
p2525
ag198
tp2526
a((lp2527
S'the'
p2528
aS'headphones'
p2529
aS'are'
p2530
aS'not'
p2531
aS'very'
p2532
aS'comfortable,'
p2533
aS'but'
p2534
aS'most'
p2535
aS'people'
p2536
aS'have'
p2537
ag133
aS'certain'
p2538
aS'style'
p2539
aS'they'
p2540
aS'like'
p2541
aS'so'
p2542
aS'just'
p2543
aS'go'
p2544
aS'buy'
p2545
aS'new'
p2546
aS'ones'
p2547
aS'or'
p2548
aS'keep'
p2549
aS'the'
p2550
aS'ones'
p2551
aS'you'
p2552
aS'have.'
p2553
ag44
tp2554
a((lp2555
g276
aS'didnt'
p2556
aS'have'
p2557
aS'any'
p2558
aS'installation'
p2559
aS'problems;'
p2560
aS'and'
p2561
aS'the'
p2562
aS'touch'
p2563
aS'pad'
p2564
aS'is'
p2565
aS'fine,'
p2566
aS'even'
p2567
aS'if'
p2568
aS'it'
p2569
aS'is'
p2570
aS'sort'
p2571
aS'of'
p2572
aS'inaccurate.'
p2573
ag198
tp2574
a((lp2575
S'you'
p2576
aS'just'
p2577
aS'get'
p2578
aS'used'
p2579
aS'to'
p2580
aS'it'
p2581
aS'after'
p2582
ag133
aS'while.'
p2583
ag23
tp2584
a((lp2585
g276
aS'didnt'
p2586
aS'get'
p2587
aS'ipod'
p2588
aS'because'
p2589
ag276
aS'dont'
p2590
aS'especially'
p2591
aS'like'
p2592
aS'itunes'
p2593
aS'(no'
p2594
aS'music'
p2595
ag276
aS'want,'
p2596
aS'but'
p2597
aS'thats'
p2598
aS'just'
p2599
aS'me)'
p2600
aS'and'
p2601
aS'the'
p2602
aS'creative'
p2603
aS'product'
p2604
aS'was'
p2605
aS'cheaper;'
p2606
aS'and'
p2607
ag276
aS'needed'
p2608
aS'to'
p2609
aS'be'
p2610
aS'able'
p2611
aS'to'
p2612
aS'use'
p2613
aS'WMA'
p2614
aS'files.'
p2615
ag198
tp2616
a((lp2617
S'all-in-all,'
p2618
aS'its'
p2619
aS'good'
p2620
aS'enough'
p2621
aS'for'
p2622
aS'its'
p2623
aS'price'
p2624
aS'as'
p2625
aS'long'
p2626
aS'as'
p2627
aS'it'
p2628
aS'doesnt'
p2629
aS'break'
p2630
aS'again'
p2631
aS'due'
p2632
aS'to'
p2633
aS'normal'
p2634
aS'use.'
p2635
ag198
tp2636
a((lp2637
S'This'
p2638
aS'is'
p2639
ag133
aS'difficult'
p2640
aS'player'
p2641
aS'to'
p2642
aS'review'
p2643
aS'because'
p2644
ag37
aS'would'
p2645
aS'recommend'
p2646
aS'it'
p2647
aS'on'
p2648
ag133
aS'case-by-case'
p2649
aS'basis.'
p2650
ag23
tp2651
a((lp2652
S'If'
p2653
aS"you're"
p2654
aS'not'
p2655
aS'computer'
p2656
aS'savvy'
p2657
aS'or'
p2658
aS'if'
p2659
aS'you'
p2660
aS'want'
p2661
aS'things'
p2662
aS'as'
p2663
aS'simple'
p2664
aS'as'
p2665
aS'they'
p2666
aS'can'
p2667
aS'be,'
p2668
aS'get'
p2669
aS'the'
p2670
aS'iPod.'
p2671
ag23
tp2672
a((lp2673
S'Bottom'
p2674
aS'line.'
p2675
ag23
tp2676
a((lp2677
S'However,'
p2678
aS'since'
p2679
aS"you're"
p2680
aS'reading'
p2681
aS'this'
p2682
aS'review,'
p2683
aS'you'
p2684
aS'want'
p2685
aS'to'
p2686
aS'avoid'
p2687
aS'getting'
p2688
aS'an'
p2689
aS'iPod.'
p2690
ag23
tp2691
a((lp2692
S'For'
p2693
aS'whatever'
p2694
aS'reason.'
p2695
aS'There'
p2696
aS'is'
p2697
aS'also'
p2698
ag133
aS'low'
p2699
aS'number'
p2700
aS'of'
p2701
aS'people,'
p2702
aS'like'
p2703
aS'me,'
p2704
aS'who'
p2705
aS'love'
p2706
aS'iTunes'
p2707
aS'but'
p2708
aS'want'
p2709
aS'to'
p2710
aS'get'
p2711
aS'the'
p2712
aS'Zen'
p2713
aS'Micro.'
p2714
ag23
tp2715
a((lp2716
S"I'll"
p2717
aS'talk'
p2718
aS'more'
p2719
aS'about'
p2720
aS'that'
p2721
aS'later.'
p2722
ag23
tp2723
a((lp2724
S'First'
p2725
aS'of'
p2726
aS'all,'
p2727
aS'why'
p2728
aS'does'
p2729
aS'every'
p2730
aS'single'
p2731
aS'piece'
p2732
aS'of'
p2733
aS'media'
p2734
aS'library'
p2735
aS'software'
p2736
aS'that'
p2737
aS'comes'
p2738
aS'with'
p2739
aS'an'
p2740
aS'MP3'
p2741
aS'player'
p2742
aS'suck?'
p2743
ag23
tp2744
a((lp2745
S'(iTunes'
p2746
aS'being'
p2747
aS'an'
p2748
aS'exception'
p2749
aS'of'
p2750
aS'course).'
p2751
ag23
tp2752
a((lp2753
S'The'
p2754
aS'Creative'
p2755
aS'MediaSource'
p2756
aS'software'
p2757
aS'that'
p2758
aS'comes'
p2759
aS'with'
p2760
aS'the'
p2761
aS'Zen'
p2762
aS'Micro'
p2763
aS'is'
p2764
aS'cluttered,'
p2765
aS'and'
p2766
aS'excludes'
p2767
aS'my'
p2768
aS'favorite'
p2769
aS'feature'
p2770
aS'in'
p2771
aS'iTunes,'
p2772
aS'the'
p2773
aS'ability'
p2774
aS'to'
p2775
aS'automatically'
p2776
aS'copy'
p2777
aS'everything'
p2778
aS'you'
p2779
aS'import'
p2780
aS'into'
p2781
ag133
aS'certain'
p2782
aS'folder.'
p2783
ag44
tp2784
a((lp2785
g37
aS'like'
p2786
aS'to'
p2787
aS'keep'
p2788
aS'all'
p2789
aS'of'
p2790
aS'my'
p2791
aS'Mp3s'
p2792
aS'in'
p2793
aS'one'
p2794
aS'folder'
p2795
aS'and'
p2796
aS'manually'
p2797
aS'doing'
p2798
aS'this'
p2799
aS'is'
p2800
ag133
aS'pain.'
p2801
ag23
tp2802
a((lp2803
S'Bottomline,'
p2804
aS"don't"
p2805
aS'even'
p2806
aS'bother'
p2807
aS'with'
p2808
aS'the'
p2809
aS'software'
p2810
aS'that'
p2811
aS'comes'
p2812
aS'with'
p2813
aS'the'
p2814
aS'Zen'
p2815
aS'Micro.'
p2816
ag23
tp2817
a((lp2818
S'NAGATIVES'
p2819
aS'of'
p2820
aS'the'
p2821
aS'Player'
p2822
aS'itself:'
p2823
aS'You'
p2824
aS'need'
p2825
aS'to'
p2826
aS'do'
p2827
ag133
aS'little'
p2828
aS'work'
p2829
aS'before'
p2830
aS'having'
p2831
aS'full'
p2832
aS'enjoyement'
p2833
aS'of'
p2834
aS'this'
p2835
aS'player.'
p2836
ag44
tp2837
a((lp2838
S'1.'
p2839
ag23
tp2840
a((lp2841
S'Set'
p2842
aS'the'
p2843
aS'sensitivity'
p2844
aS'of'
p2845
aS'the'
p2846
aS'touch'
p2847
aS'pad'
p2848
aS'to'
p2849
aS'LOW.'
p2850
ag23
tp2851
a((lp2852
S'Also,'
p2853
aS'as'
p2854
aS'soon'
p2855
aS'as'
p2856
aS'you'
p2857
aS'select'
p2858
ag133
aS'song'
p2859
aS'and'
p2860
aS'set'
p2861
aS'your'
p2862
aS'desired'
p2863
aS'volume'
p2864
aS'level,'
p2865
aS'put'
p2866
aS'the'
p2867
aS'player'
p2868
aS'on'
p2869
aS'HOLD.'
p2870
ag23
tp2871
a((lp2872
S'Even'
p2873
aS'on'
p2874
aS'the'
p2875
aS'LOW'
p2876
aS'sensitivy'
p2877
aS'level,'
p2878
ag133
aS'slight'
p2879
aS'touch'
p2880
aS'can'
p2881
aS'skip'
p2882
aS'or'
p2883
aS'pause'
p2884
aS'the'
p2885
aS'track.'
p2886
ag44
tp2887
a((lp2888
S'2.'
p2889
ag23
tp2890
a((lp2891
S'Update'
p2892
aS'the'
p2893
aS'firmware'
p2894
aS'which'
p2895
aS'can'
p2896
aS'be'
p2897
aS'found'
p2898
aS'on'
p2899
aS'the'
p2900
aS'Creative'
p2901
aS'web'
p2902
aS'site.'
p2903
ag23
tp2904
a((lp2905
S'This'
p2906
aS'fixes'
p2907
aS'some'
p2908
aS'glitches'
p2909
aS'such'
p2910
aS'as'
p2911
aS'the'
p2912
aS'player'
p2913
aS'freezing.'
p2914
ag44
tp2915
a((lp2916
S'POSITIVES:'
p2917
aS'Reasons'
p2918
aS'for'
p2919
aS'getting'
p2920
aS'the'
p2921
aS'Zen'
p2922
aS'Micro'
p2923
aS'instead'
p2924
aS'of'
p2925
aS'the'
p2926
aS'iPod:'
p2927
aS'1.'
p2928
ag23
tp2929
a((lp2930
S'The'
p2931
aS'battery'
p2932
aS'is'
p2933
aS'removable.'
p2934
ag198
tp2935
a((lp2936
S'You'
p2937
aS'can'
p2938
aS'buy'
p2939
ag133
aS'new'
p2940
aS'battery'
p2941
aS'for'
p2942
aS'49.99.'
p2943
ag23
tp2944
a((lp2945
S'With'
p2946
aS'the'
p2947
aS'iPod,'
p2948
aS'if'
p2949
aS'the'
p2950
aS'battery'
p2951
aS'has'
p2952
aS'reached'
p2953
aS"it's"
p2954
aS'life'
p2955
aS'span'
p2956
aS'(after'
p2957
aS'about'
p2958
ag133
aS'year),'
p2959
aS'and'
p2960
aS'you'
p2961
aS"didn't"
p2962
aS'buy'
p2963
aS'the'
p2964
aS'warranty'
p2965
aS'from'
p2966
aS'the'
p2967
aS'store,'
p2968
aS'you'
p2969
aS'need'
p2970
aS'to'
p2971
aS'buy'
p2972
ag133
aS'NEW'
p2973
aS'player.'
p2974
ag23
tp2975
a((lp2976
S'2.'
p2977
aS'##'
p2978
ag23
tp2979
a((lp2980
S'FM'
p2981
aS'radio'
p2982
aS'built'
p2983
aS'in'
p2984
aS'(Howard'
p2985
aS'Stern).'
p2986
ag198
tp2987
a((lp2988
S'3.'
p2989
ag23
tp2990
a((lp2991
S'Record'
p2992
aS'memos'
p2993
aS'using'
p2994
aS'the'
p2995
aS'built'
p2996
aS'in'
p2997
aS'microphone.'
p2998
ag198
tp2999
a((lp3000
S'4.'
p3001
ag23
tp3002
a((lp3003
S'The'
p3004
aS'player'
p3005
aS'looks'
p3006
aS'SO'
p3007
aS'much'
p3008
aS'better'
p3009
aS'when'
p3010
aS"you're"
p3011
aS'actually'
p3012
aS'holding'
p3013
aS'it.'
p3014
ag198
tp3015
a((lp3016
S'The'
p3017
aS'photos'
p3018
aS"don't"
p3019
aS'do'
p3020
aS'it'
p3021
aS'justice.'
p3022
ag23
tp3023
a((lp3024
S'The'
p3025
aS'back'
p3026
aS'of'
p3027
aS'the'
p3028
aS'player'
p3029
aS'is'
p3030
aS'nice'
p3031
aS'too,'
p3032
aS'with'
p3033
aS'water'
p3034
aS'ripples'
p3035
aS'inside'
p3036
aS'the'
p3037
aS'clear'
p3038
aS'white'
p3039
aS'coating.'
p3040
ag198
tp3041
a((lp3042
S'5.'
p3043
ag23
tp3044
a((lp3045
S'You'
p3046
aS'can'
p3047
aS'use'
p3048
aS'it'
p3049
aS'as'
p3050
ag133
aS'storage'
p3051
aS'Hard'
p3052
aS'Drive.'
p3053
ag198
tp3054
a((lp3055
S'Now,'
p3056
aS'about'
p3057
aS'the'
p3058
aS'iTunes.'
p3059
ag23
tp3060
a((lp3061
g37
aS'have'
p3062
aS'no'
p3063
aS'problem'
p3064
aS'using'
p3065
aS'iTunes'
p3066
aS'with'
p3067
aS'the'
p3068
aS'Zen'
p3069
aS'Micro'
p3070
aS'(in'
p3071
ag133
aS'makeshift'
p3072
aS'sorta'
p3073
aS'way).'
p3074
ag198
tp3075
a((lp3076
S'This'
p3077
aS'is'
p3078
aS'what'
p3079
ag37
aS'do:'
p3080
ag37
aS'copy'
p3081
aS'all'
p3082
aS'the'
p3083
aS'music'
p3084
ag37
aS'want'
p3085
aS'to'
p3086
aS'import'
p3087
aS'to'
p3088
aS'the'
p3089
aS'Zen'
p3090
aS'Micro'
p3091
aS'into'
p3092
aS'an'
p3093
aS'iTunes'
p3094
aS'play'
p3095
aS'list.'
p3096
ag23
tp3097
a((lp3098
S'After'
p3099
aS'that,'
p3100
aS'you'
p3101
aS'connect'
p3102
aS'your'
p3103
aS'Zen'
p3104
aS'Micro'
p3105
aS'and'
p3106
aS'open'
p3107
aS'My'
p3108
aS'Computer.'
p3109
ag23
tp3110
a((lp3111
S'Click'
p3112
aS'on'
p3113
aS'"Zen'
p3114
aS'Micro'
p3115
aS'Media'
p3116
aS'Explorer"'
p3117
aS'and'
p3118
aS'then'
p3119
aS'click'
p3120
aS'on'
p3121
aS'"Transfer'
p3122
aS'Data'
p3123
aS'Between'
p3124
aS'PC'
p3125
aS'and'
p3126
aS'Device"'
p3127
aS'after'
p3128
aS'that,'
p3129
ag133
aS'File'
p3130
aS'Explorer'
p3131
aS'window'
p3132
aS'opens.'
p3133
ag23
tp3134
a((lp3135
S'And'
p3136
aS'all'
p3137
aS'you'
p3138
aS'do'
p3139
aS'is'
p3140
aS'select'
p3141
aS'all'
p3142
aS'the'
p3143
aS'tracks'
p3144
aS'in'
p3145
aS'the'
p3146
aS'iTunes'
p3147
aS'playlist'
p3148
aS'and'
p3149
aS'drag'
p3150
aS'them'
p3151
aS'to'
p3152
aS'the'
p3153
aS'File'
p3154
aS'Explorer'
p3155
aS'window.'
p3156
ag23
tp3157
a((lp3158
S"It's"
p3159
aS'not'
p3160
aS'as'
p3161
aS'seamless'
p3162
aS'as'
p3163
aS'if'
p3164
aS'you'
p3165
aS'were'
p3166
aS'to'
p3167
aS'use'
p3168
aS'an'
p3169
aS'iPod,'
p3170
aS'but'
p3171
aS'it'
p3172
aS'only'
p3173
aS'takes'
p3174
ag133
aS'few'
p3175
aS'seconds'
p3176
aS'longer.'
p3177
ag23
tp3178
a((lp3179
S'So'
p3180
aS'yeah,'
p3181
aS'you'
p3182
aS'can'
p3183
aS'have'
p3184
aS'the'
p3185
aS'best'
p3186
aS'of'
p3187
aS'both'
p3188
aS'worlds.'
p3189
ag23
tp3190
a((lp3191
S'*'
p3192
aS'Of'
p3193
aS'Course,'
p3194
aS'if'
p3195
aS"you've"
p3196
aS'BOUGHT'
p3197
aS'tracks'
p3198
aS'from'
p3199
aS'iTunes,'
p3200
aS'this'
p3201
aS"won't"
p3202
aS'work.'
p3203
ag23
tp3204
a((lp3205
S'You'
p3206
aS'can'
p3207
aS'only'
p3208
aS'copy'
p3209
aS'songs'
p3210
aS"you've"
p3211
aS'downloaded'
p3212
aS'for'
p3213
aS'free'
p3214
aS'or'
p3215
aS'ripped'
p3216
aS'from'
p3217
ag133
aS'CD.'
p3218
ag23
tp3219
a((lp3220
S'**I'
p3221
aS'honestly'
p3222
aS"don't"
p3223
aS'see'
p3224
aS'the'
p3225
aS'point'
p3226
aS'of'
p3227
aS'buying'
p3228
aS'songs'
p3229
aS'from'
p3230
aS'iTunes'
p3231
aS'when'
p3232
aS'there'
p3233
aS'are'
p3234
aS'so'
p3235
aS'many'
p3236
aS'free'
p3237
aS'alternatives.'
p3238
ag23
tp3239
a((lp3240
S'But'
p3241
aS'if'
p3242
aS'you'
p3243
aS'get'
p3244
aS'that'
p3245
aS'"fuzzy'
p3246
aS'legal'
p3247
aS'feeling"'
p3248
aS'from'
p3249
aS'paying'
p3250
aS'for'
p3251
aS'songs,'
p3252
aS'at'
p3253
aS'least'
p3254
aS'buy'
p3255
aS'them'
p3256
aS'from'
p3257
aS'allofmp3.com,'
p3258
aS'there'
p3259
aS'are'
p3260
aS'no'
p3261
aS'restrictions'
p3262
aS'and'
p3263
aS'the'
p3264
aS'songs'
p3265
aS'cost'
p3266
aS'pennies.'
p3267
ag23
tp3268
a((lp3269
S"I'm"
p3270
aS'addicted'
p3271
aS'to'
p3272
aS'music.'
p3273
ag23
tp3274
a((lp3275
S"I'm"
p3276
aS'also'
p3277
aS'somewhat'
p3278
aS'of'
p3279
aS'an'
p3280
aS'audiophile.'
p3281
ag23
tp3282
a((lp3283
S'Mp3'
p3284
aS'players'
p3285
aS'are'
p3286
aS'like'
p3287
ag133
aS'blessing'
p3288
aS'and'
p3289
ag133
aS'curse'
p3290
aS'for'
p3291
aS'people'
p3292
aS'like'
p3293
aS'me.'
p3294
ag23
tp3295
a((lp3296
S'On'
p3297
aS'the'
p3298
aS'one'
p3299
aS'hand,'
p3300
aS'you'
p3301
aS'have'
p3302
aS'the'
p3303
aS'ability'
p3304
aS'to'
p3305
aS'store'
p3306
aS'and'
p3307
aS'plays'
p3308
aS'over'
p3309
aS'1000'
p3310
aS'songs'
p3311
aS'on'
p3312
aS'one'
p3313
aS'little'
p3314
aS'piece'
p3315
aS'of'
p3316
aS'machine.'
p3317
ag23
tp3318
a((lp3319
S'On'
p3320
aS'the'
p3321
aS'other'
p3322
aS'hand,'
p3323
aS'you'
p3324
aS'get'
p3325
aS'terrible'
p3326
aS'sound'
p3327
aS'quality.'
p3328
ag23
tp3329
a((lp3330
g37
aS'decided'
p3331
aS'to'
p3332
aS'go'
p3333
aS'with'
p3334
aS'the'
p3335
aS'convienence'
p3336
aS'factor'
p3337
aS'and'
p3338
aS'purchase'
p3339
ag133
aS'creative'
p3340
aS'zen'
p3341
aS'micro.'
p3342
ag23
tp3343
a((lp3344
g37
aS'was'
p3345
aS'at'
p3346
aS'[random'
p3347
aS'electronic'
p3348
aS'store],'
p3349
aS'browsing'
p3350
aS'through'
p3351
aS'players,'
p3352
aS'and'
p3353
aS'came'
p3354
aS'across'
p3355
aS'two'
p3356
aS'that'
p3357
aS'made'
p3358
aS'the'
p3359
aS'cut.'
p3360
ag23
tp3361
a((lp3362
S'The'
p3363
aS'first'
p3364
aS'was'
p3365
aS'an'
p3366
aS'ipod'
p3367
aS'5gb'
p3368
aS'(I'
p3369
aS'could'
p3370
aS'kick'
p3371
aS'myself'
p3372
aS'for'
p3373
aS'not'
p3374
aS'buying'
p3375
aS'it),'
p3376
aS'and'
p3377
aS'the'
p3378
aS'other'
p3379
aS'was'
p3380
ag133
aS'creative'
p3381
aS'5gb.'
p3382
ag23
tp3383
a((lp3384
S'The'
p3385
aS'creative'
p3386
aS'came'
p3387
aS'with'
p3388
ag133
aS'free'
p3389
aS'trial'
p3390
aS'of'
p3391
aS'[random'
p3392
aS'file'
p3393
aS'sharing'
p3394
aS'company]'
p3395
aS'"to'
p3396
aS'go".'
p3397
ag23
tp3398
a((lp3399
S'So'
p3400
aS"that's"
p3401
aS'the'
p3402
aS'one'
p3403
ag37
aS'bought.'
p3404
ag23
tp3405
a((lp3406
S'Too'
p3407
aS'bad.'
p3408
ag23
tp3409
a((lp3410
S'First'
p3411
aS'thing'
p3412
ag37
aS'noticed'
p3413
aS'was'
p3414
aS'that'
p3415
aS'the'
p3416
aS'creative'
p3417
aS"wasn't"
p3418
aS'well'
p3419
aS'made.'
p3420
ag44
tp3421
a((lp3422
S'One'
p3423
aS'drop'
p3424
aS'from'
p3425
ag133
aS'pocket'
p3426
aS'or'
p3427
aS'desktop,'
p3428
aS'and'
p3429
aS"it'd"
p3430
aS'be'
p3431
ag133
aS'goner.'
p3432
ag44
tp3433
a((lp3434
S'Problems'
p3435
aS'with'
p3436
aS'the'
p3437
aS'sound'
p3438
aS'quality'
p3439
aS'were'
p3440
aS'evident'
p3441
aS'right'
p3442
aS'away,'
p3443
aS'but'
p3444
aS'even'
p3445
ag37
aS"couldn't"
p3446
aS'imagine'
p3447
aS"they'd"
p3448
aS'be'
p3449
aS'that'
p3450
aS'bad.'
p3451
ag44
tp3452
a((lp3453
S'The'
p3454
aS'eq'
p3455
aS'is'
p3456
aS'awful,'
p3457
aS'and'
p3458
aS'even'
p3459
aS'at'
p3460
aS'top'
p3461
aS'volumes,'
p3462
aS'the'
p3463
aS'bass'
p3464
aS'is'
p3465
aS'flat'
p3466
aS'sounding.'
p3467
ag44
tp3468
a((lp3469
S'Cranking'
p3470
aS'the'
p3471
aS'master'
p3472
aS'volume'
p3473
aS'level'
p3474
aS'up'
p3475
aS'past'
p3476
aS'the'
p3477
aS'mark'
p3478
aS'of'
p3479
aS'the'
p3480
aS'bar'
p3481
aS'only'
p3482
aS'leads'
p3483
aS'to'
p3484
aS'distortion'
p3485
aS'and'
p3486
aS'compromised'
p3487
aS'sound'
p3488
aS'quality.'
p3489
ag44
tp3490
a((lp3491
S'The'
p3492
aS'headphone'
p3493
aS'jack'
p3494
aS'gave'
p3495
aS'out'
p3496
aS'after'
p3497
aS'only'
p3498
ag133
aS'couple'
p3499
aS'weeks'
p3500
aS'of'
p3501
aS'use,'
p3502
aS'and'
p3503
aS'the'
p3504
aS'stock'
p3505
aS'earbuds'
p3506
aS'were'
p3507
aS'replaced'
p3508
aS'same'
p3509
aS'day'
p3510
aS'with'
p3511
aS'some'
p3512
aS'high'
p3513
aS'end'
p3514
aS"sony's"
p3515
aS"I'd"
p3516
aS'been'
p3517
aS'having.'
p3518
ag44
tp3519
a((lp3520
S'They'
p3521
aS"didn't"
p3522
aS'really'
p3523
aS'make'
p3524
aS'any'
p3525
aS'difference.'
p3526
ag23
tp3527
a((lp3528
g37
aS'also'
p3529
aS'experimented'
p3530
aS'with'
p3531
aS'an'
p3532
aS'adapter'
p3533
aS'for'
p3534
aS'the'
p3535
aS'car.'
p3536
ag23
tp3537
a((lp3538
S'If'
p3539
aS"you've"
p3540
aS'been'
p3541
aS'listening'
p3542
aS'to'
p3543
aS"cd's"
p3544
aS'in'
p3545
aS'your'
p3546
aS'car'
p3547
aS'for'
p3548
aS'awhile,'
p3549
aS'dealing'
p3550
aS'with'
p3551
aS'the'
p3552
aS'drop-off'
p3553
aS'in'
p3554
aS'sound'
p3555
aS'quality'
p3556
aS'may'
p3557
aS'take'
p3558
aS'some'
p3559
aS'getting'
p3560
aS'used'
p3561
aS'to.'
p3562
ag44
tp3563
a((lp3564
S'However,'
p3565
aS'if'
p3566
aS'there'
p3567
aS'was'
p3568
aS'one'
p3569
aS'thing'
p3570
ag37
aS'liked'
p3571
aS'about'
p3572
aS'the'
p3573
aS'creative,'
p3574
aS'it'
p3575
aS'would'
p3576
aS'be'
p3577
aS'the'
p3578
aS'car'
p3579
aS'adapter.'
p3580
ag198
tp3581
a((lp3582
S'Hands'
p3583
aS'down,'
p3584
aS'better'
p3585
aS'quality'
p3586
aS'than'
p3587
aS"ipod's."
p3588
ag23
tp3589
a((lp3590
S'that'
p3591
aS"isn't"
p3592
aS'saying'
p3593
aS'much,'
p3594
aS'but'
p3595
aS'hey,'
p3596
ag37
aS'like'
p3597
aS'to'
p3598
aS'be'
p3599
aS'positive.'
p3600
ag23
tp3601
a((lp3602
S'Even'
p3603
aS'after'
p3604
aS'all'
p3605
aS'the'
p3606
aS'nightmare'
p3607
aS'sound'
p3608
aS'problems,'
p3609
aS"I'd"
p3610
aS'still'
p3611
aS'half-way'
p3612
aS'like'
p3613
aS'this'
p3614
aS'product'
p3615
aS'if'
p3616
aS'it'
p3617
aS'kept'
p3618
aS"it's"
p3619
aS'promise;'
p3620
aS'the'
p3621
aS'ability'
p3622
aS'to'
p3623
aS'store'
p3624
aS'1500'
p3625
aS'songs.'
p3626
ag44
tp3627
a((lp3628
g37
aS'got'
p3629
aS'about'
p3630
aS'700'
p3631
aS'loaded'
p3632
aS'up'
p3633
aS'before'
p3634
aS'it'
p3635
aS'told'
p3636
aS'me'
p3637
ag37
aS'was'
p3638
aS'full,'
p3639
aS'and'
p3640
aS'at'
p3641
aS'that'
p3642
aS'point,'
p3643
ag37
aS'was'
p3644
aS'ready'
p3645
aS'to'
p3646
aS'toss'
p3647
aS'it'
p3648
aS'out'
p3649
aS'the'
p3650
aS'window.'
p3651
ag44
tp3652
a((lp3653
S'If'
p3654
aS'you'
p3655
aS'do'
p3656
aS'not'
p3657
aS'care'
p3658
aS'about'
p3659
aS'sound/music'
p3660
aS'quality'
p3661
aS'in'
p3662
aS'the'
p3663
aS'least,'
p3664
aS'and'
p3665
aS"don't"
p3666
aS'mind'
p3667
aS'the'
p3668
aS'ability'
p3669
aS'to'
p3670
aS'store'
p3671
aS'800'
p3672
aS'songs'
p3673
aS'less'
p3674
aS'than'
p3675
aS'promised,'
p3676
aS'get'
p3677
aS'the'
p3678
aS'creative'
p3679
aS'zen'
p3680
aS'micro.'
p3681
aS'##Otherwise,'
p3682
aS'you'
p3683
aS'should'
p3684
aS'get'
p3685
aS'an'
p3686
aS'ipod.'
p3687
ag23
tp3688
a((lp3689
S'My'
p3690
aS'friend'
p3691
aS'has'
p3692
aS'an'
p3693
aS'ipod,'
p3694
aS'and'
p3695
aS'although'
p3696
aS'the'
p3697
aS'sound'
p3698
aS'quality'
p3699
aS'probably'
p3700
aS"won't"
p3701
aS'meet'
p3702
aS'most'
p3703
aS'audiophile'
p3704
aS'standards,'
p3705
aS'the'
p3706
aS'product'
p3707
aS'itself'
p3708
aS'is'
p3709
aS'better'
p3710
aS'than'
p3711
aS'anything'
p3712
aS'creative'
p3713
aS'has'
p3714
aS'made.'
p3715
ag23
tp3716
a((lp3717
S'features[-][u][cc]It'
p3718
aS"hold's"
p3719
ag133
aS'promised'
p3720
aS'amount'
p3721
aS'of'
p3722
aS'songs,'
p3723
aS'and'
p3724
aS'the'
p3725
aS'headphone'
p3726
aS'jack/volume'
p3727
aS'controls'
p3728
aS'deliver'
p3729
ag133
aS'more'
p3730
aS'impressive'
p3731
aS'performance'
p3732
aS'than'
p3733
aS"creative's."
p3734
ag23
tp3735
a((lp3736
S'If'
p3737
aS"you're"
p3738
aS'an'
p3739
aS'audiophile,'
p3740
aS'you'
p3741
aS'already'
p3742
aS'know'
p3743
aS'that'
p3744
aS'mp3'
p3745
aS'players'
p3746
aS'are'
p3747
aS'far'
p3748
aS'from'
p3749
aS'impressive.'
p3750
ag23
tp3751
a((lp3752
S'player[-][s]However,'
p3753
aS'this'
p3754
aS'one'
p3755
aS'makes'
p3756
aS'an'
p3757
aS'ipod'
p3758
aS'sound'
p3759
aS'like'
p3760
aS'your'
p3761
aS'old'
p3762
aS"LP's,"
p3763
aS'so'
p3764
aS'even'
p3765
aS'if'
p3766
aS"you're"
p3767
ag133
aS'casual'
p3768
aS'listener,'
p3769
aS"I'd"
p3770
aS'advise'
p3771
aS'that'
p3772
aS'you'
p3773
aS'avoid'
p3774
aS'the'
p3775
aS'purchase'
p3776
aS'of'
p3777
aS'this'
p3778
aS'product.'
p3779
aS'Terrible.'
p3780
ag23
tp3781
a((lp3782
g37
aS'bought'
p3783
aS'this'
p3784
aS'two'
p3785
aS'months'
p3786
aS'ago'
p3787
aS'at'
p3788
ag133
aS'local'
p3789
aS'retailer,'
p3790
aS'after'
p3791
aS'spending'
p3792
aS'considerable'
p3793
aS'time'
p3794
aS'reading'
p3795
aS'reviews'
p3796
aS'here'
p3797
aS'of'
p3798
aS'this'
p3799
aS'and'
p3800
aS'other'
p3801
aS'5GB'
p3802
aS'players.'
p3803
ag23
tp3804
a((lp3805
S'While'
p3806
aS'they'
p3807
aS'all'
p3808
aS'seem'
p3809
aS'to'
p3810
aS'have'
p3811
aS'their'
p3812
aS'own'
p3813
aS'positives'
p3814
aS'and'
p3815
aS'negatives,'
p3816
ag37
aS'picked'
p3817
aS'the'
p3818
aS'Zen'
p3819
aS'Micro'
p3820
aS'over'
p3821
aS'the'
p3822
aS'Ipod'
p3823
aS'mini,'
p3824
aS'because'
p3825
ag37
aS'am'
p3826
aS'not'
p3827
aS'an'
p3828
aS'Apple'
p3829
aS'person,'
p3830
aS'never'
p3831
aS'has'
p3832
aS'been'
p3833
ag1108
ag37
aS'wanted'
p3834
aS'something'
p3835
aS'that'
p3836
aS'is'
p3837
aS'fully'
p3838
aS'compatible'
p3839
aS'with'
p3840
aS'Windows'
p3841
aS'Media'
p3842
aS'Player.'
p3843
ag198
tp3844
a((lp3845
S'Also,'
p3846
aS'the'
p3847
aS'WMA'
p3848
aS'compression'
p3849
aS'format'
p3850
aS'is'
p3851
aS'superior'
p3852
aS'to'
p3853
aS'MP3,'
p3854
aS'especially'
p3855
aS'at'
p3856
aS'lower'
p3857
aS'bit'
p3858
aS'rates,'
p3859
aS'so'
p3860
ag37
aS'needed'
p3861
ag133
aS'player'
p3862
aS'that'
p3863
aS'could'
p3864
aS'handle'
p3865
aS'WMA'
p3866
aS'and'
p3867
aS'integrate'
p3868
aS'well'
p3869
aS'with'
p3870
aS'my'
p3871
aS'Windows'
p3872
aS'XP'
p3873
aS'computers.'
p3874
ag198
tp3875
a((lp3876
g37
aS'was'
p3877
aS'fortunate'
p3878
aS'to'
p3879
aS'get'
p3880
aS'the'
p3881
aS'packaging'
p3882
aS'that'
p3883
aS'still'
p3884
aS'included'
p3885
aS'all'
p3886
aS'the'
p3887
aS'accessories'
p3888
aS'(desk'
p3889
aS'stand/hard'
p3890
aS'case,'
p3891
aS'belt'
p3892
aS'clip,'
p3893
aS'wall'
p3894
aS'charger,'
p3895
aS'etc).'
p3896
ag198
tp3897
a((lp3898
S'And'
p3899
aS'so'
p3900
aS'far,'
p3901
ag37
aS'have'
p3902
aS'been'
p3903
aS'very,'
p3904
aS'very'
p3905
aS'happy'
p3906
aS'with'
p3907
aS'my'
p3908
aS'Zen'
p3909
aS'Micro.'
p3910
ag198
tp3911
a((lp3912
S"It's"
p3913
aS'being'
p3914
aS'used'
p3915
aS'daily'
p3916
aS'and'
p3917
ag37
aS'have'
p3918
aS'had'
p3919
aS'none'
p3920
aS'of'
p3921
aS'the'
p3922
aS'problems'
p3923
aS'reported'
p3924
aS'by'
p3925
aS'other'
p3926
aS'reviewers'
p3927
aS'(headphone'
p3928
aS'jack,'
p3929
aS'player'
p3930
aS'locking'
p3931
aS'up,'
p3932
aS'etc).'
p3933
ag198
tp3934
a((lp3935
S'Just'
p3936
aS'in'
p3937
aS'case,'
p3938
ag37
aS'bought'
p3939
ag133
aS'two-year'
p3940
aS'extended'
p3941
aS'warranty'
p3942
aS'for'
p3943
aS'about'
p3944
aS'15%'
p3945
aS'of'
p3946
aS'the'
p3947
aS'purchase'
p3948
aS'price'
p3949
aS'of'
p3950
aS'the'
p3951
aS'player.'
p3952
ag23
tp3953
a((lp3954
g37
aS'promptly'
p3955
aS'gave'
p3956
aS'the'
p3957
aS'included'
p3958
aS'earbuds'
p3959
aS'to'
p3960
aS'my'
p3961
aS'wife,'
p3962
aS"I'm"
p3963
aS'using'
p3964
ag133
aS'pair'
p3965
aS'of'
p3966
aS'Sennheiser'
p3967
aS'PXC250'
p3968
aS'noise-canceling'
p3969
aS'headphones'
p3970
aS'with'
p3971
aS'the'
p3972
aS'Zen'
p3973
aS'Micro.'
p3974
ag23
tp3975
a((lp3976
S'The'
p3977
aS'Micro'
p3978
aS'has'
p3979
aS'an'
p3980
aS'impressive'
p3981
aS'array'
p3982
aS'of'
p3983
aS'very'
p3984
aS'nice'
p3985
aS'features'
p3986
aS'and'
p3987
ag133
aS'well'
p3988
aS'designed'
p3989
aS'user'
p3990
aS'interface.'
p3991
ag198
tp3992
a((lp3993
S'What'
p3994
ag37
aS'like'
p3995
aS'the'
p3996
aS'most:'
p3997
ag1108
aS'Small'
p3998
aS'and'
p3999
aS'solid'
p4000
aS'feel.'
p4001
ag198
tp4002
a((lp4003
S'The'
p4004
aS'Zen'
p4005
aS'Micro'
p4006
aS'is'
p4007
aS'smaller'
p4008
aS'than'
p4009
aS'it'
p4010
aS'looks'
p4011
aS'in'
p4012
aS'pictures,'
p4013
aS'and'
p4014
aS'feels'
p4015
aS'very'
p4016
aS'solid.'
p4017
ag198
tp4018
a((lp4019
S'The'
p4020
aS'blue'
p4021
aS'backlight'
p4022
aS'is'
p4023
aS'pretty'
p4024
aS'cool.'
p4025
ag198
tp4026
a((lp4027
S'The'
p4028
aS'screen'
p4029
aS'is'
p4030
aS'clear'
p4031
aS'and'
p4032
aS'readable,'
p4033
aS'and'
p4034
aS'the'
p4035
aS'touch'
p4036
aS'pad'
p4037
aS'works'
p4038
aS'very'
p4039
aS'well,'
p4040
aS'it'
p4041
aS'took'
p4042
aS'me'
p4043
aS'less'
p4044
aS'than'
p4045
ag133
aS'day'
p4046
aS'to'
p4047
aS'get'
p4048
aS'the'
p4049
aS'hang'
p4050
aS'of'
p4051
aS'it,'
p4052
aS'and'
p4053
aS'now'
p4054
ag37
aS'like'
p4055
aS'it'
p4056
aS'better'
p4057
aS'than'
p4058
aS'having'
p4059
aS'to'
p4060
aS'click'
p4061
aS'buttons'
p4062
aS'or'
p4063
aS'fiddle'
p4064
aS'with'
p4065
ag133
aS'separate'
p4066
aS'volume'
p4067
aS'control.'
p4068
ag198
tp4069
a((lp4070
g1108
aS'Great'
p4071
aS'sound!'
p4072
ag37
aS'was'
p4073
aS'very'
p4074
aS'impressed,'
p4075
ag37
aS'encode'
p4076
aS'at'
p4077
aS'192'
p4078
aS'kbps'
p4079
aS'and'
p4080
aS'the'
p4081
aS'audio'
p4082
aS'quality'
p4083
aS'is'
p4084
aS'great,'
p4085
aS'especially'
p4086
aS'with'
p4087
aS'the'
p4088
aS'better'
p4089
aS'headphones.'
p4090
ag198
tp4091
a((lp4092
g37
aS'managed'
p4093
aS'to'
p4094
aS'fit'
p4095
aS'about'
p4096
aS'700'
p4097
aS'tracks'
p4098
aS'on'
p4099
aS'the'
p4100
aS'player,'
p4101
aS'but'
p4102
aS'many'
p4103
aS'of'
p4104
aS'those'
p4105
aS'are'
p4106
aS'6-15'
p4107
aS'minute'
p4108
aS'long'
p4109
aS'classical'
p4110
aS'tracks.'
p4111
ag23
tp4112
a((lp4113
g1108
aS'Integration'
p4114
aS'with'
p4115
aS'Media'
p4116
aS'Player.'
p4117
ag23
tp4118
a((lp4119
S'The'
p4120
aS'first'
p4121
aS'thing'
p4122
ag37
aS'did'
p4123
aS'was'
p4124
aS'upgrade'
p4125
aS'the'
p4126
aS'firmware'
p4127
aS'to'
p4128
aS'the'
p4129
aS'version'
p4130
aS'required'
p4131
aS'for'
p4132
aS'WMP10,'
p4133
aS'it'
p4134
aS'syncs'
p4135
aS'flawlessly'
p4136
aS'with'
p4137
aS'Media'
p4138
aS'Player'
p4139
aS'and'
p4140
aS'transfers'
p4141
aS'are'
p4142
aS'fast.'
p4143
ag198
tp4144
a((lp4145
g1108
aS'Replaceable'
p4146
aS'battery.'
p4147
ag198
tp4148
a((lp4149
g98
aS'must'
p4150
aS'for'
p4151
aS'me,'
p4152
aS'the'
p4153
aS'fact'
p4154
aS'that'
p4155
aS'you'
p4156
aS'can'
p4157
aS'carry'
p4158
aS'extra'
p4159
aS'batteries'
p4160
aS'is'
p4161
ag133
aS'big'
p4162
aS'bonus.'
p4163
ag23
tp4164
a((lp4165
g1108
aS'The'
p4166
aS'FM'
p4167
aS'Radio.'
p4168
ag23
tp4169
a((lp4170
g37
aS'find'
p4171
aS'myself'
p4172
aS'listening'
p4173
aS'to'
p4174
aS'the'
p4175
aS'radio'
p4176
ag133
aS'lot.'
p4177
ag23
tp4178
a((lp4179
S'You'
p4180
aS'have'
p4181
aS'to'
p4182
aS'be'
p4183
aS'in'
p4184
aS'an'
p4185
aS'area'
p4186
aS'with'
p4187
aS'good'
p4188
aS'reception,'
p4189
aS'but'
p4190
aS'where'
p4191
ag37
aS'live'
p4192
ag37
aS'can'
p4193
aS'get'
p4194
aS'most'
p4195
aS'of'
p4196
aS'my'
p4197
aS'favorite'
p4198
aS'stations'
p4199
aS'quite'
p4200
aS'well.'
p4201
ag23
tp4202
a((lp4203
g1108
aS'Doubles'
p4204
aS'as'
p4205
ag133
aS'removable'
p4206
aS'disk'
p4207
aS'drive.'
p4208
ag23
tp4209
a((lp4210
S'With'
p4211
aS'the'
p4212
aS'right'
p4213
aS'firmware,'
p4214
aS'drag'
p4215
aS'and'
p4216
aS'drop'
p4217
aS'to'
p4218
aS'and'
p4219
aS'from'
p4220
aS'the'
p4221
aS'player'
p4222
aS'like'
p4223
aS'any'
p4224
aS'other'
p4225
aS'jump'
p4226
aS'drive.'
p4227
ag198
tp4228
a((lp4229
g37
aS'have'
p4230
aS'not'
p4231
aS'yet'
p4232
aS'used'
p4233
aS'all'
p4234
aS'the'
p4235
aS'features,'
p4236
aS'like'
p4237
aS'the'
p4238
aS'calendar,'
p4239
aS'etc,'
p4240
aS'but'
p4241
aS'as'
p4242
ag133
aS'music'
p4243
aS'player'
p4244
aS'this'
p4245
aS'little'
p4246
aS'thing'
p4247
aS'rocks.'
p4248
ag198
tp4249
a((lp4250
S'The'
p4251
aS'only'
p4252
aS'reason'
p4253
aS'for'
p4254
aS'not'
p4255
aS'giving'
p4256
aS'it'
p4257
ag1388
aS'stars:'
p4258
aS'the'
p4259
aS'claimed'
p4260
aS'battery'
p4261
aS'life'
p4262
aS'of'
p4263
aS'12'
p4264
aS'hours'
p4265
aS'is'
p4266
aS'very'
p4267
aS'optimistic'
p4268
ag1108
aS'possible'
p4269
aS'maybe'
p4270
aS'if'
p4271
aS'you'
p4272
aS'really'
p4273
aS'sit'
p4274
aS'down'
p4275
aS'and'
p4276
aS'listen'
p4277
aS'continuously'
p4278
aS'for'
p4279
aS'12'
p4280
aS'hours'
p4281
aS'without'
p4282
aS'ever'
p4283
aS'touching'
p4284
aS'the'
p4285
aS'player,'
p4286
aS'but'
p4287
aS'in'
p4288
aS'real'
p4289
aS'life'
p4290
ag37
aS'can'
p4291
aS'probably'
p4292
aS'get'
p4293
aS'6-8'
p4294
aS'hours'
p4295
aS'at'
p4296
aS'most.'
p4297
ag44
tp4298
a((lp4299
S'Plus,'
p4300
aS'from'
p4301
aS'the'
p4302
aS'Creative'
p4303
aS'discussion'
p4304
aS'forums'
p4305
aS'it'
p4306
aS'is'
p4307
aS'clear'
p4308
aS'that'
p4309
aS'they'
p4310
aS'have'
p4311
aS'some'
p4312
aS'problems'
p4313
aS'with'
p4314
aS'excessive'
p4315
aS'battery'
p4316
aS'drainage'
p4317
aS'with'
p4318
aS'the'
p4319
aS'current'
p4320
aS'firmware.'
p4321
ag23
tp4322
a((lp4323
S'They'
p4324
aS'seem'
p4325
aS'to'
p4326
aS'be'
p4327
aS'working'
p4328
aS'on'
p4329
ag133
aS'fix'
p4330
aS'and'
p4331
aS'will'
p4332
aS'probably'
p4333
aS'sort'
p4334
aS'it'
p4335
aS'out'
p4336
aS'soon.'
p4337
ag23
tp4338
a((lp4339
S'For'
p4340
aS'me,'
p4341
ag37
aS'get'
p4342
aS'through'
p4343
ag133
aS'typical'
p4344
aS"day's"
p4345
aS'listening'
p4346
aS'just'
p4347
aS'fine,'
p4348
aS'and'
p4349
ag37
aS'could'
p4350
aS'probably'
p4351
aS'squeeze'
p4352
aS'out'
p4353
aS'two'
p4354
aS'days,'
p4355
aS'but'
p4356
aS'it'
p4357
aS'really'
p4358
aS'is'
p4359
aS'no'
p4360
aS'big'
p4361
aS'deal'
p4362
aS'to'
p4363
aS'just'
p4364
aS'charge'
p4365
aS'the'
p4366
aS'Micro'
p4367
aS'overnight.'
p4368
ag23
tp4369
a((lp4370
S'Even'
p4371
aS'the'
p4372
aS'"shorter"'
p4373
aS'battery'
p4374
aS'life,'
p4375
aS'though,'
p4376
aS'has'
p4377
aS'not'
p4378
aS'impaired'
p4379
aS'my'
p4380
aS'positive'
p4381
aS'experience'
p4382
aS'with'
p4383
aS'the'
p4384
aS'Zen'
p4385
aS'Micro'
p4386
aS'in'
p4387
aS'any'
p4388
aS'way.'
p4389
ag44
tp4390
a((lp4391
S'If'
p4392
aS'you'
p4393
aS'can'
p4394
aS'get'
p4395
aS'one'
p4396
aS'with'
p4397
aS'all'
p4398
aS'the'
p4399
aS'accessories'
p4400
aS'and'
p4401
ag133
aS'cheap'
p4402
aS'extended'
p4403
aS'warranty,'
p4404
aS'this'
p4405
aS'is'
p4406
aS'the'
p4407
aS'player'
p4408
aS'to'
p4409
aS'get!'
p4410
aS'Highly'
p4411
aS'recommended.'
p4412
ag198
tp4413
a((lp4414
S'Update'
p4415
aS'8/11/05:'
p4416
aS'The'
p4417
aS'latest'
p4418
aS'release'
p4419
aS'of'
p4420
aS'the'
p4421
aS'iPOD'
p4422
aS'firmware'
p4423
aS'fixes'
p4424
aS'teh'
p4425
aS'calender'
p4426
aS'sync'
p4427
aS'bug'
p4428
ag276
aS'noted'
p4429
aS'below.'
p4430
ag23
tp4431
a((lp4432
g37
aS'bought'
p4433
aS'this'
p4434
ag133
aS'couple'
p4435
aS'of'
p4436
aS'months'
p4437
aS'ago'
p4438
aS'after'
p4439
aS'researching'
p4440
aS'all'
p4441
aS'the'
p4442
aS'reviews'
p4443
aS'comparing'
p4444
aS'with'
p4445
aS'the'
p4446
aS'iPod'
p4447
aS'mini.'
p4448
ag23
tp4449
a((lp4450
S'The'
p4451
aS'Micro'
p4452
aS'seeemed'
p4453
aS'like'
p4454
aS'an'
p4455
aS'iPod'
p4456
aS'for'
p4457
aS'less.'
p4458
ag198
tp4459
a((lp4460
g37
aS'got'
p4461
aS'rid'
p4462
aS'of'
p4463
aS'my'
p4464
aS'older'
p4465
aS'PDA'
p4466
aS'figuring'
p4467
aS'that'
p4468
aS'since'
p4469
aS'the'
p4470
aS'only'
p4471
aS'function'
p4472
ag37
aS'used'
p4473
aS'on'
p4474
aS'it'
p4475
aS'anyways'
p4476
aS'was'
p4477
aS'to'
p4478
aS'manage'
p4479
aS'my'
p4480
aS'contacts'
p4481
aS'and'
p4482
aS'calender,'
p4483
ag37
aS'could'
p4484
aS'now'
p4485
aS'use'
p4486
aS'my'
p4487
aS'Zen'
p4488
aS'Micro.'
p4489
ag23
tp4490
a((lp4491
S'Pros:'
p4492
ag1108
aS'Excellent'
p4493
aS'sound,'
p4494
aS'even'
p4495
aS'with'
p4496
aS'the'
p4497
aS'headphones'
p4498
aS'that'
p4499
aS'come'
p4500
aS'out'
p4501
aS'of'
p4502
aS'the'
p4503
aS'box,'
p4504
aS'but'
p4505
aS'it'
p4506
aS'absolutely'
p4507
aS'rocked'
p4508
aS'with'
p4509
aS'my'
p4510
aS'Bose'
p4511
aS'Quietcomfort'
p4512
ag2186
aS'set.'
p4513
ag198
tp4514
a((lp4515
g1108
aS'Looks'
p4516
aS'sleek,'
p4517
aS'compact,'
p4518
aS'has'
p4519
ag133
aS'radio.'
p4520
ag198
tp4521
a((lp4522
S'Limitations:'
p4523
ag1108
aS'Not'
p4524
ag133
aS'lot'
p4525
aS'of'
p4526
aS'original'
p4527
aS'accessories'
p4528
aS'like'
p4529
aS'the'
p4530
aS'iPod.'
p4531
ag44
tp4532
a((lp4533
g37
aS'waited'
p4534
aS'for'
p4535
aS"Creative's"
p4536
aS'FM'
p4537
aS'transmitter'
p4538
aS'for'
p4539
ag133
aS'month,'
p4540
aS'finally'
p4541
aS'bought'
p4542
ag133
aS'Belkin'
p4543
aS'Tunecast'
p4544
aS'II,'
p4545
aS'which'
p4546
aS'is'
p4547
aS'not'
p4548
aS'great.'
p4549
ag23
tp4550
a((lp4551
g37
aS'get'
p4552
aS'occasional'
p4553
aS'hiss'
p4554
aS'while'
p4555
aS'driving.'
p4556
ag23
tp4557
a((lp4558
g1108
aS'The'
p4559
aS'battery'
p4560
aS'life'
p4561
aS'leaves'
p4562
ag133
aS'lot'
p4563
aS'to'
p4564
aS'be'
p4565
aS'desired.'
p4566
ag44
tp4567
a((lp4568
S'Though'
p4569
aS'rated'
p4570
aS'at'
p4571
aS'12'
p4572
aS'hrs,'
p4573
ag37
aS'could'
p4574
aS'barely'
p4575
aS'manage'
p4576
aS'8'
p4577
aS'and'
p4578
ag37
aS'have'
p4579
aS'two'
p4580
aS'spares'
p4581
aS'as'
p4582
aS'well.'
p4583
ag23
tp4584
a((lp4585
g37
aS'downloaded'
p4586
aS'the'
p4587
aS'new'
p4588
aS'firmware'
p4589
aS'which'
p4590
aS'was'
p4591
aS'supposed'
p4592
aS'to'
p4593
aS'take'
p4594
aS'care'
p4595
aS'of'
p4596
aS'the'
p4597
aS'problem,'
p4598
aS'but'
p4599
aS'it'
p4600
aS"hasn't"
p4601
aS'worked.'
p4602
ag44
tp4603
a((lp4604
g1108
aS'The'
p4605
aS'outlook'
p4606
aS'synch'
p4607
aS'only'
p4608
aS'works'
p4609
aS'for'
p4610
aS'non'
p4611
aS'recurring'
p4612
aS'appointments,'
p4613
aS'which'
p4614
aS'personally'
p4615
aS'is'
p4616
aS'very'
p4617
aS'annoying'
p4618
aS'to'
p4619
aS'me'
p4620
aS'but'
p4621
aS'probably'
p4622
aS'wont'
p4623
aS'be'
p4624
aS'to'
p4625
aS'most'
p4626
aS'people.'
p4627
ag1108
aS'##Several'
p4628
aS'people'
p4629
aS'complained'
p4630
aS'about'
p4631
aS'the'
p4632
aS'touchpad'
p4633
aS'and'
p4634
aS'frankly'
p4635
aS"i'm"
p4636
aS'starting'
p4637
aS'to'
p4638
aS'see'
p4639
aS'why.'
p4640
ag44
tp4641
a((lp4642
g37
aS'occassionally'
p4643
aS'flip'
p4644
aS'songs'
p4645
aS'while'
p4646
aS'working'
p4647
aS'out'
p4648
aS'as'
p4649
ag276
aS'accidently'
p4650
aS'hit'
p4651
aS'the'
p4652
aS'pad'
p4653
aS'even'
p4654
aS'lightly'
p4655
aS'(yes'
p4656
ag276
aS'have'
p4657
aS'it'
p4658
aS'in'
p4659
aS'maximum'
p4660
aS'desensitized'
p4661
aS'mode).'
p4662
ag44
tp4663
a((lp4664
g37
aS'wish'
p4665
aS'they'
p4666
aS'has'
p4667
ag133
aS'"lock"'
p4668
aS'function'
p4669
aS'like'
p4670
aS'cell'
p4671
aS'phones'
p4672
aS'to'
p4673
aS'prevent'
p4674
aS'this.'
p4675
ag23
tp4676
a((lp4677
g1108
aS'Not'
p4678
aS'compatible'
p4679
aS'with'
p4680
aS'Audible.com'
p4681
aS'books.'
p4682
ag44
tp4683
a((lp4684
S'Overall,'
p4685
aS'it'
p4686
aS'does'
p4687
aS'its'
p4688
aS'basic'
p4689
aS'function'
p4690
aS'very'
p4691
aS'well,'
p4692
aS'but'
p4693
aS'we'
p4694
aS'expect'
p4695
aS'more'
p4696
aS'from'
p4697
aS'the'
p4698
aS'mp3'
p4699
aS'players'
p4700
aS'today'
p4701
aS'and'
p4702
aS'the'
p4703
aS'Zen'
p4704
aS'Micro'
p4705
aS'does'
p4706
aS'not'
p4707
aS'rise'
p4708
aS'to'
p4709
aS'the'
p4710
aS'occassion.'
p4711
ag44
tp4712
a((lp4713
g37
aS'first'
p4714
aS'signed'
p4715
aS'up'
p4716
aS'for'
p4717
aS'Napster'
p4718
aS'on'
p4719
aS'line.'
p4720
ag23
tp4721
a((lp4722
S'Loved'
p4723
aS'the'
p4724
aS'service'
p4725
aS'so'
p4726
aS'much'
p4727
ag37
aS'decided'
p4728
aS'to'
p4729
aS'buy'
p4730
aS'an'
p4731
aS'MP3'
p4732
aS'player'
p4733
aS'and'
p4734
aS'upgrade'
p4735
aS'from'
p4736
aS'the'
p4737
aS'basic'
p4738
aS'Napster'
p4739
aS'to'
p4740
aS'Napster'
p4741
aS'To'
p4742
aS'Go.'
p4743
ag23
tp4744
a((lp4745
S'They'
p4746
aS'have'
p4747
ag133
aS'list'
p4748
aS'of'
p4749
aS'compatible'
p4750
aS'players'
p4751
aS'which'
p4752
ag37
aS'miss'
p4753
aS'read.'
p4754
ag23
tp4755
a((lp4756
S'So'
p4757
aS'my'
p4758
aS'first'
p4759
aS'MP3'
p4760
aS'player'
p4761
aS'purchase'
p4762
aS'was'
p4763
aS'incorrect.'
p4764
ag23
tp4765
a((lp4766
S'To'
p4767
aS'transfer'
p4768
aS'songs'
p4769
aS'requires'
p4770
aS'you'
p4771
aS'to'
p4772
aS'pay'
p4773
aS'99'
p4774
aS'cents.'
p4775
ag23
tp4776
a((lp4777
S'The'
p4778
aS'player'
p4779
ag37
aS'first'
p4780
aS'purchased'
p4781
aS'was'
p4782
aS'the'
p4783
aS'Creative'
p4784
aS'Nomad'
p4785
aS'Jukebox'
p4786
aS'Zen'
p4787
aS'Xtra'
p4788
aS'40'
p4789
aS'GB'
p4790
aS'MP3'
p4791
aS'Player.'
p4792
ag23
tp4793
a((lp4794
S'This'
p4795
aS'player'
p4796
aS'is'
p4797
aS'not'
p4798
aS'compatible'
p4799
aS'with'
p4800
aS'Napster'
p4801
aS'To'
p4802
aS'Go.'
p4803
ag23
tp4804
a((lp4805
S'The'
p4806
aS'player'
p4807
aS'was'
p4808
aS'large'
p4809
aS'and'
p4810
aS'bulky.'
p4811
ag23
tp4812
a((lp4813
S'The'
p4814
aS'buttons'
p4815
aS'are'
p4816
aS'located'
p4817
aS'on'
p4818
aS'the'
p4819
aS'sides'
p4820
aS'making'
p4821
aS'it'
p4822
aS'difficult'
p4823
aS'to'
p4824
aS'use.'
p4825
ag23
tp4826
a((lp4827
S'The'
p4828
aS'plus'
p4829
aS'was'
p4830
aS'the'
p4831
aS'storage'
p4832
aS'size'
p4833
aS'but'
p4834
ag37
aS"didn't"
p4835
aS'like'
p4836
aS'hearing'
p4837
aS'the'
p4838
aS'hard'
p4839
aS'drive'
p4840
aS'spin.'
p4841
ag23
tp4842
a((lp4843
g37
aS'also'
p4844
aS'hated'
p4845
aS'the'
p4846
aS'packaging,'
p4847
aS'with'
p4848
ag133
aS'passion.'
p4849
ag23
tp4850
a((lp4851
S'It'
p4852
aS'was'
p4853
aS'one'
p4854
aS'of'
p4855
aS'those'
p4856
aS'plastic'
p4857
aS'glued'
p4858
aS'containers'
p4859
aS'that'
p4860
aS'can'
p4861
aS'take'
p4862
aS'you'
p4863
aS'thirty'
p4864
aS'minutes'
p4865
aS'to'
p4866
aS'open.'
p4867
ag23
tp4868
a((lp4869
S'Accessories'
p4870
aS'were'
p4871
aS'cheap'
p4872
aS'looking.'
p4873
ag23
tp4874
a((lp4875
S'The'
p4876
aS'player'
p4877
aS'was'
p4878
aS'not'
p4879
aS'very'
p4880
aS'appealing'
p4881
aS'either.'
p4882
ag23
tp4883
a((lp4884
S'All'
p4885
aS'this'
p4886
aS'before'
p4887
ag37
aS'found'
p4888
aS'out'
p4889
aS'the'
p4890
aS'bad'
p4891
aS'news.'
p4892
ag23
tp4893
a((lp4894
S'Finally'
p4895
ag37
aS'upgraded'
p4896
aS'the'
p4897
aS'firmware'
p4898
aS'and'
p4899
aS'log'
p4900
aS'in'
p4901
aS'to'
p4902
aS'Napster.'
p4903
ag23
tp4904
a((lp4905
S'Upon'
p4906
aS'logging'
p4907
aS'in'
p4908
ag37
aS'received'
p4909
ag133
aS'notification'
p4910
aS'that'
p4911
aS'my'
p4912
aS'player'
p4913
aS'works'
p4914
aS'with'
p4915
aS'Napster'
p4916
aS'but'
p4917
aS'not'
p4918
aS'Napster'
p4919
aS'To'
p4920
aS'Go.'
p4921
ag23
tp4922
a((lp4923
S'It'
p4924
aS'was'
p4925
aS'time'
p4926
aS'to'
p4927
aS'exchange'
p4928
aS'it'
p4929
aS'for'
p4930
aS'the'
p4931
aS'other'
p4932
aS'player'
p4933
aS'the'
p4934
aS'Creative'
p4935
aS'Zen'
p4936
aS'Micro'
p4937
ag1388
aS'GB'
p4938
aS'MP3'
p4939
aS'Player'
p4940
aS'Black.'
p4941
ag23
tp4942
a((lp4943
S'Its'
p4944
ag133
aS'few'
p4945
aS'bucks'
p4946
aS'more'
p4947
aS'and'
p4948
aS'has'
p4949
aS'only'
p4950
ag1388
aS"GB's"
p4951
aS'of'
p4952
aS'storage'
p4953
aS'but'
p4954
aS'its'
p4955
aS'well'
p4956
aS'worth'
p4957
aS'the'
p4958
aS'trade'
p4959
aS'off.'
p4960
ag23
tp4961
a((lp4962
S'This'
p4963
aS'is'
p4964
aS"Creative's"
p4965
aS'attempt'
p4966
aS'to'
p4967
aS'compete'
p4968
aS'with'
p4969
aS'the'
p4970
aS'IPod'
p4971
aS'mini.'
p4972
ag23
tp4973
a((lp4974
S'To'
p4975
aS'bad'
p4976
aS'Napster'
p4977
aS'software'
p4978
aS'is'
p4979
aS'not'
p4980
aS'compatible'
p4981
aS'with'
p4982
aS'Apple'
p4983
aS"IPod's."
p4984
ag23
tp4985
a((lp4986
S'Its'
p4987
aS'my'
p4988
aS'first'
p4989
aS'purchase'
p4990
aS'choice.'
p4991
ag23
tp4992
a((lp4993
S'Actually'
p4994
aS'only'
p4995
aS'three'
p4996
aS'players'
p4997
aS'are'
p4998
aS'on'
p4999
aS'the'
p5000
aS'list'
p5001
aS'for'
p5002
aS'Napster'
p5003
aS'To'
p5004
aS'Go.'
p5005
ag23
tp5006
a((lp5007
S"Don't"
p5008
aS'worry'
p5009
aS'this'
p5010
aS'player'
p5011
aS'rocks.'
p5012
ag198
tp5013
a((lp5014
S'It'
p5015
aS'was'
p5016
aS'also'
p5017
aS'the'
p5018
aS'most'
p5019
aS'appealing.'
p5020
ag198
tp5021
a((lp5022
S'Immediately'
p5023
aS'you'
p5024
aS'could'
p5025
aS'tell'
p5026
ag133
aS'very'
p5027
aS'distinct'
p5028
aS'difference'
p5029
aS'between'
p5030
aS'the'
p5031
aS'two'
p5032
aS'Creative'
p5033
aS'MP3'
p5034
aS'players.'
p5035
ag23
tp5036
a((lp5037
S'For'
p5038
aS'the'
p5039
aS'Zen'
p5040
aS'Creative'
p5041
aS'focused'
p5042
aS'on'
p5043
aS'packaging'
p5044
aS'which'
p5045
aS'looked'
p5046
aS'well'
p5047
aS'thought'
p5048
aS'out,'
p5049
aS'well'
p5050
aS'presented'
p5051
aS'and'
p5052
aS'easy'
p5053
aS'to'
p5054
aS'open'
p5055
aS'and'
p5056
aS'put'
p5057
aS'back'
p5058
aS'together.'
p5059
ag198
tp5060
a((lp5061
g37
aS'keep'
p5062
aS'boxes'
p5063
aS'for'
p5064
aS'all'
p5065
aS'my'
p5066
aS'equipment'
p5067
aS'for'
p5068
aS'storage'
p5069
aS'and'
p5070
aS'moving.'
p5071
ag23
tp5072
a((lp5073
S'It'
p5074
aS'has'
p5075
ag133
aS'cardboard'
p5076
aS'slip'
p5077
aS'cover'
p5078
aS'with'
p5079
ag133
aS'nice'
p5080
aS'layered'
p5081
aS'box'
p5082
aS'casing'
p5083
aS'inside.'
p5084
ag198
tp5085
a((lp5086
S'You'
p5087
aS'will'
p5088
aS'find'
p5089
ag133
aS'small'
p5090
aS'folder/envelope'
p5091
aS'on'
p5092
aS'top'
p5093
aS'along'
p5094
aS'with'
p5095
aS'the'
p5096
aS'player.'
p5097
ag23
tp5098
a((lp5099
S'Accessories'
p5100
aS'are'
p5101
aS'in'
p5102
aS'reusable'
p5103
aS'bags'
p5104
aS'unlike'
p5105
aS'the'
p5106
aS'Nomad'
p5107
aS'which'
p5108
aS'requires'
p5109
aS'you'
p5110
aS'to'
p5111
aS'tear'
p5112
aS'each'
p5113
aS'back'
p5114
aS'plastic'
p5115
aS'store'
p5116
aS'bag'
p5117
aS'open.'
p5118
ag23
tp5119
a((lp5120
g98
aS'distinct'
p5121
aS'IPod'
p5122
aS'relation'
p5123
aS'is'
p5124
aS'evident'
p5125
aS'with'
p5126
aS'white'
p5127
aS'colored'
p5128
aS'cables,'
p5129
aS'power'
p5130
aS'plug'
p5131
aS'and'
p5132
aS'the'
p5133
aS'very'
p5134
aS'nice'
p5135
aS'Zen'
p5136
aS'case'
p5137
aS'with'
p5138
ag133
aS'white'
p5139
aS'rubber'
p5140
aS'inside'
p5141
aS'covering.'
p5142
ag198
tp5143
a((lp5144
S'It'
p5145
aS'has'
p5146
aS'Apple'
p5147
aS'insipid'
p5148
aS'written'
p5149
aS'all'
p5150
aS'over'
p5151
aS'it.'
p5152
ag23
tp5153
a((lp5154
g37
aS'do'
p5155
aS'give'
p5156
aS'create'
p5157
aS'to'
p5158
aS'Creative'
p5159
aS'for'
p5160
aS'their'
p5161
aS'attractive'
p5162
aS'design.'
p5163
ag198
tp5164
a((lp5165
S'Creative'
p5166
aS'has'
p5167
aS'put'
p5168
ag133
aS'lot'
p5169
aS'of'
p5170
aS'effort'
p5171
aS'into'
p5172
aS'making'
p5173
aS'this'
p5174
aS'player'
p5175
aS'appeal'
p5176
aS'to'
p5177
aS'those'
p5178
aS'true'
p5179
aS'geeks'
p5180
aS'that'
p5181
aS'search'
p5182
aS'for'
p5183
aS'coolness'
p5184
aS'and'
p5185
aS'functionality'
p5186
aS'in'
p5187
aS'electronic'
p5188
aS'devices.'
p5189
ag198
tp5190
a((lp5191
S'Creative'
p5192
aS'was'
p5193
aS'defiantly'
p5194
aS'giving'
p5195
aS'the'
p5196
aS'IPod'
p5197
ag133
aS'run'
p5198
aS'for'
p5199
aS'their'
p5200
aS'money'
p5201
aS'with'
p5202
aS'this'
p5203
aS'device.'
p5204
ag198
tp5205
a((lp5206
S'It'
p5207
aS'makes'
p5208
aS'the'
p5209
aS'Nomad'
p5210
ag37
aS'purchase'
p5211
aS'feel'
p5212
aS'and'
p5213
aS'look'
p5214
aS'like'
p5215
aS'junk.'
p5216
ag23
tp5217
a((lp5218
S'Everything'
p5219
aS'shines'
p5220
aS'of'
p5221
aS'quality.'
p5222
ag198
tp5223
a((lp5224
g37
aS'was'
p5225
aS'more'
p5226
aS'excited'
p5227
aS'about'
p5228
aS'this'
p5229
aS'player'
p5230
aS'upon'
p5231
aS'opening'
p5232
aS'than'
p5233
ag37
aS'was'
p5234
aS'about'
p5235
aS'the'
p5236
aS'Nomad.'
p5237
ag198
tp5238
a((lp5239
S'First'
p5240
ag37
aS'removed'
p5241
aS'each'
p5242
aS'piece'
p5243
aS'and'
p5244
aS'laid'
p5245
aS'them'
p5246
aS'out'
p5247
aS'on'
p5248
aS'my'
p5249
aS'coffee'
p5250
aS'table.'
p5251
ag23
tp5252
a((lp5253
g37
aS'am'
p5254
aS'now'
p5255
aS'staring'
p5256
aS'at'
p5257
aS'an'
p5258
aS'array'
p5259
aS'of'
p5260
aS'stuff'
p5261
aS'including'
p5262
aS'Zen'
p5263
aS'Micro'
p5264
aS'player,'
p5265
aS'stereo'
p5266
aS'earbud'
p5267
aS'headphones,'
p5268
ag133
aS'rechargeable'
p5269
aS'lithium-ion'
p5270
aS'battery,'
p5271
aS'an'
p5272
aS'AC/DC'
p5273
aS'power'
p5274
aS'adapter,'
p5275
ag133
aS'USB'
p5276
aS'2.0'
p5277
aS'cable,'
p5278
ag133
aS'belt-clip,'
p5279
ag133
aS'stand,'
p5280
ag133
aS'stylish'
p5281
aS'cloth'
p5282
aS'pouch,'
p5283
aS'an'
p5284
aS'installation'
p5285
aS'CD,'
p5286
ag133
aS'quick-start'
p5287
aS'guide,'
p5288
aS'and'
p5289
aS'Creative'
p5290
aS'MediaSource'
p5291
aS'software.'
p5292
ag198
tp5293
a((lp5294
S'Next'
p5295
ag37
aS'wanted'
p5296
aS'to'
p5297
aS'update'
p5298
aS'the'
p5299
aS'software,'
p5300
aS'after'
p5301
ag133
aS'quick'
p5302
aS'firmware'
p5303
aS'upgrade'
p5304
aS'the'
p5305
aS'player'
p5306
aS'was'
p5307
aS'ready'
p5308
aS'to'
p5309
aS'go.'
p5310
ag23
tp5311
a((lp5312
g37
aS'sync'
p5313
aS'the'
p5314
aS'player'
p5315
aS'with'
p5316
aS'Napster'
p5317
aS'software'
p5318
aS'and'
p5319
aS'it'
p5320
aS'downloaded'
p5321
aS'the'
p5322
aS'library'
p5323
ag37
aS'had'
p5324
aS'already'
p5325
aS'created.'
p5326
ag23
tp5327
a((lp5328
S'My'
p5329
aS'PC'
p5330
aS'only'
p5331
aS'supports'
p5332
aS'USB'
p5333
aS'1.0'
p5334
aS'not'
p5335
aS'the'
p5336
aS'2.0'
p5337
aS'which'
p5338
aS'is'
p5339
aS'blazing'
p5340
aS'fast.'
p5341
ag23
tp5342
a((lp5343
S'So'
p5344
aS'the'
p5345
aS'download'
p5346
aS'was'
p5347
aS'much'
p5348
aS'slower.'
p5349
ag23
tp5350
a((lp5351
S'The'
p5352
aS'interface'
p5353
aS'works'
p5354
aS'great.'
p5355
ag198
tp5356
a((lp5357
g37
aS'enjoy'
p5358
aS'getting'
p5359
aS'use'
p5360
aS'to'
p5361
aS'the'
p5362
aS'touch'
p5363
aS'pad.'
p5364
ag198
tp5365
a((lp5366
S'In'
p5367
aS'minutes'
p5368
ag37
aS'was'
p5369
aS'easily'
p5370
aS'navigating'
p5371
aS'through'
p5372
aS'the'
p5373
aS'menus.'
p5374
ag198
tp5375
a((lp5376
S'What'
p5377
aS'impressed'
p5378
aS'me'
p5379
aS'most'
p5380
aS'was'
p5381
aS'the'
p5382
aS'sound.'
p5383
ag198
tp5384
a((lp5385
S'At'
p5386
aS'128'
p5387
aS'the'
p5388
aS'songs'
p5389
aS'sound'
p5390
aS'very'
p5391
aS'good.'
p5392
ag198
tp5393
a((lp5394
S'My'
p5395
aS'hobby'
p5396
aS'is'
p5397
aS'home'
p5398
aS'audio'
p5399
aS'and'
p5400
aS'home'
p5401
aS'theater.'
p5402
ag23
tp5403
a((lp5404
S'The'
p5405
aS'Zen'
p5406
aS'lives'
p5407
aS'up'
p5408
aS'to'
p5409
aS'the'
p5410
aS'audio'
p5411
aS'quality'
p5412
ag37
aS'love'
p5413
aS'and'
p5414
aS'expect.'
p5415
ag198
tp5416
a((lp5417
S'The'
p5418
aS'Earbuds'
p5419
aS'are'
p5420
aS'great'
p5421
aS'headphones'
p5422
aS'as'
p5423
aS'good'
p5424
aS'as'
p5425
aS'my'
p5426
aS'AGK'
p5427
aS'Studio'
p5428
aS'240,'
p5429
aS'well'
p5430
aS'not'
p5431
aS'as'
p5432
aS'good'
p5433
aS'but'
p5434
aS'darn'
p5435
aS'close.'
p5436
ag198
tp5437
a((lp5438
S'Creative'
p5439
aS'says'
p5440
aS'that'
p5441
aS'the'
p5442
aS'software'
p5443
aS'engine'
p5444
aS'for'
p5445
aS'this'
p5446
aS'MP3'
p5447
aS'is'
p5448
aS'the'
p5449
aS'best'
p5450
aS'hands'
p5451
aS'down.'
p5452
ag23
tp5453
a((lp5454
g37
aS'believe'
p5455
aS'them.'
p5456
ag23
tp5457
a((lp5458
S'Overall'
p5459
aS'this'
p5460
aS'play'
p5461
aS'is'
p5462
aS'my'
p5463
aS'introduction'
p5464
aS'into'
p5465
aS'the'
p5466
aS'market.'
p5467
ag23
tp5468
a((lp5469
S'The'
p5470
aS'Zen'
p5471
aS'was'
p5472
aS'an'
p5473
aS'impressive'
p5474
aS'purchase'
p5475
aS'and'
p5476
ag37
aS'would'
p5477
aS'highly'
p5478
aS'recommend'
p5479
aS'it'
p5480
aS'to'
p5481
aS'anyone'
p5482
aS'using'
p5483
aS'Napster.'
p5484
ag23
tp5485
a((lp5486
S'If'
p5487
aS"you're"
p5488
aS'an'
p5489
aS'itunes'
p5490
aS'person'
p5491
aS'then'
p5492
aS'no'
p5493
aS'one'
p5494
aS'could'
p5495
aS'argue'
p5496
aS'against'
p5497
aS'an'
p5498
aS'IPod.'
p5499
ag23
tp5500
a((lp5501
g37
aS'got'
p5502
aS'my'
p5503
aS'Zen'
p5504
aS'Micro'
p5505
aS'last'
p5506
aS'week.'
p5507
ag23
tp5508
a((lp5509
g37
aS'absolutely'
p5510
aS'love'
p5511
aS'it.'
p5512
ag198
tp5513
a((lp5514
S"It's"
p5515
aS'so'
p5516
aS'small.'
p5517
ag198
tp5518
a((lp5519
S'It'
p5520
aS'looks'
p5521
aS'sleek'
p5522
aS'and'
p5523
aS'modern.'
p5524
ag198
tp5525
a((lp5526
S'It'
p5527
aS'holds'
p5528
aS'plenty'
p5529
aS'of'
p5530
aS'songs.'
p5531
ag198
tp5532
a((lp5533
S'The'
p5534
aS'sound'
p5535
aS'is'
p5536
aS'amazing.'
p5537
ag198
tp5538
a((lp5539
S'The'
p5540
aS'menu'
p5541
aS'is'
p5542
aS'easy'
p5543
aS'to'
p5544
aS'use'
p5545
aS'and'
p5546
aS'understand.'
p5547
ag198
tp5548
a((lp5549
g37
aS'love'
p5550
aS'the'
p5551
aS'touchpade'
p5552
aS'controls.'
p5553
ag198
tp5554
a((lp5555
S"They're"
p5556
aS'easy'
p5557
aS'to'
p5558
aS'use.'
p5559
ag198
tp5560
a((lp5561
S'The'
p5562
aS'radio'
p5563
aS'and'
p5564
aS'voice'
p5565
aS'recording'
p5566
aS'are'
p5567
aS'nice.'
p5568
ag198
tp5569
a((lp5570
S'The'
p5571
aS'earbud'
p5572
aS'headphones'
p5573
aS'are'
p5574
aS'really'
p5575
aS'nice.'
p5576
ag198
tp5577
a((lp5578
S'The'
p5579
aS'battery'
p5580
aS'has'
p5581
ag133
aS'long'
p5582
aS'life.'
p5583
ag198
tp5584
a((lp5585
S"It's"
p5586
aS'rechargable'
p5587
aS'and'
p5588
aS'supposedly'
p5589
aS'easy'
p5590
aS'to'
p5591
aS'replace'
p5592
aS'though'
p5593
ag37
aS"haven't"
p5594
aS'had'
p5595
aS'to'
p5596
aS'do'
p5597
aS'it'
p5598
aS'yet'
p5599
aS'of'
p5600
aS'course.'
p5601
ag198
tp5602
a((lp5603
S'The'
p5604
aS'file'
p5605
aS'ripping/transfering'
p5606
aS'software'
p5607
aS'that'
p5608
aS'comes'
p5609
aS'with'
p5610
aS'the'
p5611
aS'player'
p5612
aS'is'
p5613
aS'easy'
p5614
aS'to'
p5615
aS'use.'
p5616
ag198
tp5617
a((lp5618
S"It's"
p5619
aS'faster'
p5620
aS'than'
p5621
aS'WMP.'
p5622
ag198
tp5623
a((lp5624
S'So'
p5625
aS'far'
p5626
ag37
aS'have'
p5627
aS'no'
p5628
aS'complaints'
p5629
aS'with'
p5630
aS'this'
p5631
aS'player.'
p5632
ag198
tp5633
a((lp5634
S'If'
p5635
aS'anyone'
p5636
aS'is'
p5637
aS'thinkning'
p5638
aS'of'
p5639
aS'getting'
p5640
aS'an'
p5641
aS'ipod'
p5642
aS'mini,'
p5643
aS'forget'
p5644
aS'it'
p5645
aS'and'
p5646
aS'go'
p5647
aS'with'
p5648
aS'this'
p5649
aS'player.'
p5650
ag23
tp5651
a((lp5652
S"It's"
p5653
aS'cheaper,'
p5654
aS'holds'
p5655
aS'more'
p5656
aS'songs'
p5657
aS'and'
p5658
aS'is'
p5659
aS'smaller.'
p5660
ag198
tp5661
a((lp5662
S'If'
p5663
aS'you'
p5664
aS'are'
p5665
aS'like'
p5666
aS'me'
p5667
aS'who'
p5668
aS'wants'
p5669
aS'move'
p5670
aS'to'
p5671
aS'the'
p5672
aS'next'
p5673
aS'phase'
p5674
aS'of'
p5675
aS'portable'
p5676
aS'audio'
p5677
aS'from'
p5678
aS'conventional'
p5679
aS'portable'
p5680
aS'CD'
p5681
aS'players'
p5682
ag37
aS'hope'
p5683
aS'you'
p5684
aS'find'
p5685
aS'this'
p5686
aS'usefull.'
p5687
ag23
tp5688
a((lp5689
S'Space'
p5690
aS':'
p5691
aS'5GB'
p5692
aS'=2500'
p5693
aS'songs.'
p5694
ag23
tp5695
a((lp5696
S'If'
p5697
aS'you'
p5698
aS'have'
p5699
ag133
aS'huge'
p5700
aS'CD'
p5701
aS'collection,'
p5702
aS'5GB'
p5703
aS'can'
p5704
aS'hold'
p5705
aS'only'
p5706
ag133
aS'part'
p5707
aS'of'
p5708
aS'your'
p5709
aS'CD'
p5710
aS'collection.'
p5711
ag23
tp5712
a((lp5713
S'Remember'
p5714
aS'mp3'
p5715
aS'format'
p5716
aS'lets'
p5717
aS'you'
p5718
aS'store'
p5719
aS'tons'
p5720
aS'of'
p5721
aS'songs.'
p5722
ag23
tp5723
a((lp5724
g37
aS'have'
p5725
aS'stored'
p5726
aS'40'
p5727
aS'audio'
p5728
aS'CDs'
p5729
aS'and'
p5730
ag276
aS'still'
p5731
aS'have'
p5732
aS'close'
p5733
aS'to'
p5734
aS'2.8'
p5735
aS'GB'
p5736
aS'free.'
p5737
ag198
tp5738
a((lp5739
S'User'
p5740
aS'Interface:'
p5741
aS'The'
p5742
aS'software'
p5743
aS'is'
p5744
aS'simple'
p5745
aS'and'
p5746
aS'straight'
p5747
aS'forward.'
p5748
ag198
tp5749
a((lp5750
S'Havent'
p5751
aS'read'
p5752
aS'the'
p5753
aS'manual'
p5754
aS'till'
p5755
aS'now'
p5756
aS'(remember'
p5757
ag37
aS'am'
p5758
aS'good'
p5759
aS'time'
p5760
aS'computer'
p5761
aS'user).'
p5762
ag23
tp5763
a((lp5764
S'PC'
p5765
aS'software'
p5766
aS'that'
p5767
aS'comes'
p5768
aS'with'
p5769
aS'the'
p5770
aS'player'
p5771
aS'is'
p5772
aS'not'
p5773
aS'as'
p5774
aS'simple'
p5775
aS'as'
p5776
ag276
aS'Tunes'
p5777
aS'but'
p5778
aS'its'
p5779
aS'not'
p5780
aS'bad'
p5781
aS'at'
p5782
aS'all.'
p5783
ag44
tp5784
a((lp5785
S'The'
p5786
aS'scrol'
p5787
aS'bar'
p5788
aS'agian'
p5789
aS'takes'
p5790
aS'some'
p5791
aS'getting'
p5792
aS'used'
p5793
aS'to.'
p5794
ag44
tp5795
a((lp5796
S'You'
p5797
aS'can'
p5798
aS'use'
p5799
aS'the'
p5800
aS'player'
p5801
aS'to'
p5802
aS'store'
p5803
aS'your'
p5804
aS'computer'
p5805
aS'data'
p5806
aS'files'
p5807
aS'(Good'
p5808
aS'feature'
p5809
aS'to'
p5810
aS'have).'
p5811
ag198
tp5812
a((lp5813
S'Battery'
p5814
ag5691
ag98
aS'Big'
p5815
aS'Big'
p5816
aS'plus.'
p5817
ag198
tp5818
a((lp5819
S'Most'
p5820
aS'of'
p5821
aS'the'
p5822
aS'other'
p5823
aS'players'
p5824
ag37
aS'checked'
p5825
aS'dont'
p5826
aS'have'
p5827
aS'user'
p5828
aS'servicable'
p5829
aS'battery.'
p5830
ag198
tp5831
a((lp5832
S'Zen'
p5833
aS'micro'
p5834
aS'does.'
p5835
ag23
tp5836
a((lp5837
g37
aS'have'
p5838
aS'two'
p5839
aS'spare'
p5840
aS'batteries'
p5841
aS'(brought'
p5842
aS'on'
p5843
aS'ebay'
p5844
aS'for'
p5845
aS'28'
p5846
aS'bucks'
p5847
aS'each).'
p5848
ag23
tp5849
a((lp5850
S'Remember'
p5851
aS'this'
p5852
aS'is'
p5853
ag133
aS'huge'
p5854
aS'plus'
p5855
aS'when'
p5856
aS'travelling.'
p5857
ag23
tp5858
a((lp5859
S'Each'
p5860
aS'battery'
p5861
aS'lasts'
p5862
aS'about'
p5863
aS'10-11'
p5864
aS'hours.'
p5865
ag198
tp5866
a((lp5867
S'If'
p5868
aS'one'
p5869
aS'battery'
p5870
aS'drains'
p5871
aS'just'
p5872
aS'snap'
p5873
aS'the'
p5874
aS'spare'
p5875
aS'one'
p5876
aS'and'
p5877
aS'you'
p5878
aS'are'
p5879
aS'back'
p5880
aS'in'
p5881
aS'bussiness.'
p5882
ag23
tp5883
a((lp5884
S'Another'
p5885
aS'good'
p5886
aS'feature'
p5887
aS'is'
p5888
aS'that'
p5889
aS'you'
p5890
aS'can'
p5891
aS'charge'
p5892
aS'the'
p5893
aS'battery'
p5894
aS'by'
p5895
aS'just'
p5896
aS'connecting'
p5897
aS'the'
p5898
aS'player'
p5899
aS'to'
p5900
aS'your'
p5901
aS'computer'
p5902
aS'using'
p5903
aS'the'
p5904
aS'USB'
p5905
aS'cable.'
p5906
ag198
tp5907
a((lp5908
S'FM'
p5909
aS'tuner'
p5910
ag1856
aS'Microphone'
p5911
ag5691
aS'Having'
p5912
ag133
aS'tuner'
p5913
aS'in'
p5914
aS'the'
p5915
aS'player'
p5916
aS'is'
p5917
ag133
aS'blessing.'
p5918
ag198
tp5919
a((lp5920
S'Dont'
p5921
aS'have'
p5922
aS'to'
p5923
aS'switch'
p5924
aS'to'
p5925
aS'another'
p5926
aS'device'
p5927
aS'for'
p5928
aS'FM'
p5929
aS'tuner.'
p5930
ag23
tp5931
a((lp5932
S'Since'
p5933
aS'zen'
p5934
aS'does'
p5935
aS'not'
p5936
aS'have'
p5937
aS'an'
p5938
aS'external'
p5939
aS'antena'
p5940
aS'it'
p5941
aS'has'
p5942
aS'some'
p5943
aS'problems'
p5944
aS'catching'
p5945
aS'weak'
p5946
aS'signals'
p5947
aS'but'
p5948
aS'it'
p5949
aS'works.'
p5950
ag44
tp5951
a((lp5952
S'Builtin'
p5953
aS'microphone'
p5954
aS'is'
p5955
aS'great'
p5956
aS'for'
p5957
aS'recording'
p5958
aS'short'
p5959
aS'voice'
p5960
aS'notes.'
p5961
ag198
tp5962
a((lp5963
g37
aS'have'
p5964
aS'heard'
p5965
aS'in'
p5966
aS'other'
p5967
aS'players'
p5968
aS'these'
p5969
aS'have'
p5970
aS'to'
p5971
aS'be'
p5972
aS'brought'
p5973
aS'separately.'
p5974
ag23
tp5975
a((lp5976
S'Sound:'
p5977
aS'This'
p5978
aS'is'
p5979
aS'where'
p5980
ag37
aS'love'
p5981
aS'Zen'
p5982
aS'the'
p5983
aS'most.'
p5984
ag198
tp5985
a((lp5986
S'Excellent'
p5987
aS'sound'
p5988
ag37
aS'mean'
p5989
aS'the'
p5990
aS'player'
p5991
aS'has'
p5992
aS'juice.'
p5993
ag198
tp5994
a((lp5995
g37
aS'dont'
p5996
aS'use'
p5997
aS'the'
p5998
aS'headphones'
p5999
aS'that'
p6000
aS'come'
p6001
aS'with'
p6002
aS'it'
p6003
aS'instead'
p6004
ag37
aS'use'
p6005
aS'Bose'
p6006
aS'Triport'
p6007
aS'headphones.'
p6008
ag23
tp6009
a((lp6010
S'The'
p6011
aS'player'
p6012
aS'has'
p6013
aS'great'
p6014
aS'potential'
p6015
aS'(ur'
p6016
aS'experiance'
p6017
aS'may'
p6018
aS'differ'
p6019
aS'based'
p6020
aS'on'
p6021
aS'your'
p6022
aS'headphones).'
p6023
ag23
tp6024
a((lp6025
S'The'
p6026
aS'bass'
p6027
aS'treble'
p6028
aS'the'
p6029
aS'sound'
p6030
aS'detail'
p6031
aS'is'
p6032
aS'awsome.'
p6033
ag198
tp6034
a((lp6035
g37
aS'compared'
p6036
aS'it'
p6037
aS'to'
p6038
aS'other'
p6039
aS'CD'
p6040
aS'players'
p6041
aS'(Two'
p6042
aS'models'
p6043
aS'of'
p6044
aS'Panasonic,'
p6045
aS'Rio'
p6046
ag1856
aS'samsung)'
p6047
aS'and'
p6048
aS'they'
p6049
aS'were'
p6050
aS'no'
p6051
aS'way'
p6052
aS'even'
p6053
aS'near'
p6054
aS'Zen'
p6055
aS'Micro.'
p6056
ag23
tp6057
a((lp6058
S'Looks'
p6059
aS'and'
p6060
aS'shape:'
p6061
ag37
aS'have'
p6062
ag133
aS'black'
p6063
aS'one'
p6064
aS'and'
p6065
aS'the'
p6066
aS'first'
p6067
aS'time'
p6068
ag37
aS'charged'
p6069
aS'it'
p6070
aS'and'
p6071
aS'switched'
p6072
aS'it'
p6073
aS'on'
p6074
aS'jeez'
p6075
aS'the'
p6076
aS'blue'
p6077
aS'light'
p6078
aS'looked'
p6079
aS'so'
p6080
aS'cool.'
p6081
ag198
tp6082
a((lp6083
S'Its'
p6084
aS'compact'
p6085
aS'and'
p6086
aS'has'
p6087
aS'rounded'
p6088
aS'edges.'
p6089
ag198
tp6090
a((lp6091
S'Fits'
p6092
aS'well'
p6093
aS'in'
p6094
aS'hand'
p6095
aS'in'
p6096
aS'trouser'
p6097
aS'pockets.'
p6098
ag198
tp6099
a((lp6100
S'Freebies'
p6101
aS'you'
p6102
aS'get:'
p6103
ag98
aS'cradle'
p6104
aS'with'
p6105
aS'detachable'
p6106
aS'stand'
p6107
aS'and'
p6108
aS'belt'
p6109
aS'clip,'
p6110
aS'some'
p6111
aS'thing'
p6112
aS'very'
p6113
aS'handy'
p6114
aS'and'
p6115
aS'useful.'
p6116
ag198
tp6117
a((lp6118
g37
aS'dont'
p6119
aS'use'
p6120
aS'the'
p6121
aS'belt'
p6122
aS'clip'
p6123
aS'cuz'
p6124
aS'it'
p6125
aS'fails'
p6126
aS'to'
p6127
aS'hold'
p6128
aS'the'
p6129
aS'player'
p6130
aS'securely'
p6131
aS'(design'
p6132
aS'problem).'
p6133
ag44
tp6134
a((lp6135
S'Instead'
p6136
ag37
aS'use'
p6137
ag133
aS'cellphone'
p6138
aS'cover'
p6139
aS'with'
p6140
ag133
aS'belt'
p6141
aS'clip'
p6142
aS'and'
p6143
aS'it'
p6144
aS'works'
p6145
aS'just'
p6146
aS'fine.'
p6147
ag23
tp6148
a((lp6149
S'You'
p6150
aS'get'
p6151
ag133
aS'USB'
p6152
aS'cable'
p6153
aS'headphones,'
p6154
ag133
aS'pouch,'
p6155
aS'software'
p6156
aS'except'
p6157
aS'headphones'
p6158
aS'you'
p6159
aS'will'
p6160
aS'like'
p6161
aS'every'
p6162
aS'thing'
p6163
aS'else.'
p6164
ag23
tp6165
a((lp6166
S'What'
p6167
ag37
aS'dont'
p6168
aS'like:'
p6169
aS'Nothing'
p6170
aS'much'
p6171
aS'except'
p6172
aS'Headphones,'
p6173
aS'Belt'
p6174
aS'clip'
p6175
aS'design.'
p6176
ag44
tp6177
a((lp6178
S'Creative'
p6179
aS'has'
p6180
aS'not'
p6181
aS'lounched'
p6182
aS'any'
p6183
aS'silicon'
p6184
aS'cover'
p6185
aS'for'
p6186
aS'the'
p6187
aS'player'
p6188
aS'like'
p6189
aS"ipod's"
p6190
aS'(I'
p6191
aS'think'
p6192
aS'belkin'
p6193
aS'makes'
p6194
aS'it'
p6195
aS'for'
p6196
aS'ipod).'
p6197
ag23
tp6198
a((lp6199
S'Stuff'
p6200
aS'you'
p6201
aS'may'
p6202
aS'need'
p6203
aS'to'
p6204
aS'buy:'
p6205
aS'Wired'
p6206
aS'remote'
p6207
aS'from'
p6208
aS'creative.'
p6209
ag23
tp6210
a((lp6211
S'This'
p6212
aS'is'
p6213
ag133
aS'must'
p6214
aS'have.'
p6215
ag23
tp6216
a((lp6217
S'Spare'
p6218
aS'batteries'
p6219
aS'incase'
p6220
aS'you'
p6221
aS'need'
p6222
aS'some'
p6223
aS'extra'
p6224
aS'hours'
p6225
aS'without'
p6226
aS'charging.'
p6227
ag23
tp6228
a((lp6229
S'FM'
p6230
aS'transmitter'
p6231
aS'(belkin'
p6232
aS'has'
p6233
ag133
aS'good'
p6234
aS'one)'
p6235
aS'to'
p6236
aS'use'
p6237
aS'Zen'
p6238
aS'with'
p6239
aS'your'
p6240
aS'car'
p6241
aS'Sterio'
p6242
aS'FM'
p6243
aS'Tunner'
p6244
aS'Latest'
p6245
aS'Find:'
p6246
aS'Connected'
p6247
aS'this'
p6248
aS'baby'
p6249
aS'to'
p6250
aS'my'
p6251
aS'$3800'
p6252
aS'audiophile'
p6253
aS'audio'
p6254
aS'system'
p6255
aS'and'
p6256
aS'it'
p6257
aS'produced'
p6258
aS'clean'
p6259
aS'sound'
p6260
aS'compared'
p6261
aS'to'
p6262
aS'Ipod.'
p6263
ag198
tp6264
a((lp6265
S'Tested'
p6266
aS'with'
p6267
aS'the'
p6268
aS'same'
p6269
aS'mp3'
p6270
aS'for'
p6271
aS'benchmarking'
p6272
ag23
tp6273
a((lp6274
g37
aS"can't"
p6275
aS'help'
p6276
aS'but'
p6277
aS'feel'
p6278
aS'peeved'
p6279
aS'by'
p6280
aS'the'
p6281
aS'attitude'
p6282
aS'created'
p6283
aS'by'
p6284
aS'Apple'
p6285
aS'enthusiasts'
p6286
aS'that'
p6287
aS'basically'
p6288
aS'detracts'
p6289
aS'from'
p6290
aS'anything'
p6291
aS'that'
p6292
aS'attempts'
p6293
aS'to'
p6294
aS'compete'
p6295
aS'with'
p6296
aS'Apple'
p6297
aS'products'
p6298
aS'in'
p6299
aS'the'
p6300
aS'marketplace.'
p6301
ag23
tp6302
a((lp6303
S'Thankfully,'
p6304
aS'Creative'
p6305
aS'has'
p6306
aS'come'
p6307
aS'through'
p6308
aS'with'
p6309
ag133
aS'product'
p6310
aS'that'
p6311
aS'puts'
p6312
aS'the'
p6313
aS'Ipod'
p6314
aS'back'
p6315
aS'in'
p6316
aS'its'
p6317
aS'place.'
p6318
ag198
tp6319
a((lp6320
S'While'
p6321
ag37
aS'have'
p6322
aS'not'
p6323
aS'had'
p6324
aS'the'
p6325
aS'"privilege",'
p6326
aS'as'
p6327
aS'many'
p6328
aS'call'
p6329
aS'it,'
p6330
aS'of'
p6331
aS'owning'
p6332
aS'an'
p6333
aS'Ipod,'
p6334
aS'based'
p6335
aS'on'
p6336
aS'the'
p6337
aS'experience'
p6338
aS'of'
p6339
aS'friends'
p6340
aS'who'
p6341
aS'have'
p6342
aS'had'
p6343
aS'some'
p6344
aS'misfortune'
p6345
aS'with'
p6346
aS'their'
p6347
aS'Ipod'
p6348
aS'(and'
p6349
aS'subsequently'
p6350
aS'purchased'
p6351
aS'the'
p6352
aS'Zen'
p6353
aS'Touch'
p6354
aS'or'
p6355
aS'Zen'
p6356
aS'Micro),'
p6357
ag37
aS'can'
p6358
aS'pretty'
p6359
aS'much'
p6360
aS'rest'
p6361
aS'assured'
p6362
aS'that'
p6363
aS'my'
p6364
aS'decision'
p6365
aS'to'
p6366
aS'purchase'
p6367
aS'the'
p6368
aS'Zen'
p6369
aS'Micro'
p6370
aS'was'
p6371
aS'one'
p6372
aS'of'
p6373
aS'the'
p6374
aS'more'
p6375
aS'informed'
p6376
aS'ones.'
p6377
ag198
tp6378
a((lp6379
S'Nevertheless,'
p6380
ag37
aS'still'
p6381
aS'get'
p6382
aS'shirked'
p6383
aS'when'
p6384
aS'someone'
p6385
aS'out'
p6386
aS'of'
p6387
aS'ignorance'
p6388
aS'states'
p6389
aS'"But'
p6390
aS"it's"
p6391
aS'not'
p6392
aS'an'
p6393
aS'IPod!"'
p6394
aS'or'
p6395
aS'"Never'
p6396
aS'heard'
p6397
aS'of'
p6398
aS'it,'
p6399
aS"I'll"
p6400
aS'go'
p6401
aS'with'
p6402
aS'the'
p6403
aS'IPod".'
p6404
ag23
tp6405
a((lp6406
g23
tp6407
a.