(dp0
S'There are 2 things that need fixing  First is the battery life. It will run for 6 hrs without problems with medium usage of the buttons.'
p1
(dp2
S'battery life'
p3
S'-2]'
p4
ssS'Second might be a problem I might have with my PC but not too sure, when the player is connected on the USB and I start playing on it and also using the windows explorer, it sometimes pauses by itself and tries to synchronise with the PC during play, which is a bit irritating.'
p5
(dp6
S'USB'
p7
S'-2]'
p8
ssS'After using it for a week, I wish I had purchased the Ipod.'
p9
NsS'What compels you to choose one over the other?'
p10
NsS"It's perfect for those who aren't planning on storing tons of music."
p11
(dp12
S'storage'
p13
S'-1][u]'
p14
ssS'Unfortunately, the touch-pad issues [non-intuitive] and poor instruction guide killed it.'
p15
(dp16
S' instruction'
p17
S'-3]'
p18
sS'touch-pad'
p19
S'-3'
p20
ssS'Also if you want to purchase music, its just .79cents per track ..... Here is my origianl review...." My wife already had the Ipod Mini when I purchased this, and I must say seeing it in action, I had some reservations about getting a Zen.'
p21
NsS"I've read about the issues with the scroll bar, but they must have taken care of that now."
p22
(dp23
S'scroll bar'
p24
S'-1]'
p25
ssS'Strong Points: - Design: small, comfortable, curved, and stylish.'
p26
(dp27
S' comfort'
p28
S'+2][u'
p29
sS' look'
p30
S'+2]'
p31
sS'design'
p32
S'+2'
p33
sS' size'
p34
S'+2][u'
p35
ssS'I think sound quality should be the first and foremost feature, and the Zen is leaps and bounds better in sound quality, with no need to upgrade the earphones.'
p36
(dp37
S'sound quality'
p38
S'+3]'
p39
ssS'Capacity?'
p40
NsS'I had been eyeing the Creative Zen Micro 5GB as I researched various players.'
p41
NsS"It comes with a built-in program simply entitled 'Creative MediaSource Audio Converter'."
p42
NsS"If you're considering an iPod mini or even an iPod, read this."
p43
NsS'So far I have used all of the above-mentioned features, and find them well designed, and easy to understand.'
p44
(dp45
S' ease ofuse'
p46
S'+2]'
p47
sS'design'
p48
S'+3'
p49
ssS'Now I have to wait another few days for them to get back to me again, probably with more worthless suggestions?'
p50
NsS'It gives you the most bang for your buck, period.'
p51
(dp52
S'player'
p53
S'+2][p]'
p54
ssS"You're better off not dropping below 128 kbps, especially with music."
p55
NsS'A must for me, the fact that you can carry extra batteries is a big bonus.'
p56
NsS'Its just as fast as the included Creative software, but much less invasive, and overall better looking.'
p57
(dp58
S' look'
p59
S'+2]'
p60
sS'speed'
p61
S'+2][u'
p62
ssS'If one battery drains just snap the spare one and you are back in bussiness.'
p63
NsS'Alot of people seem to compare any music player to an Ipod.'
p64
NsS'Pros The Design is very nice, and the colors are too.'
p65
(dp66
S' color'
p67
S'+2]'
p68
sS'design'
p69
S'+2'
p70
ssS'instead of an iPod (I know this is a tediously recurring theme in these reviews, but I want to get my two cents in) was the FM radio.'
p71
NsS'The touchpad is annoying sometimes (give me the click-wheel and pressable buttons any day), but not at all as difficult to get over as other people are saying.'
p72
(dp73
S'touchpad'
p74
S'-1]'
p75
ssS'The Micro seeemed like an iPod for less.'
p76
(dp77
S'price'
p78
S'+2]'
p79
ssS'Creative did an awesome job with the design.'
p80
(dp81
S'design'
p82
S'+3]'
p83
ssS"unarguably better than Apple's, and nice earbuds to boot."
p84
(dp85
S' earbuds'
p86
S'+2]'
p87
sS'sound quality'
p88
S'+][cc'
p89
ssS"I've had Dell Pocket DJ owners, IPOD mini AND Shuffle owners marvel at this thing."
p90
NsS'and if you have 2500 songs, as you might very well, you will be reluctant to edit the clip properties of 2500 files.'
p91
NsS'Creative did well on its rechargeable battery feature. .'
p92
(dp93
S'rechargeable battery'
p94
S'+3]'
p95
ssS'The light pulsates when you are charging it almost as if it were breathing.'
p96
NsS'Battery : A Big Big plus.'
p97
(dp98
S'Battery'
p99
S'+3]'
p100
ssS'Most of the other players I checked dont have user servicable battery.'
p101
(dp102
S'battery usage'
p103
S'+2][u'
p104
ssS'So I went to www.playforsure.com to see what devices were compatible with various downloading services.'
p105
NsS'The player is smaller than you think.'
p106
(dp107
S'size'
p108
S'+2][u]'
p109
ssS'The battery has a long life.'
p110
(dp111
S'batterylife'
p112
S'+2]'
p113
ssS"Any audio files in this area can't be played by the player."
p114
NsS'I love my dark blue zen micro and would definitely recommend it.'
p115
(dp116
S'player'
p117
S'+][s]'
p118
ssS'Its $4.99 a month ($60 annually) to download as much music as you like.'
p119
NsS"I think the OS and controls are very well thought out and although I'll admit I was a bit intimidated during my first few hours with the Micro, the interface and controls became second nature after the first day or so."
p120
(dp121
S'interface'
p122
S'+2'
p123
sS' controls'
p124
S'+2]'
p125
ssS'It has Apple insipid written all over it.'
p126
NsS'The software included is an easy installation and you have the option of using the Creative software, Windows Media Player 10, or simply Windows Explorer to move music back and forth between your Zen Touch.'
p127
(dp128
S'installation'
p129
S'+3]'
p130
ssS"But, all of this means nothing, because of the serious, serious, stupid and ridiculously elemenatary design flaw: After 3 months, give or take a few weeks, you won't be able to hear anything."
p131
(dp132
S'design'
p133
S'-3]'
p134
ssS'And all you do is select all the tracks in the iTunes playlist and drag them to the File Explorer window.'
p135
NsS'Also, the latest version of the firmware seems to actual deliver (in fact, more than deliver) the 12 hour battery life the specifications claim.'
p136
NsS'Apple never was involved with a lot of audio products until the Ipod.'
p137
NsS'[+][s] ##BUY THE ZEN!"'
p138
NsS"Bottomline, don't even bother with the software that comes with the Zen Micro."
p139
NsS"My preference for the touchpad sensitivity setting is 'medium'."
p140
NsS'Better for the Zen Micro is Outlook compatibility.'
p141
(dp142
S'Outlook compatibility'
p143
S'+2]'
p144
ssS"just as well and would be less confusing for new owners, but i guess they wanted to rival the iPod's search wheel."
p145
NsS'It also has tons more features then previous creative products, and most of them are very useful such as the ability to custimize the main menu to show the stuff you want, not the default items (creativelabs.com for more on that).'
p146
(dp147
S'features'
p148
S'+2]'
p149
ssS'If only only it was that simple.'
p150
NsS'The Creative MediaSource software that comes with the Zen Micro is cluttered, and excludes my favorite feature in iTunes, the ability to automatically copy everything you import into a certain folder.'
p151
(dp152
S' feature'
p153
S'-2][u]'
p154
sS'software'
p155
S'-2'
p156
ssS"included - charges via USB, so whenever you plug it into your computer, it's charging up."
p157
NsS"+Sorts music by artist, album, genre, etc... it's easy to wade through 5 gigs of tunes to find what you're looking for."
p158
(dp159
S'navigation'
p160
S'+2]'
p161
ssS'The software is very easy to use, and the transfer is super fast!'
p162
(dp163
S' file transfer speed'
p164
S'+3][u]'
p165
sS'software'
p166
S'+2'
p167
ssS'This is what I do:  I copy all the music I want to import to the Zen Micro into an iTunes play list.'
p168
NsS'jack that Creative has acknowledge.'
p169
NsS"The world of MP3 players is blinding, and since most people don't understand the technology [myself included], user-friendliness is EXTREMELY IMPORTANT."
p170
NsS'where close to 12 hours but at least it is replaceable (and they included a second one free).'
p171
(dp172
S'battery life'
p173
S'-1][p]'
p174
ssS'Smaller size, 1 gb of more space, radio, voice recording, removable battery, cooler look, all in one.'
p175
(dp176
S' look'
p177
S'+2'
p178
sS' battery'
p179
S'+2'
p180
sS' space'
p181
S'+2][u'
p182
sS'size'
p183
S'+2'
p184
ssS'Plus, from the Creative discussion forums it is clear that they have some problems with excessive battery drainage with the current firmware.'
p185
NsS'I already own the Creative Nomad Zen, the 30 gig version.'
p186
NsS'A few reviewers have also complained about the printed manual which is probably one of the biggest wastes of paper ever included with an electronic device.'
p187
NsS'Feature for feature, I find it a very sweet little player; equipped with a higher end headphone system, between this and th larger Zen Ihardly use my home stereo system anymore.'
p188
(dp189
S' headphones'
p190
S'+2]'
p191
sS'features'
p192
S'+2'
p193
ssS'Its ability to record radio is useful as well, but would have been moreso if it could be preset.'
p194
(dp195
S'radio record'
p196
S'+1]'
p197
ssS'In other words, you have to do almost the equivalent of open heart surgery in order just to see where the problem is.'
p198
NsS"I've been looking for a portable MP3 player for awhile now."
p199
NsS"Sound  I'm no audiophile but I was amazed by the clarity the player had, it was much better than the sound card on my Computer and louder too."
p200
(dp201
S'sound'
p202
S'+3]'
p203
ssS'The accesories that come with the player are great.'
p204
(dp205
S'accessories'
p206
S'+3]'
p207
ssS"I loved the Zen Micro, and thus it pains me to say this, but I have a hard time recommending something, when I've had two of them break on me in such a short time of owning them."
p208
NsS'I imagine if I left my player untouched (no backlight) it could play for considerably more than 12 hours at a low volume level.'
p209
(dp210
S'battery life'
p211
S'+2][u]'
p212
ssS'- Great sound! I was very impressed, I encode at 192 kbps and the audio quality is great, especially with the better headphones.'
p213
(dp214
S'sound'
p215
S'+3'
p216
sS' audio quality'
p217
S'+3]'
p218
ssS'Creative has been making computer sound equipment for decades and with the zen micro it finally has something with enough quality and, yes, charm to win a nice size of the digital player pie.'
p219
(dp220
S'quality'
p221
S'+2]'
p222
ssS'pick it up from the store.'
p223
NsS'Loved the service so much I decided to buy an MP3 player and upgrade from the basic Napster to Napster To Go.'
p224
NsS'I also hated the packaging, with a passion.'
p225
NsS'you just get used to it after a while.'
p226
NsS'The buttons are located on the sides making it difficult to use.'
p227
NsS'Also, as soon as you select a song and set your desired volume level, put the player on HOLD.'
p228
NsS'It looks nice and sleek and the blue background light looks awesome against the black.'
p229
(dp230
S' background light'
p231
S'+3]'
p232
sS'look'
p233
S'+2'
p234
ssS"unboxed and charging up, visit the Creative website for necessary firmware and/or driver upgrades, especially if you're planning to use a service like Napster. ##Keep in mind the required upgrade may be a beta version (mine was)."
p235
NsS'- Looks sleek, compact, has a radio.'
p236
(dp237
S'look'
p238
S'+3'
p239
sS' size'
p240
S'+3][u]'
p241
ssS"**I honestly don't see the point of buying songs from iTunes when there are so many free alternatives."
p242
NsS"-doesn't like to be charged via USB on non windows PCs or PCs that don't have the Zen Micro driver installed."
p243
NsS"I was going to purchase a pink one and then decided that I'd get a purple one because that's my favorite color....however Circuit City had it for $10 cheaper ($219.00) in black and I could !"
p244
NsS'The Creative Zen Micro is a Zen Micro killer, not an Ipod killer.'
p245
(dp246
S'Zen micro'
p247
S'-3]'
p248
ssS"My other nit is that it didn't include at least some kind of carrying case for everything."
p249
(dp250
S'case'
p251
S'-2]'
p252
ssS'I dont use the belt clip cuz it fails to hold the player securely (design problem).'
p253
(dp254
S' design'
p255
S'-2]'
p256
sS'belt clip'
p257
S'-1'
p258
ssS"ayer[+1][u] As I said, I don't regret the purchase at all."
p259
NsS'After reading the reviews, I was all ready for the unit to lock up on me after the initial charge...but it never happened.'
p260
NsS'Not everything in this world is 1!'
p261
NsS'A distinct IPod relation is evident with white colored cables, power plug and the very nice Zen case with a white rubber inside covering.'
p262
(dp263
S'case'
p264
S'+3]'
p265
ssS'Pros: - Excellent sound, even with the headphones that come out of the box, but it absolutely rocked with my Bose Quietcomfort 2 set.'
p266
(dp267
S'sound'
p268
S'+3]'
p269
ssS'out the bulletin boards.'
p270
NsS'I bought this item in part due to the good reviews here on Amazon.'
p271
NsS'Apple stil does it better but needs to come out with a 5 gig mini.'
p272
(dp273
S'screen review'
p274
S'-][cc]'
p275
ssS"The touch sreen navigation will take a little getting used to, but once you do, and while the Zen is still alive, it's a great alternative to the marching in lock step with the click wheel commies."
p276
(dp277
S'touch screen'
p278
S'-1]'
p279
ssS'Overall this play is my introduction into the market.'
p280
NsS'With the right firmware, drag and drop to and from the player like any other jump drive.'
p281
(dp282
S'interface'
p283
S'+2][u]'
p284
ssS"It had issues right off the bat, with freezing up, staying in 'SHUTTING DOWN' mode, and just not functioning very well in general."
p285
(dp286
S'functioning'
p287
S'-3]'
p288
ssS'Remember this is a huge plus when travelling.'
p289
NsS'I have my reasons.'
p290
NsS'But if you get that "fuzzy legal feeling" from paying for songs, at least buy them from allofmp3.com, there are no restrictions and the songs cost pennies.'
p291
NsS'It looks sleek and modern.'
p292
(dp293
S'look'
p294
S'+3'
p295
ssS'Mine came with a wall adapter, but it charges when plugged into the computer anyways.'
p296
NsS'The sound is very nice.'
p297
(dp298
S'sound'
p299
S'+2]'
p300
ssS"After a week I tried to load some more songs and delete a few but the auto load didn't do anything but turn on my player."
p301
(dp302
S'auto load'
p303
S'-2]'
p304
ssS"It may not top the iPod Mini, but it's definitely an alternative if you also want the extra features and good sound quality."
p305
(dp306
S' sound quality'
p307
S'+2]'
p308
sS'features'
p309
S'+2'
p310
ssS'Update 8/11/05:  The latest release of the iPOD firmware fixes teh calender sync bug i noted below.'
p311
NsS"I am one of the many people who (a) are PC Based and (b) can't stand to see the multitudes of people with those funky white headphones that belong to Ipod users. ##I first want to say that I think Apple is making the same old mistake as they did with Macintosh years ago."
p312
NsS'I think that for its price compared to the ipod the creative zen is pretty good.'
p313
(dp314
S'creative zen'
p315
S'+2]'
p316
ssS"I'll talk more about that later."
p317
NsS"For me, I get through a typical day's listening just fine, and I could probably squeeze out two days, but it really is no big deal to just charge the Micro overnight."
p318
NsS"I bought my Zen Micro last december as a christmas gift to myself, save for a few software issues, I couldn't be happier with my purhcase."
p319
NsS'HOWEVER after just one month my headphone jack was BROKEN as a result of normal, every-day use.'
p320
(dp321
S'headphone jack'
p322
S'-3]'
p323
ssS'Looks?'
p324
NsS'It was one of those plastic glued containers that can take you thirty minutes to open.'
p325
NsS'The colors are a joke, and I personally hate the stupid vertical touchpad.'
p326
(dp327
S'color'
p328
S'-2'
p329
sS' touchpad'
p330
S'-2]'
p331
ssS'I do give create to Creative for their attractive design.'
p332
(dp333
S'design'
p334
S'+3]'
p335
ssS'After installation, which was VERY simple....I downloaded any updated software from the Creative website, before I downloaded any music.'
p336
(dp337
S'installation'
p338
S'+1]'
p339
ssS'With so many choices it was a tough decision.'
p340
NsS'3.'
p341
NsS"After comparing the included Creative earbuds directly against my Sony MD-E828LP's and Sennheiser MX-400's, I find myself still using the Creative's, which in my opinion, sound every bit as good and have a slightly longer cord."
p342
(dp343
S'sound'
p344
S'+2]'
p345
ssS'The voice recorder is a beautiful add-on; not even necessary, but just an example of why Apple just wants your money and Creative Labs wants to make a better player.'
p346
(dp347
S' player'
p348
S'+][cc]'
p349
sS'voice record'
p350
S'+2'
p351
ssS'It is not a perfect product but it does have a lot going for it.'
p352
(dp353
S'player'
p354
S'-2]'
p355
ssS"I downloaded the new firmware which was supposed to take care of the problem, but it hasn't worked."
p356
(dp357
S'firmware'
p358
S'-3]'
p359
ssS'It COULD have been a great product.'
p360
NsS'(That was a major turn off).'
p361
NsS'I like some local stations, Stern, and NPR, and so the radio seemed like a great option.'
p362
(dp363
S'radio feature'
p364
S'+1]'
p365
ssS"To me, the key elements that must be present in an MP3 player are as follows:  -Fast transference of songs to player -Well-designed computer-side interface -Easy menu navigation and well-designed control scheme -Good sound (duh) -Reasonable battery time (~6 Hours)  That's it?"
p366
NsS"About the Ipod: it has it's downfalls as well."
p367
NsS' You will find a small folder/envelope on top along with the player.'
p368
NsS'The result, while naturally encompassing the acquisition of greater market share, is a mediocre product that stands out sorely in terms of quality and value when compared in a virtual vacuum to its competitors.'
p369
NsS'Please judge any review you read -- in any medium, be it here or newspapers or magazines -- by its own merits. ****  Fred'
p370
NsS"I'm not sure whether this is related to the charge cycle of its Li-Ion battery, the better firmware, or a combination of both factors."
p371
(dp372
S'firmware'
p373
S'+1]'
p374
ssS"I feel like it's just me and the music and I am transported into a different world."
p375
NsS"Simply removing the battery and then replacing it fixes the issue, but it's annoying."
p376
NsS'I wish they has a "lock" function like cell phones to prevent this.'
p377
NsS"They are bold colors, not the (personally) irratating toned down 'light' Ipod colors."
p378
NsS'Creative Media Source is very easy to use once you get the hang of it, and the file transfers are fast.'
p379
(dp380
S' file transfers'
p381
S'+3]'
p382
sS'Media Source'
p383
S'+2'
p384
ssS'You have to be in an area with good reception, but where I live I can get most of my favorite stations quite well.'
p385
NsS'Do your research; check !'
p386
NsS"I've been using iTunes for about a year now with the intention of eventually buying an iPod."
p387
NsS'The Earbuds are great headphones as good as my AGK Studio 240, well not as good but darn close.'
p388
(dp389
S'headphones'
p390
S'+2]'
p391
ssS'I got my Zen Micro last week.'
p392
NsS"I'm not professing to be a consumer-survey corporation, but I don't know *anyone* with an iTunes account."
p393
NsS"While transferring songs to the player, the interface has crashed a few times (4-5 times in a 4-5 hour period) normally this would cause me major concern, but it appears that this bug is reproducible, which leads me to believe that Creative will fix it with a patched version shortly (or maybe it's just my computer)."
p394
(dp395
S'file transfer'
p396
S'-2]'
p397
ssS'The touch-pad would be a great thing if it worked well, and as I never had issues getting songs transferred to the player, I did have problems accessing them from the player.'
p398
(dp399
S' access'
p400
S'-2]'
p401
sS'touch pad'
p402
S'-2'
p403
ssS"This is Creative's attempt to compete with the IPod mini."
p404
NsS'I enjoy getting use to the touch pad.'
p405
(dp406
S'touchpad'
p407
S'+2]'
p408
ssS'I tried everything to make it work - followed advice from Microsoft support, uninstalled and reinstalled the whole thing, rebooted every five minutes, ran a virus scan on my computer, checked my drives for errors, everything.'
p409
NsS'It has the odd side effect of the buttons only partially working?'
p410
(dp411
S'button functioning'
p412
S'-2][u]'
p413
ssS'After installation, the very first time I booted up the Creative MediaSource Organizer, intending to use its CD burning and ripping functions, it totally shorted out.'
p414
(dp415
S'player'
p416
S'-2]'
p417
ssS"Check the Zen's S/N ratio and DB rating."
p418
NsS"It's easy to find songs, organize songs, and also carry some essentials and diversions."
p419
NsS'The latest craze for MP3 manufacturers is the 5Gb microdrive, a 25% boost from the 4Gb ones supplied by Hitachi.'
p420
NsS'Also, I am quite partial to the Creative MediaSource Organizer and Player software, which I had with Audigy ZS sound card originally; it is definitely an added plus.'
p421
(dp422
S'organizer'
p423
S'+2'
p424
sS'software'
p425
S'+2]'
p426
ssS"When you don't feel like toting a PDA while out for the day (i.e. cycling, window shopping, etc,)simply download everything thru outlook."
p427
NsS'It holds plenty of songs.'
p428
(dp429
S'storage'
p430
S'+3]'
p431
ssS"However, since you're reading this review, you want to avoid getting an iPod."
p432
NsS'Also, the touchpad seems to be waterproof to some degree.'
p433
(dp434
S'touchpad'
p435
S'+1]'
p436
ssS"before i get into the cons, i'll make a note about the scrollpad."
p437
NsS'If you are like me who wants move to the next phase of portable audio from conventional portable CD players I hope you find this usefull.'
p438
NsS'Read the next six mixed pros and cons: .'
p439
NsS"If you send in your Zen to have the flaw fixed, you lose all of the music you've been loading into the thing for 2-3 months, which came out to 1022 songs and 80 albums for me."
p440
NsS'Space : 5GB =2500 songs.'
p441
NsS"Let's face it."
p442
NsS"I'm addicted to music."
p443
NsS'The player has great potential (ur experiance may differ based on your headphones).'
p444
NsS')  Construction?'
p445
NsS'But my biggest gripe is still the extremely ugly design.'
p446
(dp447
S'design'
p448
S'-3]'
p449
ssS'Mp3 players are like a blessing and a curse for people like me.'
p450
NsS'Fits well in hand in trouser pockets.'
p451
(dp452
S'size'
p453
S'+1]'
p454
ssS"* Of Course, if you've BOUGHT tracks from iTunes, this won't work."
p455
NsS'Cranking the master volume level up past the mark of the bar only leads to distortion and compromised sound quality.'
p456
(dp457
S'volume '
p458
S'-1]'
p459
ssS'The belt clip however is not very useful if you move around a lot.'
p460
NsS"In stores, the Micro doesn't even come with the AC adapter."
p461
NsS'And if you read the description on Creative\'s site, it does mention that the "actual battery life will vary with use."'
p462
NsS"After consulting with Creative's customer support, they determined that the hard drive was broken and the only recourse was to send it in for repair, which would cost me $40, since it's past the 90 day warranty (pretty short warranty)."
p463
(dp464
S'warranty'
p465
S'-1] '
p466
ssS'I am the type of person that will always go against the masses of blind followers so there was no way I was getting an Ipod.'
p467
NsS"(The others include: the Intel Pocket Concert, the Archos Jukebox, which was returned after three or four faulty units...I'm extremely patient, and the Creative Labs Nomad Jukebox 3."
p468
NsS'This fixes some glitches such as the player freezing.'
p469
(dp470
S'player'
p471
S'-2'
p472
ssS'Its not convinient to enter name of course but synchronise it with outlook and it becomes a gem of a address book.'
p473
NsS'I just close the program down first, wait for the message to appear on the Micro, then unplug it.'
p474
NsS'Creative has put a lot of effort into making this player appeal to those true geeks that search for coolness and functionality in electronic devices.'
p475
(dp476
S'functionality'
p477
S'+2]'
p478
ssS'You do get 1 more GB than an iPod mini.'
p479
(dp480
S'storage'
p481
S'+2][u]'
p482
ssS'After attempting to navigate the clumsy touch-pad system, I could not get the unit to download my wma files.'
p483
(dp484
S' navigate'
p485
S'-3]'
p486
sS'touch-pad'
p487
S'-2'
p488
ssS'(Like I really wanted "Hotel California" anyway.'
p489
NsS'The touchpad is great once you get used to it, and I much prefer it to standard buttons or scroll wheels (as on the Dell DJ for example).'
p490
(dp491
S'touchpad'
p492
S'+2]'
p493
ssS'These include: MP3, Wave, WMA, WMA Pro, and WMA Lossless; it is very user-friendly simply by right-clicking the file(s) to be converted.'
p494
(dp495
S''
p496
g496
sS'formats'
p497
S'+3][u'
p498
ssS'You can fill it up with anything you like out of there 1 Million song library.'
p499
NsS'It beats Apple on the storage space, it beats apple on the removable battery (and batter life), and I personally like its interface more than the Ipod scroll wheel.'
p500
(dp501
S'interface'
p502
S'+2][cc'
p503
sS' battery life'
p504
S'+2][cc]'
p505
sS' storage'
p506
S'+2][cc'
p507
ssS'I also like the fact that you can edit your MP3 titles, etc.'
p508
(dp509
S'editing titles'
p510
S'+1]'
p511
ssS'The Carbon is nice but offers no improvement to the near-perfect iPod experience.'
p512
NsS'A lot of people are having problems with the firmware update required to use the player for Napster to Go.. The firmware is beta and they are are a lot of bugs in it.'
p513
(dp514
S'firmware'
p515
S'-3]'
p516
ssS'Buy from another company and run from Creative, Inc.'
p517
NsS'This makes the Zen Micro the first choice for MP3 owners with a Windows-based system.'
p518
NsS'The extra spare battery is just a neat bonus.'
p519
(dp520
S'extra battery{+2]'
p521
S'extra battery{+2]'
p522
ssS"I'm a new to mp3 players."
p523
NsS"anyway, here's the pros and cons:  +linux compatible with the 1.x series of firmware."
p524
NsS'I know this list is horribly unreasonable, which is why it amazes me how many players lack some of these basic features.'
p525
NsS'Upon opening the box I was confronted with this small cute little MP3 player.'
p526
(dp527
S'small'
p528
S'+3][u]'
p529
ssS'The FM tuner, the 5G of storage, and the removable disk are all great features.'
p530
(dp531
S'features'
p532
S'+2]'
p533
ssS"I've had almost no problems with the firmware (ie, lock-ups, shut-downs etc), but I have kept the player up to date."
p534
(dp535
S'functioning'
p536
S'+2][u]'
p537
ssS'There are extra features packed inside this unit (some that most will hardly ever use) such as FM radio tuner, voice recorder, calendar, and alarm clock.'
p538
(dp539
S'extra features'
p540
S'+1]'
p541
ssS'Ahhh! There is a catch, the manufacturer does not tell you.'
p542
NsS'Havent read the manual till now (remember I am good time computer user).'
p543
NsS'If you absolutely, positively need over 2,000 songs for your next wolverine photo shoot, get a 10 GB player.'
p544
NsS'I definately recommend upgrading the firmware, which is as simple as downloading a program from creatives website and running it with your player plugged in.'
p545
NsS'I just want MUSIC to eminate from it when I want, how I want.'
p546
NsS'uchpad[-1][u] The touch buttons do take a little getting used to and I don\'t like how the scroll button is the same button used as an "enter" key, but you get used to it and it isn\'t a big deal.'
p547
NsS"If your looking for a great sounding mini player, you can't go wrong with the Zen Micro."
p548
(dp549
S'sound'
p550
S'+3]'
p551
ssS'It\'s nice that the Zen Micro has bells and whistles like FM (but where\'s AM???) and voice recording, and 20% more storage than "the other" mini MP3 player, but why is it so (...)ugly?'
p552
(dp553
S' storage'
p554
S'+1]'
p555
sS'look'
p556
S'-3][u'
p557
ssS'Oh, and another is the cool "halo" light that surrounds the touch pad, and light\'s up when you touch the screen, and how the light glows when the Zen is connected to the computer.'
p558
(dp559
S'touchpad light'
p560
S'+2][u]'
p561
ssS"Again, this doesn't affect regular MP3 files - just subscription DRM-encoded files, like those from Napster-to-Go or Yahoo Music Unlimited."
p562
(dp563
S'subscription DRM-encoded'
p564
S'-1]'
p565
ssS'There are bulletin boards and customer reviews all over the web talking about it.'
p566
NsS'sending the unit to the company of purchase which costs about $90), the ability to record with a built-in microphone (great for recording reminders and meetings), very sturdy construction, and not to mention...the sound quality is excellent!'
p567
(dp568
S' microphone'
p569
S'+2]'
p570
sS'construction'
p571
S'+3'
p572
sS' sound quality'
p573
S'+3'
p574
ssS'he Pencil?'
p575
NsS'Also provides for playlists which are nice, but really only usefully set up through the PC software.'
p576
NsS'1 Speakers at home, I rarely use it with the earbuds, though they are much better than the ones you normally get with other mp3 players.'
p577
(dp578
S'Speakers'
p579
S'+2]'
p580
ssS"es, the interface took a little getting used to, but once I did, it's almost second nature now."
p581
(dp582
S'interface'
p583
S'-1]'
p584
ssS'Since zen does not have an external antena it has some problems catching weak signals but it works.'
p585
(dp586
S'FM reception'
p587
S'-2][u]'
p588
ssS'uch pad[-2], design[-1], volume control[-1] Weak Points: - Touch Pad: design could be better - Volume Control: controlled through the vertical strip, but purchasing a headphone with built-in volume control will do the trick.'
p589
NsS'is not as intuitive as I would like.'
p590
(dp591
S'software'
p592
S'-2][p]'
p593
ssS"I tried to use the FM radio option, but it doesn't seem to really pick up the stations I listen, however I am going to try it in a different location, it may have just been my residential location."
p594
(dp595
S'FM reception'
p596
S'-2]'
p597
ssS'It may be that the next Creative product is complete junk, but you should make product decisions based on product attributes NOW, not based on a halo effect of an idealized company (Apple) or other pointless loyalties.'
p598
NsS'I find myself listening to the radio a lot.'
p599
NsS'It fits into a hand well, it has a removable battery (this is important), great sound quality, fm stereo, recorder, smooth UI, and a feature that most unipods lack... char!'
p600
(dp601
S' look'
p602
S'+2][u'
p603
sS' battery'
p604
S'+1'
p605
sS' sound quality'
p606
S'+3'
p607
sS' features'
p608
S'+2]'
p609
sS' interface'
p610
S'+2][u'
p611
sS'size'
p612
S'+2][u'
p613
ssS"Even after all the nightmare sound problems, I'd still half-way like this product if it kept it's promise; the ability to store 1500 songs."
p614
(dp615
S'storage'
p616
S'-2][u]'
p617
ssS'I got it to use with the new $5-per-month service from Yahoo (Music Unlimited,) and despite the above issues, I love it.'
p618
(dp619
S'player'
p620
S'+2][p]'
p621
ssS'Use Windows Media Player 10 to do your transferring.'
p622
NsS'  Why?'
p623
NsS'This was probably the biggest reason I chose the Micro over an iPod.'
p624
NsS"My friend has an ipod, and although the sound quality probably won't meet most audiophile standards, the product itself is better than anything creative has made."
p625
(dp626
S'creative'
p627
S'-][cc'
p628
ssS"They're easy to use."
p629
(dp630
S'touchpad controls'
p631
S'+2][p]'
p632
ssS'To minimize any frustration (and the odds that you may return a usable unit), keep the following in mind:  1. While your unit is!'
p633
NsS'I have two spare batteries (brought on ebay for 28 bucks each).'
p634
NsS"If you're not computer savvy or if you want things as simple as they can be, get the iPod."
p635
NsS'The back of the player is nice too, with water ripples inside the clear white coating.'
p636
(dp637
S'back'
p638
S'+2]'
p639
ssS'his is what I get for my $200 on this MP3 player?'
p640
(dp641
S'player'
p642
S'-3]'
p643
ssS"So far it has been very durable (other than the little pads on the earbuds), but those aren't really necessary as I find them comfortable on their own."
p644
(dp645
S'durability'
p646
S'+2]'
p647
ssS'Overall, it does its basic function very well, but we expect more from the mp3 players today and the Zen Micro does not rise to the occassion.'
p648
(dp649
S'Zen Micro'
p650
S'-2]'
p651
ssS'All I can say is what a wonderful choice!'
p652
NsS'I like to keep all of my Mp3s in one folder and manually doing this is a pain.'
p653
NsS'User Interface: The software is simple and straight forward.'
p654
(dp655
S'software'
p656
S'+2]'
p657
ssS'all-in-all, its good enough for its price as long as it doesnt break again due to normal use.'
p658
(dp659
S'price'
p660
S'+2][p]'
p661
ssS'The Look & Feel: I have the black one and the contrasting neon blue on the buttons add a very nice ambience.'
p662
(dp663
S' Feel'
p664
S'+3]'
p665
sS'Look'
p666
S'+3'
p667
ssS'My big Zen has hundreds of CDs on it, but this little player will store my most listened to tunes, or songs Iwant to download for free from the Yahoo site, "test drive", then decide if I want to download permanently into my larger Creative.'
p668
NsS'chargeable battery runs out; thereby, waiting 3 weeks to get it back, and possibly with all of your music erased.'
p669
NsS'The earbud headphones are really nice.'
p670
(dp671
S'headphones'
p672
S'+2]'
p673
ssS'I loaded my whole CD collection on it and took it everywhere, even at work.'
p674
NsS"I can't comment on the bundled software as I haven't even looked at it."
p675
NsS"I don't want to keep testing my luck."
p676
NsS'Y!'
p677
NsS"It's easy to use, and makes transfering your CD collection to the player a cinch."
p678
(dp679
S'software'
p680
S'+1]'
p681
ssS'To use a bas!'
p682
NsS'On the one hand, you have the ability to store and plays over 1000 songs on one little piece of machine.'
p683
NsS"Apple has tried to hide something from you: most people don't actually need more than a few gigs at most."
p684
NsS'I compared it to other CD players (Two models of Panasonic, Rio & samsung) and they were no way even near Zen Micro.'
p685
(dp686
S'player'
p687
S'+][cc]'
p688
ssS"You can also record with the built in mic and record FM broadcasts, I haven't tried those either."
p689
NsS'I have had the ipod mini and it performs on the level with my sound card but the micro beats it outright.'
p690
(dp691
S'sound'
p692
S'+3]'
p693
ssS'Also If you want a device that does soo much more than the Ipod mini but is at the same price, this is the player for you.'
p694
(dp695
S'player'
p696
S'+2][p]'
p697
ssS"As far as user interface is concerned, the best and easiest to use seems to be the one that comes with the player, 'Creative MediaSource Organizer'."
p698
(dp699
S'user interface'
p700
S'+3]'
p701
ssS'My hobby is home audio and home theater.'
p702
NsS'Again, this is a design flaw in the headphone!'
p703
(dp704
S'headphone design'
p705
S'-3]'
p706
ssS"You can't see it by looking into the jacks where the prongs are."
p707
NsS'The recharge cord will do the job in a fraction of the time that the USB cable will hooked to your computer.'
p708
NsS'Most people complain about the sensitivity, but it can easily be adjusted for personal preference.'
p709
NsS'... then this might intrigue you greatly.'
p710
NsS'In minutes I was easily navigating through the menus.'
p711
(dp712
S'navigation'
p713
S'+2]'
p714
ssS'The main issue now is that this new Zen Micro seems to be the best on the market at least temporarily.'
p715
(dp716
S'player'
p717
S'+3][p]'
p718
ssS'Its also smaller, and gets more looks.'
p719
(dp720
S' look'
p721
S'+2]'
p722
sS'size'
p723
S'+2'
p724
ssS"Not to mention that everyone else at the office has an IPod, so I was kinda' hoping for a good alternative."
p725
NsS'So I decided on the black one.'
p726
NsS'They have a list of compatible players which I miss read.'
p727
NsS"But it; you won't regret it."
p728
(dp729
S'player'
p730
S'+2][p]'
p731
ssS'I thought the FM radio would not see much use with so many tracks avaiable to me, but its great for tuning in to TV programs at the gym while on the treadmill, concerts and programs being simulcast, NPR, and on and on.'
p732
(dp733
S'FM tuner'
p734
S'+1]'
p735
ssS'The company has received thousands of complaints about this and refuses to do anything about it. .'
p736
NsS'Nobody has clearly articulated what exactly about the Ipod mini makes it better than this product.'
p737
NsS'The extra GB of hardrive space, removeable battery and FM tuner, as well as the fact that I was previously a satisfied owner of the Nomad II put it over the top for me.'
p738
(dp739
S' features'
p740
S'+2][u]'
p741
sS'storage'
p742
S'+2'
p743
sS' battery'
p744
S'+2'
p745
ssS"The photos don't do it justice."
p746
NsS') One outstanding positive feature is the battery. It holds a charge for a long time, longer than most other similar products and the user can replace it easily or take another along as a backup.'
p747
(dp748
S'battery'
p749
S'+3]'
p750
ssS'I did a quick test by selecting a few files and copying them over and they loaded right in.'
p751
NsS'Fortunately for me, I have yet to have a single problem with this player.'
p752
(dp753
S'working'
p754
S'+2]'
p755
ssS'They also sound excellent compared to other earbuds including retail sets like Panasonics and Sennheisers.'
p756
(dp757
S'earbuds'
p758
S'+2][p][cc]'
p759
ssS'I wanted a player that had good capacity, construction that can stand up to exercise, good sound quality, good battery life, good looks, compatibility, and a fair price.'
p760
NsS"It's been dropped, shuffled, kicked, and Lumbered."
p761
NsS'best in class.'
p762
(dp763
S'player'
p764
S'+2][p]'
p765
ssS'The touch pad does take a little getting used to.'
p766
(dp767
S'touch pad'
p768
S'-1]'
p769
ssS'The battery, as others have said, also seems weaker than Creative suggests.'
p770
(dp771
S'battery life'
p772
S'-2]'
p773
ssS'This year, it seems that I choose my timing perfectly, having discovered the awesome device that is the Zen Micro.'
p774
(dp775
S'Zen micro'
p776
S'+2]'
p777
ssS'And the price?'
p778
NsS'I expected this coming from Creative.'
p779
NsS"To bad Napster software is not compatible with Apple IPod's."
p780
NsS'(iTunes being an exception of course).'
p781
NsS'Reliability & Build  I dropped the player once from about 4 ft, and it fell hard, but kept on playing.'
p782
(dp783
S'Build'
p784
S'+3]'
p785
ssS"When I finally couldn't take it anymore, I decided to pull the trigger on the Zen Micro."
p786
NsS'Otherwise, I am extremely please with the Creative Zen Micro 5GB MP3 player.'
p787
(dp788
S'player'
p789
S'+2]'
p790
ssS"The removable disk isn't really explained in the product literature but basically it allows you to partition a portion of the drive for data."
p791
NsS"It's rechargable and supposedly easy to replace though I haven't had to do it yet of course."
p792
(dp793
S'battery replacement'
p794
S'+2]'
p795
ssS'I use it on an average 5 hours a day I hook it up to my Belkin FM transmitter in the car or to my Logitech 2.'
p796
NsS'For the Zen Creative focused on packaging which looked well thought out, well presented and easy to open and put back together.'
p797
(dp798
S'packing'
p799
S'+3][u]'
p800
ssS'2.'
p801
NsS'The player looks great, feels great, and sounds great.'
p802
(dp803
S' feel'
p804
S'+3'
p805
sS' sound'
p806
S'+3]'
p807
sS'look'
p808
S'+3'
p809
ssS"Although, I thought it could've been designed a bit better."
p810
(dp811
S'design'
p812
S'-1]'
p813
ssS"Well, I got my second player, and right out of the box it wasn't working right and once again, after consulting customer se!"
p814
(dp815
S'working'
p816
S'-2]'
p817
ssS"It's cheaper, holds more songs and is smaller."
p818
(dp819
S'price'
p820
S'+2'
p821
sS' storage'
p822
S'+2'
p823
sS' size'
p824
S'+2]'
p825
ssS'Infuriating! Nearly all other MP-3 producing companies include a recharging cord with their product that can be plugged into a wall socket.'
p826
NsS"I'm also somewhat of an audiophile."
p827
NsS'Your choice of ten colors in a beatiful package.'
p828
(dp829
S'variety of colors'
p830
S'+3][u]'
p831
ssS"I'm less than satisfied."
p832
NsS"it's a great looking, easy-to-use device but it's the sound quality which is truly amazing -- far better than my Sony mini-disc player."
p833
(dp834
S' ease of use'
p835
S'+2'
p836
sS' sound quality'
p837
S'+3][cc]'
p838
sS'look'
p839
S'+3'
p840
ssS'The flaw is inside the Zen.'
p841
(dp842
S'Zen'
p843
S'-2]'
p844
ssS'The clarity is unbelievable, which means you can cram almost the full 2,5!'
p845
(dp846
S'sound quality'
p847
S'+2][u]'
p848
ssS"One: It's size: It's smaller than the Ipod Mini, and holds more music (5GB to the IPOD mini's 4GBs)."
p849
(dp850
S' storage'
p851
S'+][u][cc]'
p852
sS'size'
p853
S'+][cc'
p854
ssS"I promptly gave the included earbuds to my wife, I'm using a pair of Sennheiser PXC250 noise-canceling headphones with the Zen Micro."
p855
NsS"I mainly only get to listen to music in my car, so it's an awesome replacement for a console full of the same ten cd's that have been in there for the last 8 months that i keep forgetting to replace."
p856
NsS'The player intelligently pre-buffers the next song.'
p857
NsS'i didnt have any installation problems; and the touch pad is fine, even if it is sort of inaccurate.'
p858
(dp859
S' touch pad'
p860
S'+1]'
p861
sS'installation'
p862
S'+2'
p863
ssS'I have not yet used all the features, like the calendar, etc, but as a music player this little thing rocks.'
p864
(dp865
S'player'
p866
S'+3][p]'
p867
ssS'On the other hand, you get terrible sound quality.'
p868
NsS'I absolutely love it.'
p869
(dp870
S'player'
p871
S'+3][p]'
p872
ssS"that isn't saying much, but hey, I like to be positive."
p873
NsS'Instead I use a cellphone cover with a belt clip and it works just fine.'
p874
NsS'my initial reaction was to tap the up and down arrows, when in reality, you need to touch, maintain contact and slide your finger up and down.'
p875
NsS'An aside about sound quality: You can have good sound or 2,000+ songs, not both.'
p876
NsS"It's still alive, still kicking, and still playing."
p877
(dp878
S'built'
p879
S'+3][u]'
p880
ssS"While I'm not too keen on their customer service (none of the products I have from Creative have given me issues), I can definitely recommend the Zen Micro for the simple fact that it does exactly what it is supposed to do and more...without needing any of the extra hype except word of mouth."
p881
(dp882
S'Zen micro'
p883
S'+][s]'
p884
ssS'When mine died, I had 1,022 songs loaded, but only used a little over 2gb of space.'
p885
NsS'Accessories are in reusable bags unlike the Nomad which requires you to tear each back plastic store bag open.'
p886
NsS"Aren't they something of digital sound experts?"
p887
NsS") -Can't be left in the car... it immediately shuts down with an overheating error if left in a hot car for too long."
p888
(dp889
S'heat'
p890
S'-1][u]'
p891
ssS'It cost less than, in most cases, $190.'
p892
NsS"The device looks very cool, I think (exactly as the photos promise), it's comfortable and lightweight in my jacket pocket, and the interface and controls are easy enough to navigate after a bit of practice."
p893
(dp894
S' interface'
p895
S'+2]'
p896
sS' comfort'
p897
S'+2'
p898
sS'look'
p899
S'+3'
p900
sS' weight'
p901
S'+3'
p902
ssS'I was fortunate to get the packaging that still included all the accessories (desk stand/hard case, belt clip, wall charger, etc).'
p903
(dp904
S'accessories'
p905
S'+3]'
p906
ssS'I ordered from Amazon and got the Limited Edition package that includes a free battery!'
p907
NsS'These are limited to the voice recorder, address book, and such.'
p908
NsS"But after a few firmware releases it's working without a hitch."
p909
NsS'Although you can store any type of file on the Zen Micro to download onto a different computer, you need to INSTALL (on the computer you are moving the data to) Zen Micro software and drivers to do it!!!'
p910
(dp911
S' INSTALL'
p912
S'-2]'
p913
sS'store'
p914
S'+2'
p915
ssS'Unfortunately I was wrong.'
p916
(dp917
S'player'
p918
S'-2][u]'
p919
ssS'The menus are easy to scroll through; they are laid out naturally, and make sense.'
p920
(dp921
S'navigation'
p922
S'+3][u]'
p923
ssS'simple mechanical buttons would probably work !'
p924
NsS"Still, that's enough time that I'm still satisfied, if a bit grouchy with Creative's overhyped promises."
p925
(dp926
S'creative'
p927
S'-2][u]'
p928
ssS'Power for the tech-savvy, ease of use for the less fortunate.'
p929
(dp930
S' power'
p931
S'+2]'
p932
sS'ease of use'
p933
S'+2'
p934
ssS'Accessories were cheap looking.'
p935
NsS"I haven't seen any problems yet, but if you don't like to tinker a bit, this player can be a little challenging to set up."
p936
(dp937
S'set up'
p938
S'-1]'
p939
ssS'Everything that I have listed above, the Zen has, and more.'
p940
(dp941
S'features'
p942
S'+2][p]'
p943
ssS'The player was not very appealing either.'
p944
NsS"Transferring music is a breeze. I don't subscribe to music services, but as mentioned on other reviews, Micro allows you to subscribe to services OTHER than iTunes."
p945
(dp946
S'music transfer'
p947
S'+1]'
p948
ssS"The iPod gets it right, the Carbon doesn't."
p949
NsS'The eq is awful, and even at top volumes, the bass is flat sounding.'
p950
(dp951
S' bass'
p952
S'-3]'
p953
sS'eq'
p954
S'-3'
p955
ssS'I tried to figure out another way to load the songs and attempted another upgrade with no results.'
p956
NsS'The karma also has a very long battery life.'
p957
NsS'If you want to recharge it, you MUST connect it to your computer.'
p958
NsS'I loved this thing.'
p959
NsS'Imagine my disappointment, though, when the Zen Micro proved able to play only the mega-strongest FM signals in my area.'
p960
(dp961
S'FM reception'
p962
S'-2][u]'
p963
ssS'To me, currently at $218, this player is a!'
p964
NsS'I have been researching MP3 players for the last two weeks.'
p965
NsS'The songs recorded with FM are as good as the original signal.'
p966
(dp967
S'recorded'
p968
S'+3]'
p969
ssS'The base was deeper and the highs were crisper.'
p970
(dp971
S'highs'
p972
S'+2}'
p973
sS'bass'
p974
S'+2'
p975
ssS"Its a few bucks more and has only 5 GB's of storage but its well worth the trade off."
p976
NsS"I can't help but feel peeved by the attitude created by Apple enthusiasts that basically detracts from anything that attempts to compete with Apple products in the marketplace."
p977
NsS'The sound quality is superb, much better than that of an iPod, in my opinion.'
p978
(dp979
S'sound quality'
p980
S'+3][cc]'
p981
ssS'I have gone through two of them in two years. .'
p982
NsS'This is a must have.'
p983
NsS'It seems like you need to park yourself right next to a radio tower for the Micro to pull in a strong sound.'
p984
(dp985
S'FM reception'
p986
S'-3][u]'
p987
ssS'The Creative Zen Micro, at first glance, is a dream come true for all mp3 and music lovers.'
p988
(dp989
S'Zen micro'
p990
S'+2]'
p991
ssS'Of course one of the first things I did was write an email to the customer support at Creative, through their website, and by the time they finally got back to me - several working days later when they promise only one - their suggestions were completely worthless.'
p992
(dp993
S'customer support'
p994
S'-3]'
p995
ssS"I've played around with a friend's iPod a couple times and it IS a cool unit."
p996
NsS'\x1a_\x1a  About the hype:  I must applaud Creative for their restraint.'
p997
NsS'At this point, the Rio Carbon is 5Gb (along with a host of South Korean manufacturers), and eventually the iPod will get a "free" upgrade to 5Gb as the 4Gb trickle down to nothing.'
p998
NsS"They've partnered with Napster to give you a! free month of the subscription service (read: all the music you want free for thirty days, when you can cancel with all your music safely hidden away."
p999
NsS'This is a difficult player to review because I would recommend it on a case-by-case basis.'
p1000
NsS'This appears to prevent the lockup issue.'
p1001
NsS") A previous reviewer has mentioned several different issues with the 'Zen Micro'."
p1002
NsS'I have no problems with the touch pad (once the sensitivity is set to low) and the interface is a breeze to use without even looking at the PDF manual.'
p1003
(dp1004
S'interface'
p1005
S'+3'
p1006
sS' touchpad'
p1007
S'+2]'
p1008
ssS'Five gigabytes is plenty for my great albums.'
p1009
(dp1010
S'storage'
p1011
S'+3][u]'
p1012
ssS"It's a tad too sensitive for a first time user (my family member, however, had no problem with it), and it drove me nuts at first."
p1013
NsS'Two days after writing this review below, I want to remove another two stars.'
p1014
NsS'Sound quality is great, fm tuner is fine, as is the recorder.'
p1015
(dp1016
S'Sound'
p1017
S'+2'
p1018
sS' fm tuner'
p1019
S'+2'
p1020
sS' recorder'
p1021
S'+2]'
p1022
ssS'Battery life is exceptional, lasting longer than the 8-10 hours that seem reasonable with most music players on the market.'
p1023
(dp1024
S'battery life'
p1025
S'+3]'
p1026
ssS'After reading reviews and talking to a few friends, I decided on the Zen.'
p1027
NsS'I have no problem using iTunes with the Zen Micro (in a makeshift sorta way).'
p1028
(dp1029
S'iTunes'
p1030
S'+1]'
p1031
ssS'Otherwise, this is a great "alternative" MP3 player for those of use who don\'t want to worship the mighty all-powerful Apple.'
p1032
(dp1033
S'player'
p1034
S'+1]'
p1035
ssS'because the "engineers" at Creative screwed up the design of the headphone jack.'
p1036
(dp1037
S'headphone jack design'
p1038
S'-3]'
p1039
ssS'It has a cardboard slip cover with a nice layered box casing inside.'
p1040
(dp1041
S'casing'
p1042
S'+3]'
p1043
ssS'I have stored 40 audio CDs and i still have close to 2.8 GB free.'
p1044
(dp1045
S'storage'
p1046
S'+2][u'
p1047
ssS'This is really a no brainer.'
p1048
(dp1049
S'player'
p1050
S'+2][p]'
p1051
ssS'- Doubles as a removable disk drive.'
p1052
NsS':) I was also happy that my shipment came with all the accessories (minus extra battery).'
p1053
NsS'However, I do know about a dozen people with well over 4000 MP3s each.'
p1054
NsS'By focusing exclusively on quality rather than excessive marketing, they have introduced a player that can look the Ipod straight in the eye and not flinch.'
p1055
(dp1056
S'player'
p1057
S'+2]'
p1058
ssS'Many other reviewers are mentioning that they have had no problems at all> I would say that the main problem is that this player is just not made very well.'
p1059
(dp1060
S'make'
p1061
S'-3][u]'
p1062
ssS'Overall, I am very pleased with it.'
p1063
(dp1064
S'player'
p1065
S'+2][p]'
p1066
ssS"It's not as seamless as if you were to use an iPod, but it only takes a few seconds longer."
p1067
NsS'You once had a cheap CD player (or walkman) that had the same problem, and you just used miniture screwdrivers to push the left/right prongs out.'
p1068
NsS'They are sensitive and accurate (perhaps too accurate, it senses through t-shirt cloth, but the touchpad can be locked), but easy to clean, unlike buttons.'
p1069
(dp1070
S'touchpad'
p1071
S'2][p]'
p1072
ssS'You will also need to download and install new firmware on the player.'
p1073
NsS'P.S.  The only snag I encountered while initially configuring the device was trying to hook up the Micro to a front USB port.  The bus for the front port on my motherboard did not have enough power; after connecting it to the rear ports, it works perfectly.'
p1074
(dp1075
S'configuration'
p1076
S'-1][u]'
p1077
ssS"I've owned this player for nine months now and it's been on 5 cross country trips, one trans-atlantic honeymoon, and numerous roadtrips."
p1078
NsS'- Audio Formats: supports both MP3, WMA... And yeah, WAV too.'
p1079
(dp1080
S'audio formats'
p1081
S'+2]'
p1082
ssS'I used them.'
p1083
NsS"I didn't experience any problems with the software or getting my computer to recognize the player."
p1084
NsS'Why?'
p1085
NsS'Just in case, I bought a two-year extended warranty for about 15% of the purchase price of the player.'
p1086
NsS'riety of colours[+2] - Colors: 10 variety of HOT colors made it difficult to choose from.'
p1087
NsS"- The outlook synch only works for non recurring appointments, which personally is very annoying to me but probably wont be to most people. - ##Several people complained about the touchpad and frankly i'm starting to see why."
p1088
(dp1089
S'outlook sync'
p1090
S'-2]'
p1091
ssS'And within one hour I had downloaded , organized my play lists and was listening to the songs I downloaded.'
p1092
NsS'However, I am going to try the suggestion of changing the sensitivity to high and see if that solves the problem.'
p1093
NsS'One was the firmware upgrading from the installation CD and the second was regarding the "playforsure" (even though it\'s in BETA), to make sure I could use Napster 2 Go.'
p1094
NsS'Stuff you may need to buy: Wired remote from creative.'
p1095
NsS'I wanted something that looked at least almost as good as an Ipod.'
p1096
NsS"I've been ZETAZEN long before this player came into existence...lol and my player's name is ZETAZEN."
p1097
NsS"What happens follows:       Let's start with the software."
p1098
NsS'If you want a wall-socket recharging cord, you have to dish out somewhere between $30 and $35, plus shipping and handling, for a cord that cost less than $1 to manufacture and market.'
p1099
NsS'Stopping going in circles and get to the point.'
p1100
NsS'I was up all night trying to make the stupid thing work, to no avail.'
p1101
(dp1102
S'working'
p1103
S'-2]'
p1104
ssS"Now, there's nothing wrong with the Zen Micro a few months in beta testing wouldn't iron out."
p1105
NsS'This player is fantastic in terms of audio quality, ease of use, and features.'
p1106
(dp1107
S' ease of use'
p1108
S'+3'
p1109
sS' features'
p1110
S'+3]'
p1111
sS'audio quality'
p1112
S'+3'
p1113
ssS'I would give it about 6 or 7 hours, although it will probably get better after a few charge cycles.'
p1114
(dp1115
S'battery life'
p1116
S'-1][p]'
p1117
ssS"It fits comfortably in my shirt pocket and while very well-designed, doesn't look to ostentatious while I'm walking around with it."
p1118
(dp1119
g496
g496
sS' design{+3'
p1120
S' design{+3'
p1121
sS'size'
p1122
S'+2'
p1123
ssS"Overall I'm incredibly impressed with my new Zen Touch."
p1124
(dp1125
S'Zen Touch'
p1126
S'+3][u]'
p1127
ssS'An Apple Ipod Mini was considered.'
p1128
NsS'Slow file transfers, menus that take ages to cycle through, and poor battery life plague many of the!'
p1129
NsS'Check out message boards on Napster for more info.'
p1130
NsS"They're better than the IPOD, plus, there are seven EQ settings (including custom)."
p1131
NsS'Most of us just want to plug and play, not spend a year navigating a maze of complicated options...like transfering everything on a hard drive to this stupid thing.'
p1132
(dp1133
S'navigating'
p1134
S'-3]'
p1135
ssS"I purchased this over the Ipod Mini because it had several nice features: extra 1G storage, WMA support, replaceable battery, and especially that it wasn't an Apple product with their proprietary architecture."
p1136
(dp1137
S'features'
p1138
S'+2]'
p1139
ssS"Their product may appear more enconomical, but it isn't in the long run. ."
p1140
NsS') The Zen Micro appears sturdy and well constructed, hefty, if you will, far better than many of its competitors. .'
p1141
(dp1142
S'constructed'
p1143
S'+3][u]'
p1144
ssS'The player I first purchased was the Creative Nomad Jukebox Zen Xtra 40 GB MP3 Player.'
p1145
NsS'anyway, my wife got this for me for my birthday and I love the thing.'
p1146
(dp1147
S'player'
p1148
S'+2][p]'
p1149
ssS"It's doesn't have a scroll wheel, but it has a strip!"
p1150
NsS'Within one month, my player completely died.'
p1151
(dp1152
S'player'
p1153
S'-3]'
p1154
ssS'the program is called Gnomad and works great for me and seems to cover all the features the included windows sofware does.'
p1155
(dp1156
S'firmware'
p1157
S'+2][p]'
p1158
ssS'- The battery life leaves a lot to be desired.'
p1159
(dp1160
S'battery life'
p1161
S'-2]'
p1162
ssS'Bottom line: If you value excellent sound quality and the ability to use music subscription services, and are willing to deal with the possibility (not the certainty) of setup gremlins, by all means get the Zen Micro.'
p1163
(dp1164
S' music subscription service'
p1165
S'+2]'
p1166
sS'sound quality'
p1167
S'+3'
p1168
ssS'Creative was defiantly giving the IPod a run for their money with this device.'
p1169
(dp1170
S'player'
p1171
S'+1][p'
p1172
ssS'64 kbps is a terrible price to pay.'
p1173
NsS')  Compatibility?'
p1174
NsS'If you want to purchase a real case or container or clip-on carrier for you Zen Micro, expect to purchase it separately and to dish out big time. .'
p1175
(dp1176
S'case'
p1177
S'-2]'
p1178
ssS'I got rid of my older PDA figuring that since the only function I used on it anyways was to manage my contacts and calender, I could now use my Zen Micro.'
p1179
NsS'You can then hook up the Zen via USB to any Win2K or later computer and use that partition to store data files.'
p1180
NsS'I bought this two months ago at a local retailer, after spending considerable time reading reviews here of this and other 5GB players.'
p1181
NsS'Why bother when it works perfectly with Media Player 10?'
p1182
(dp1183
S'Media player compatibility'
p1184
S'+3]'
p1185
ssS'However, as soon as I found out that I could only download songs from iTunes, I immediately decided that was NOT the MP3 player for me.'
p1186
NsS'I decided to go with the convienence factor and purchase a creative zen micro.'
p1187
NsS'However, if there was one thing I liked about the creative, it would be the car adapter.'
p1188
(dp1189
S'car adapter'
p1190
S'+2]'
p1191
ssS'Of course the first one I decided to research first was the Apple iPod.'
p1192
NsS' Though rated at 12 hrs, I could barely manage 8 and I have two spares as well.'
p1193
NsS"At least, that is, while it's still alive."
p1194
NsS'All this before I found out the bad news.'
p1195
NsS'The menu is easy to use and understand.'
p1196
(dp1197
S'menu'
p1198
S'+2]'
p1199
ssS'The solution?'
p1200
NsS'Apple apparently has built up a very nice following of brainwashed consumers.'
p1201
NsS'1.'
p1202
NsS'I must say, after tons of research, I have chosen the right Mp3 player.'
p1203
NsS'$190 or $200 or less would have been much more reasonable (price compareble to 20gb mp3 players).'
p1204
NsS'I had to revise my review today!... If you are still trying to decide Ipod or Zen Micro, Yahoo! has just closed the deal.'
p1205
NsS'And I gave my CD plyaers away in a garage sale.'
p1206
NsS'Next I wanted to update the software, after a quick firmware upgrade the player was ready to go.'
p1207
NsS"It's shorter, sleeker, more compact and fits comfortably in my small hand than the iPod...My Nokia cell phone towers over this bad boy!"
p1208
(dp1209
S'look'
p1210
S'+2][u'
p1211
sS' size'
p1212
S'+2][u]'
p1213
ssS'One reviewer made what *I thought* was a good point about the volume not having an independant control and being buried in a menu, but must not have spent very long with the player because if you slide your finger up or down the center touch button during a song, the volume goes up or down accordingly.'
p1214
NsS"Creative has not lounched any silicon cover for the player like ipod's (I think belkin makes it for ipod)."
p1215
NsS'Immediately you could tell a very distinct difference between the two Creative MP3 players.'
p1216
NsS'Also, the WMA compression format is superior to MP3, especially at lower bit rates, so I needed a player that could handle WMA and integrate well with my Windows XP computers.'
p1217
(dp1218
S'format'
p1219
S'+2]'
p1220
ssS'The touch pad is over-sensitive, and is adjustable to only slightly oversensitive.'
p1221
(dp1222
S'touchpad'
p1223
S'-2]'
p1224
ssS"One drop from a pocket or desktop, and it'd be a goner."
p1225
(dp1226
S'player'
p1227
S'-3'
p1228
ssS"It's so small."
p1229
(dp1230
S'size'
p1231
S'+3]'
p1232
ssS"In fact, it's much better than the iPod in that regard."
p1233
NsS'Subscription files need to buffer when you first hit "play," so there\'s a 4-7 second delay before the first song starts.'
p1234
NsS'It feels tiny in the hand without it.'
p1235
(dp1236
S'feels'
p1237
S'+2][p]'
p1238
ssS'So the download was much slower.'
p1239
NsS'That was before the Zen Micro came along.'
p1240
NsS'I am now staring at an array of stuff including Zen Micro player, stereo earbud headphones, a rechargeable lithium-ion battery, an AC/DC power adapter, a USB 2.0 cable, a belt-clip, a stand, a stylish cloth pouch, an installation CD, a quick-start guide, and Creative MediaSource software.'
p1241
(dp1242
S'accessories'
p1243
S'+2]'
p1244
ssS"The battery life doesn't appear to be any!"
p1245
NsS'If you have a huge CD collection, 5GB can hold only a part of your CD collection.'
p1246
NsS'What impressed me most was the sound.'
p1247
(dp1248
S'sound'
p1249
S'+3]'
p1250
ssS"All of this said [as it's on it's way back to Amazon], the one song it did include provided far better sound than the IPOD."
p1251
(dp1252
S'sound'
p1253
S'+2]'
p1254
ssS"If you've been listening to cd's in your car for awhile, dealing with the drop-off in sound quality may take some getting used to."
p1255
(dp1256
S'sound'
p1257
S'-2]'
p1258
ssS'Right out of the box, I loved it, better features than the Ipod, great sound quality and no limitations on what music sources I can use.'
p1259
(dp1260
S' music source support'
p1261
S'+2]'
p1262
sS' sound quality'
p1263
S'+2'
p1264
sS'features'
p1265
S'+][cc'
p1266
ssS"so i admit it... i wanted a zen micro, because the appeal of the iPod was overshadowed by it's annoying trendy hipster popularity and i felt better about myself for choosing a rip off version of that trendy hipster popularity."
p1267
NsS"I've had this player for more than 4 months and I'm very happy with it."
p1268
(dp1269
S'player'
p1270
S'+3][p]'
p1271
ssS'The new firmware fixes this as long as you put the player in lock mode before plugging it into said PC.'
p1272
NsS"I don't care what ELSE it can do."
p1273
NsS'After heavy duty research and reading reviews, I decided to plunge into the MP3 player circus and got myself the Zen Micro.'
p1274
NsS'Each battery lasts about 10-11 hours.'
p1275
(dp1276
S'battery life'
p1277
S'+2][u]'
p1278
ssS"So I can't wait to get on my treadmill with it."
p1279
NsS':-)  www.zetazen.com'
p1280
NsS'ts with Sennheiser HD-497 phones.'
p1281
NsS'Creative says that the software engine for this MP3 is the best hands down.'
p1282
NsS'So, I was one who was ready to give it 5 stars with no complaints at all.'
p1283
(dp1284
S'player'
p1285
S'+3][p]'
p1286
ssS'People are use to seeing so may Ipods, that when they see my Zen, they have to ask questions.'
p1287
NsS'Sound quality? Phenomenal.'
p1288
(dp1289
S'sound quality'
p1290
S'+3]'
p1291
ssS"No skips, and it hasn't faltered once (despite your inevitable drop or two."
p1292
(dp1293
S'construction'
p1294
S'+3][u]'
p1295
ssS"The player itself is tiny , it gets a bit bulky when you put it in the hardcase, which you need to do if you don't want to get scrathes on the back(its a nice looking back too )."
p1296
(dp1297
S' back'
p1298
S'+3]'
p1299
sS'tiny'
p1300
S'-1][u'
p1301
ssS'Then last week, my player just quit working, period.'
p1302
NsS']'
p1303
NsS'You can use it as a storage Hard Drive.'
p1304
(dp1305
S'storage'
p1306
S'+2]'
p1307
ssS'If anyone is thinkning of getting an ipod mini, forget it and go with this player.'
p1308
(dp1309
S'player'
p1310
S'+][s]'
p1311
ssS'Update the firmware which can be found on the Creative web site.'
p1312
NsS"The headphones have great sound and durability and mine came with some extras when I bought it (a stand, a belt hook, charger) that I know doesn't come with every one."
p1313
(dp1314
S'headphones'
p1315
S'+2'
p1316
sS' extra accessories'
p1317
S'+2][u]'
p1318
ssS'Comments such as "it\'s stylish" or "it looks cool" or "everyone has it" don\'t nesseseraly make something good.'
p1319
NsS'The more I use it and figure out how to do things, the more I like it.'
p1320
(dp1321
S'player'
p1322
S'+2][p]'
p1323
ssS"Going further up-market and using super hi-rez audiophile headphones is probably overkill; they will only serve to cast MP3 limitations into sharper relief, and honey, you can't hear what ain't there."
p1324
NsS'The extra Gb is just a bonus.'
p1325
(dp1326
S'storage'
p1327
S'+2]'
p1328
ssS"I haven't used the Organizer feature (apparantly you can sync with Outlook)."
p1329
NsS'FM transmitter (belkin has a good one) to use Zen with your car Sterio FM Tunner   Latest Find: Connected this baby to my $3800 audiophile audio system and it produced clean sound compared to Ipod.'
p1330
(dp1331
S'sound'
p1332
S'+2]'
p1333
ssS'What I dont like: Nothing much except Headphones, Belt clip design.'
p1334
(dp1335
S'headphones'
p1336
S'-2'
p1337
sS' beltclip design'
p1338
S'-2]'
p1339
ssS'The creative came with a free trial of [random file sharing company] "to go".'
p1340
NsS'the 4G Ipod costs the same as this 5G Zen Micro.'
p1341
(dp1342
S' cost'
p1343
S'+1]'
p1344
sS'storage'
p1345
S'+1'
p1346
ssS"after they have been loaded into the Zen which is something I've had to do many times already."
p1347
NsS'What is up with nickle and dimeing consumers on the recharge cord?'
p1348
NsS"It's cute as anything and the glowing blue LED looks super cool around the edges."
p1349
(dp1350
S'looks'
p1351
S'+3]'
p1352
ssS"It's an admitted design flaw that the people at Creative have acknowledged (google it)."
p1353
NsS"-User's guide doesn't cover a lot of important info that is covered on their website."
p1354
(dp1355
S'users guide'
p1356
S'-1]'
p1357
ssS"Zen Micro[+2][s] Overall, I'm very pleased with the Zen Micro and based on my experience with it (as well as it's older sibling Creative Nomad IIC), can recommend it without reservation."
p1358
NsS'The battery is removable.'
p1359
(dp1360
S'battery'
p1361
S'+2]'
p1362
ssS"The player looks SO much better when you're actually holding it."
p1363
(dp1364
S'looks'
p1365
S'+2]'
p1366
ssS'It also has a voice recorder and FM radio that you can only get on an Ipod if you but an adapter seperately.'
p1367
(dp1368
S'features'
p1369
S'+2][u]'
p1370
ssS'By far this seems to be the best value out there for the money; if you are undecided, the Creative Zen Micro seems to be the best choice.'
p1371
(dp1372
S'Creative zen Micro'
p1373
S'+3][p]'
p1374
ssS'I was at [random electronic store], browsing through players, and came across two that made the cut.'
p1375
NsS'Overall I have no complaints, this is jus!'
p1376
NsS'The blue backlit LCD looks really neat and is easy to read.'
p1377
(dp1378
S' read'
p1379
S'+2][u]'
p1380
sS'looks'
p1381
S'+3'
p1382
ssS'The interface takes 2 secs after you press record to show up but its actually started recording at the moment you press record.'
p1383
NsS'Excellent sound I mean the player has juice.'
p1384
(dp1385
S'sound'
p1386
S'+3]'
p1387
ssS"However, their player seems to be defective and Creative Labs should be contacted before making such harsh statements if they haven't been contacted already."
p1388
NsS"It's so cute...and behind the black panel it glows in a neon blue."
p1389
(dp1390
S'look'
p1391
S'+2]'
p1392
ssS'Transfering MP3s are a cinch with the included software.'
p1393
(dp1394
S'trnasfer'
p1395
S'+2]'
p1396
ssS"I think I'll stick to CDs."
p1397
NsS'My PC is running Windows 98 though....maybe having old outdated things is a good thing for once!'
p1398
NsS'The sound is amazing.'
p1399
(dp1400
S'sound'
p1401
S'+3]'
p1402
ssS'I visited quite a few forums and while the iPod is a great player I was concerned with the battery life and the inability to change them without breaking open the case.'
p1403
NsS'The screen is clear and readable, and the touch pad works very well, it took me less than a day to get the hang of it, and now I like it better than having to click buttons or fiddle with a separate volume control.'
p1404
(dp1405
S' touchpad'
p1406
S'+2]'
p1407
sS'screen'
p1408
S'+2'
p1409
ssS"This time I'm going to get something a little more reliable - an iPod mini."
p1410
NsS'What device would I recommend?'
p1411
NsS'Looks and shape: I have a black one and the first time I charged it and switched it on jeez the blue light looked so cool.'
p1412
(dp1413
S'look'
p1414
S'+2]'
p1415
ssS'Best of all the WMAs(I have a lot of them) sound great.'
p1416
(dp1417
S'sound'
p1418
S'+3]'
p1419
ssS"For years I've downloaded songs and burned CDs, but I decided to simplify my life and get an mp3 player."
p1420
NsS'I wanted something more portable, shirt-pocket sized, and something to complement the new Yahoo Music Unlimited site.'
p1421
NsS'Upon logging in I received a notification that my player works with Napster but not Napster To Go.'
p1422
NsS"But, the Creative Zen Micro is plagued by a serious, serious stupid and elemenatary design flaw, and I'm going to tell you what it is...But first, two more things about this piece of garbage that's so great and could've made it a potenial IPOD killer."
p1423
(dp1424
S'design'
p1425
S'-2]'
p1426
ssS'Creative should hire some real industrial designers.'
p1427
NsS'The Zen Micro is smaller than it looks in pictures, and feels very solid.'
p1428
(dp1429
S'feel'
p1430
S'+2]'
p1431
sS'size'
p1432
S'+2'
p1433
ssS'i didnt get ipod because i dont especially like itunes (no music i want, but thats just me) and the creative product was cheaper; and i needed to be able to use WMA files.'
p1434
(dp1435
S'WMA files'
p1436
S'+2][u]'
p1437
sS'cheaper'
p1438
S'+2][u'
p1439
ssS'And I must say...this MP3 is very cool.'
p1440
(dp1441
S'player'
p1442
S'+2][p]'
p1443
ssS'As for the warrenty, i havent seen it yet, but i fear for a short on!'
p1444
NsS"Just check the menu on your Zen, and it's all there, and neatly stored."
p1445
NsS'Enjoy!'
p1446
NsS'This feature wo!'
p1447
NsS"This device looks pretty nice but it's really not very competitive."
p1448
(dp1449
S' player'
p1450
S'-2][p]'
p1451
sS'look'
p1452
S'+2'
p1453
ssS'So tack on a scroll wheel and... you still have to compete against the intuitive OS-based application that an iPod offers the user.'
p1454
NsS'Perhaps I bought the Micro to be different, the cheaper price tag (from Amazon), the design, or avoiding the high iPod theft in NYC subways.'
p1455
(dp1456
S'price'
p1457
S'+1'
p1458
sS' design'
p1459
S'+1]'
p1460
ssS'Actually, the Creative Zen Micro solves all that.'
p1461
(dp1462
S' look'
p1463
S'+2][p'
p1464
sS' capacity'
p1465
S'+2][p'
p1466
sS'sound quality'
p1467
S'+2][p'
p1468
sS' price'
p1469
S'+2][p'
p1470
sS' battery life'
p1471
S'+2][p'
p1472
sS' construction'
p1473
S'+2][p'
p1474
sS' compatibility'
p1475
S'+1][p]'
p1476
ssS'Inferior quality at a higher price (and shoddy reliability) is not quite justified just because they have a better spokesperson.'
p1477
NsS"Even when I set it to low, it's still very hard for me to adjust the player to where and what I want it to do."
p1478
(dp1479
S'touchpad'
p1480
S'-2][p]'
p1481
ssS"If I was pressed to find a negative aspect of the Zen Micro I would probably have to mention weak FM reception, but the building where I primarily use the Micro seems to have a history of terrible radio reception anyway, so you can take that for what it's worth."
p1482
(dp1483
S'FM reception'
p1484
S'-2]'
p1485
ssS'and supply those stupid white Headphones.'
p1486
(dp1487
S'Headphones'
p1488
S'-2]'
p1489
ssS"(It had locked up multiple times previously, but always managed to work afterwards) This time, the touch screen wouldn't respond to me and none of the buttons worked."
p1490
(dp1491
S'touchpad'
p1492
S'-3][u'
p1493
sS' buttons'
p1494
S'-3]'
p1495
ssS'i havent used it much yet so i dont know if i will have the same problem; obviously i hope not.'
p1496
NsS'These issues knock a single star off the review.'
p1497
NsS"If you're an itunes person then no one could argue against an IPod."
p1498
NsS"If you do not care about sound/music quality in the least, and don't mind the ability to store 800 songs less than promised, get the creative zen micro.   ##Otherwise, you should get an ipod."
p1499
NsS'This product is amazing and better than the Ipod you can get at the same price.'
p1500
(dp1501
S'player'
p1502
S'+3][p]'
p1503
ssS"I've since replaced it with a pair of black Sennheisers... Not only are the packaged earbuds pretty uncomfortable, but are too similar to iPod's and can target iPod theives here in NYC."
p1504
(dp1505
S'earbuds'
p1506
S'-1]'
p1507
ssS'Songs transfer lightning fast, and the two batteries that came in my box give me 24 hours of listen time.'
p1508
(dp1509
S'transfer speed'
p1510
S'+3'
p1511
sS' battery life'
p1512
S'+3]'
p1513
ssS'Screen review could be better.'
p1514
(dp1515
S'screen review'
p1516
S'-2]'
p1517
ssS'Its compact and has rounded edges.'
p1518
(dp1519
S'size'
p1520
S'+2]'
p1521
ssS"The touch controls took a little getting used to but now I wouldn't change it for the scroll wheel."
p1522
(dp1523
S'touch controls'
p1524
S'-1]'
p1525
ssS"Using right angled jacks on your headphones, which minimizes the movement of the headphones while plugged in, won't alleviate the problem."
p1526
NsS'Builtin microphone is great for recording short voice notes.'
p1527
(dp1528
S'microphone'
p1529
S'+3]'
p1530
ssS'I bought this a couple of months ago after researching all the reviews comparing with the iPod mini.'
p1531
NsS"It's been in my pocket, in my car, and in my bag in 20 inches of snow and 100 degree summers."
p1532
NsS'Initially, I was very impressed, after loading 180 songs it seemed to function very well but then it would lock up on me and a battery removal remedied this, I then downloaded the upgrades and everything seemed to be alright.'
p1533
(dp1534
S'functioning'
p1535
S'+1]'
p1536
ssS'Those are minor complaints though.'
p1537
NsS"The karma is only $5 more, it's small, had a 20 gig drive and supports more formats including ogg."
p1538
(dp1539
S'storage'
p1540
S'-][cc'
p1541
sS' format'
p1542
S'-2][cc]'
p1543
ssS'(linux geeks -> avoid the 2.x series that is aimed at windows media play!'
p1544
NsS'I have ripped over 100 songs from my CD collection and it was so easy and fast, and they all sound great.'
p1545
(dp1546
S'sound'
p1547
S'+3'
p1548
sS' rip'
p1549
S'+2]'
p1550
ssS'At the time of this writing, that firmware is a "beta release."'
p1551
NsS'PS.'
p1552
NsS't simply the best player on the market for a really low price, so why look anywhere else?'
p1553
(dp1554
S' player'
p1555
S'+3]'
p1556
sS'price'
p1557
S'+2'
p1558
ssS'The FM tuner is just a little spare icing on the cake.'
p1559
(dp1560
S'FM tuner'
p1561
S'+1]'
p1562
ssS'The earbuds, on the other hand, are decent in sound, but lacking in bass.'
p1563
(dp1564
S'earbuds'
p1565
S'+1'
p1566
sS' bass'
p1567
S'-2]'
p1568
ssS'Dont have to switch to another device for FM tuner.'
p1569
NsS'- Radio Quality: weak reception'
p1570
(dp1571
S'FM reception'
p1572
S'-2][u]'
p1573
ssS'As for the Zen Micro:\\  Cons:  I read that every button is touch sensitive, and thats very annoying when all the main buttons are on the front.'
p1574
(dp1575
S'touch sensitivity'
p1576
S'-2]'
p1577
ssS'ansfer speed[-2] #Right now, the Creative software transfers subscription music files very slowly.'
p1578
NsS'You can buy a new battery for 49.99.'
p1579
NsS'Pick your favorite color and buy it.'
p1580
(dp1581
S'player'
p1582
S'+][s]'
p1583
ssS"I'm getting stunningly good resul!"
p1584
NsS"Functionality, menus are easy to navigate... As many have mentioned, the touch pads take some time to get used to, but I've gotten used to it."
p1585
(dp1586
S' touchpad'
p1587
S'-1]'
p1588
sS'functionality'
p1589
S'+2'
p1590
sS' navigation'
p1591
S'+2'
p1592
ssS"I started looking at the Creative Zen Micro and after reading numerous reviews from message boards and magazines I decided I'd give the Zen a try."
p1593
NsS"if not amazed, I won't go into the kind of detail many people have here, but I do want to say a few things about my experience so far (I've had it about two weeks) with the Zen Micro;"
p1594
NsS'The stand that comes with it is very useful to prop it up on the desk.'
p1595
(dp1596
S'stand'
p1597
S'+2]'
p1598
ssS'in principle playlists, album names, artist names, etc would help you organize but this only works IF your tracks have all the necessary data; mine do not.'
p1599
NsS'The Zen lives up to the audio quality I love and expect.'
p1600
(dp1601
S'audio quality'
p1602
S'+2]'
p1603
ssS'And t!'
p1604
NsS"It's supposed to support that format, but I keep getting a file transfer failure no matter what I try."
p1605
NsS'The supplied headphones are hands-down better than the mediocre iPod buds.'
p1606
(dp1607
S'headphones'
p1608
S'+][cc]'
p1609
ssS" Problems with the sound quality were evident right away, but even I couldn't imagine they'd be that bad."
p1610
(dp1611
S'sound'
p1612
S'-3]'
p1613
ssS'A trick I used was to manually capitalize all the info.'
p1614
NsS'Software The software that comes along with it is not very intuitive but once you are used to it,it  does the job well.'
p1615
(dp1616
S'software'
p1617
S'-1]'
p1618
ssS'The file ripping/transfering software that comes with the player is easy to use.'
p1619
(dp1620
S'file transfer/rip software'
p1621
S'+2]'
p1622
ssS'You can use the player to store your computer data files (Good feature to have).'
p1623
(dp1624
S'storage '
p1625
S'+2][u]'
p1626
ssS'I primarily got the Zen to use for band practice, so I use the removable disk to store lyrics and sheet music.'
p1627
NsS'I love the touchpade controls.'
p1628
(dp1629
S'touchpad controls'
p1630
S'+2]'
p1631
ssS"White earbuds ( i replaced those with some shure headphones, big difference), a case, a stand, a clip (which doesn't really work), and a nice little zen micro bag."
p1632
(dp1633
S'bag'
p1634
S'+1]'
p1635
ssS'You can compress the files for more storage space before you start the transfer.'
p1636
NsS"The package also comes with a USB cable, an AC adapter, a pair of headphones (they're okay until you get a better pair), a stand, and a microfiber pouch to carry your Zen Touch in."
p1637
(dp1638
S'adapter'
p1639
S'+1'
p1640
sS'headphones'
p1641
S'+1'
p1642
sS'pouch'
p1643
S'+1'
p1644
sS' stand'
p1645
S'+1'
p1646
sS'cable'
p1647
S'+1'
p1648
ssS"Now, the player's ear phone jack is not working - I have to send it away again."
p1649
(dp1650
S'ear phone jack'
p1651
S'-3]'
p1652
ssS'Apple, on the other hand, seems to have engaged in a blind marketing strategy that seeks to obliterate competition through utter abuse of marketing channels and un-orthodox "free player" schemes that just seem to pimp the product without pimping the features.'
p1653
NsS"I'm guessing the more features you enable, the more the battery will drain."
p1654
NsS'Gets nice sound too.'
p1655
(dp1656
S'sound'
p1657
S'+3]'
p1658
ssS'It barely holds anything and mine just puts a bunch of thread fuzzies all over the player, because the bag is cheap and seems to be coming apart.'
p1659
(dp1660
S'bag'
p1661
S'-2]'
p1662
ssS"It's smaller, in most cases than the palm of your hand, and is ergonomically curved."
p1663
NsS"it's a neutral feature in my book."
p1664
NsS"When it's being used or charged it emits a low pulsating blue light."
p1665
NsS"Closing: For everyone who is shallow and buys the Ipod only becouse of it's looks (i'm not saying it's necissarily bad), here's a joke: What did the Pencil Sharpener say to t!"
p1666
NsS'About the product:  The Zen Micro is a sleek, stylish device that caters not just to "hip" youngsters but to people of all walks of life who like to listen on the go without having to worry frequently about battery life, size, or the "awkward" factor.'
p1667
(dp1668
S' battery life'
p1669
S'+2]'
p1670
sS'look'
p1671
S'+2][u'
p1672
sS' size'
p1673
S'+2'
p1674
ssS"However, once an album is playing, there's no gap between songs."
p1675
NsS"i got 6000 mp3's you'll never register or gay up."
p1676
NsS"I absolutely didn't want to by an Ipod."
p1677
NsS'My PC only supports USB 1.0 not the 2.0 which is blazing fast.'
p1678
NsS'It seems like the software is just not responding.'
p1679
(dp1680
S'software'
p1681
S'-3]'
p1682
ssS'Record memos using the built in microphone.'
p1683
(dp1684
S'microphone'
p1685
S'+1]'
p1686
ssS'Of course, some were better than others, and I probably could have gotten a better sound card from another company at some point.'
p1687
NsS'I have heard in other players these have to be brought separately.'
p1688
NsS'by broken i mean that it would no longer transmit sound.'
p1689
NsS'just too numerous to list: FM radio, which has weak reception, but at least it there, and a microphone, to name just two.'
p1690
(dp1691
S'FM reception'
p1692
S'-2][u]'
p1693
ssS"However after playing with it for three weeks now, I'm convinced, the Zen Micro is superior."
p1694
(dp1695
S'Zen micro'
p1696
S'+2]'
p1697
ssS'The iPod mini is smaller and sexier, albeit limited in supported formats and the Rio Karma is a far better value.'
p1698
(dp1699
S'player'
p1700
S'-][cc]'
p1701
ssS'In addition , iPods can be used as portable hard drives and can display your calendars and contact info.'
p1702
NsS'I saw the Zen, and-BOOM-I bought one for me and one for a family member.'
p1703
NsS'I also experimented with an adapter for the car.'
p1704
NsS'6.'
p1705
NsS'They said the repair could take weeks, and being impatient, I decided to just order another one, 1 day delivered from Amazon, and then I could have two, one for at work and one for at home.'
p1706
NsS'The Zen Micro is near perfect.'
p1707
(dp1708
S'Zen micro'
p1709
S'+2]'
p1710
ssS'Every few years I crawl out into the electronic world, in search of a new MP3 player to replace the horribly inadequate one I currently own.'
p1711
NsS'It feels solid and not flimsy like the carbon.'
p1712
(dp1713
S'solid'
p1714
S'+2][p]'
p1715
ssS'Sound: This is where I love Zen the most.'
p1716
(dp1717
S'sound'
p1718
S'+3]'
p1719
ssS'I have the black one and adore it.'
p1720
(dp1721
S'player'
p1722
S'+2][p]'
p1723
ssS'what a kick butt Mp3 machine and the freedom to get songs from a reasonable source, instead of paying for them two or three times, then get the Creative Zen IPOD killer, kiss my ass Itunes!'
p1724
(dp1725
S'machine'
p1726
S'+3]'
p1727
ssS'The headphones which came with it are mediocre at best but what can you expect from a set of "ear buds".'
p1728
(dp1729
S'headphones'
p1730
S'-1]'
p1731
ssS"ilt[+3][u] I've dropped the device several times onto hard surfaces, and it still works flawlessly."
p1732
NsS'The sonic detail at the highest compression rate(64 kbps WMA) is crazy.'
p1733
NsS'Even on the LOW sensitivy level, a slight touch can skip or pause the track.'
p1734
(dp1735
S'sensitivy'
p1736
S'-1]'
p1737
ssS'The bass treble the sound detail is awsome.'
p1738
(dp1739
S' treble'
p1740
S'+3]'
p1741
sS'bass'
p1742
S'+3'
p1743
ssS"It's being used daily and I have had none of the problems reported by other reviewers (headphone jack, player locking up, etc)."
p1744
(dp1745
S'working'
p1746
S'+3][u]'
p1747
ssS'I do not work for Creative; I had a chance to play with a review copy in-depth, as others have (See Engadget, Gizmodo, or c|net as examples).'
p1748
NsS'I also think that if you are going to offer them in different colors then commit all the way and have the entire device in that color, not just the front and color the head phones as well.'
p1749
NsS'My ONLY complaint is that when i first received it, it was a little buggy.'
p1750
NsS'The fit and finish of the product is first-rate.'
p1751
(dp1752
S'look'
p1753
S'2]'
p1754
ssS'00 song capacity of the disk without having to worry about the quality of your music (the Zen micro, actually starts off with about 4.7GB after loading the software).'
p1755
NsS'The Zen offered a great alternative.'
p1756
(dp1757
S'battery'
p1758
S'+2][u]'
p1759
ssS"To use the Creative Zen player with a subscription service, you need to go to Creative's web site, and download new software for your PC."
p1760
(dp1761
S'usage with subscription service'
p1762
S'-2][u]'
p1763
ssS"Well, if size matters, and you like the idea of a lime-green or bright yellow device, then I'd have to go with a Creative Zen Micro."
p1764
NsS'The Zen Micro is no exception: in addition to the case, it comes with a neck strap, and has all of the necessary cables for syncing and charging.'
p1765
(dp1766
S'additional accesories'
p1767
S'+1]'
p1768
ssS'Who knows -- you may avoid a migraine altogether.'
p1769
NsS'she also got me an iRiver FM modulator that plugs into the ligher outlet, so i can play it through my regular radio.'
p1770
NsS'Amazing.'
p1771
NsS'The scroll wheel is not an Apple innovation, but it took Apple to put it on their MP3 player for the obvious to become clear to the industry.'
p1772
NsS"I've had it for about a week now and have to say it's one of the best purchases I've ever made."
p1773
(dp1774
S'player'
p1775
S'+3][p]'
p1776
ssS'Today, the Creative Zen Micro proves it, too, gets it right.'
p1777
NsS'Then what?'
p1778
NsS'The iPods, like most Mac products, have a sophisticated but bland, look to them... Preferrably, I like some sass.'
p1779
NsS'Having owned both the karma and other Creative Lab products (including Zen) I would have to say the Karma also sounds better.'
p1780
NsS'POSITIVES:  Reasons for getting the Zen Micro instead of the iPod:  1.'
p1781
NsS'FM tuner & Microphone : Having a tuner in the player is a blessing.'
p1782
(dp1783
S'FM tuner'
p1784
S'+2]'
p1785
ssS'They now offer Yahoo Music Engine, wich is like Napster to Go, but at a fraction fo the price.'
p1786
NsS'The machine itself seems fine, but the software that came with it is AWFUL.'
p1787
(dp1788
S'software'
p1789
S'-3]'
p1790
ssS'I know what you are thinking.'
p1791
NsS'What\'s the point of having "good audio" in your hand when your g/f thinks you have no taste whatsoever and your friends laugh their heads off while proudly showing off their iPod Mini?'
p1792
(dp1793
S' player'
p1794
S'-3][u]'
p1795
sS'audio'
p1796
S'+2'
p1797
ssS'Tough as nails.'
p1798
(dp1799
S'construction'
p1800
S'+3][u]'
p1801
ssS'I looked at the market extensively and took a lot of advice before making the big buy here.'
p1802
NsS"Napster 2 Go also allows members to view other members play lists in different genres, so if you are looking for lots of songs and you don't want to search for them endless, you can just grab them from other members play lists. !"
p1803
NsS'So my first MP3 player purchase was incorrect.'
p1804
NsS'For whatever reason. There is also a low number of people, like me, who love iTunes but want to get the Zen Micro.'
p1805
NsS'Originally I was only getting around 8 hours of playtime out of my Zen Micro, but now I consistently get 10-13.'
p1806
NsS'While the software may not be as easy as I-Tunes, it is not difficult to use by any stretch.'
p1807
(dp1808
S'software'
p1809
S'-2]'
p1810
ssS'After narrowing my choices down to the Zen Micro or IPod Mini, I read countless reviews on both for about a week until my eyes practically started bleeding.'
p1811
NsS"I sent Creative customer service 3 emails in which they did not help me one bit and don't seem to even want to help."
p1812
(dp1813
S'customer service'
p1814
S'-3]'
p1815
ssS'It makes USB 2.0 feel like USB 1.1.'
p1816
NsS'There are do it yourself sites (with pictures)that show you how to repair it, but keep in mind that you will have to break the warranty seal, which means? ##Exactly, warranty voided.'
p1817
NsS'The features this thing has are !'
p1818
NsS'Why go in circles to find something you want? (  :)  )'
p1819
NsS'Everything shines of quality.'
p1820
(dp1821
S'quality'
p1822
S'+2]'
p1823
ssS' FM radio built in (Howard Stern).'
p1824
(dp1825
S'FM radio'
p1826
S'+1]'
p1827
ssS"I've programed WMP to throw a few favorites on there all the time and always put my new music (less than 3 months) on so I can listen to them in the gym."
p1828
NsS"If someone asked me flat out, i'd say to go woth something else."
p1829
(dp1830
S'player'
p1831
S'-][s]'
p1832
ssS'I also like the lock feature, so it makes the touch pad inactive.'
p1833
(dp1834
S'lock feature'
p1835
S'+1]'
p1836
ssS'The subscription service lets me download as much as I want, and the player lets me take it wherever I go.'
p1837
NsS"The subscription files are still a little slower to transfer, but it's only by about 10% or so."
p1838
(dp1839
S'transfer speed'
p1840
S'-1][u]'
p1841
ssS'Now, about the iTunes.'
p1842
NsS"You have to wonder why Creative can't get this right."
p1843
(dp1844
S'software'
p1845
S'-3][p]'
p1846
ssS'Another good feature is that you can charge the battery by just connecting the player to your computer using the USB cable.'
p1847
(dp1848
S'battery charging'
p1849
S'+2][u]'
p1850
ssS'I believe them.'
p1851
NsS'The good news is that the creative support is very responsive and after some emails and postal exchanges, i had a new zen.'
p1852
(dp1853
S'support'
p1854
S'+3]'
p1855
ssS'The included headphones suck, so get your own.'
p1856
(dp1857
S'headphones'
p1858
S'-3]'
p1859
ssS'After much research I decided that the Zen Micro was the best mp3 player for me.'
p1860
NsS'I popped one of the batteries in and to my surprised it started right up.'
p1861
NsS'The computer interface is 90% good, only losing points due to the fact that "Creative" branding is all over the place within it.'
p1862
(dp1863
S'interface'
p1864
S'+2]'
p1865
ssS'I take mine everywhere.'
p1866
NsS'going into the Zen from my computer, so my stubby, clumsy fingers could cordinate better with my color blind, near, far and mid sighted eyes.'
p1867
NsS'- Integration with Media Player.'
p1868
NsS'I then registered with Napster 2 Go and it immediately recognized my player.'
p1869
NsS"I'm still trying to manage the thing myself, but I've found that if you put the sensitivity to low it is fine."
p1870
NsS"In addition, I didn't like the fact that I'd have to pay $.99 for each song I wanted to download."
p1871
NsS'I have owned some kind of Creative audio product since 1993 and have never had to call tech support.'
p1872
(dp1873
S'creative'
p1874
S'+3]'
p1875
ssS"Other mp3 players won't give you the sonic clarity of the Zen at this compression level, so I imagine they won't at lower ones, either."
p1876
(dp1877
S'sound quality'
p1878
S'+2]'
p1879
ssS'- Not compatible with Audible.com books.'
p1880
(dp1881
S'audible.com book compatibility'
p1882
S'-3][u]'
p1883
ssS'What I like the most:  - Small and solid feel.'
p1884
(dp1885
S'feel'
p1886
S'+3]'
p1887
ssS'Here\'s a quote from Creative\'s web site (hoping to sell additional batteries):   "Carry an extra rechargeable battery for your Zen Micro for an additional 12 hours of nonstop music."'
p1888
NsS"So that's the one I bought."
p1889
NsS'Now the downside:  One of the features that factored into my choice of a Micro!'
p1890
NsS'The box included a little polyester, pull-string BAG, (yes, you read right a BAG, something a boy would carry ten marbles in) and tries to pass it off as the case.'
p1891
(dp1892
S'case'
p1893
S'-2]'
p1894
ssS'So far I have no complaints with this player.'
p1895
(dp1896
S'player'
p1897
S'+1]'
p1898
ssS'I have a lot of songs that I need to download.'
p1899
NsS'My first instinct was to go with an iPod.'
p1900
NsS"So, if you don't won't to void your warranty, you will have to get in touch with Creative, they will send you a rma number, fix your Zen, but you lose all of your dogon music."
p1901
NsS'They responded -after I told them I have a Zen Micro and suggested that my "jukebox" needed to be purged.'
p1902
NsS'On the fly play list creation, address book, removable storage drive capabilities, sound recorder, the list goes on people, this thing is literally so chalked full of goodies, it was like Halloween all over again.'
p1903
(dp1904
S'features'
p1905
S'+2]'
p1906
ssS'Respectable, solid, but not awe-inspiring.'
p1907
(dp1908
S'player'
p1909
S'-1][u]'
p1910
ssS"This doesn't affect standard MP3 files - just subscription WMA files."
p1911
(dp1912
S'subscription WMA'
p1913
S'-1]'
p1914
ssS'If you buying this player to use with Napster to Go, wait a while.'
p1915
(dp1916
S'Napster to go compatibility'
p1917
S'-3] '
p1918
ssS'At 128 the songs sound very good.'
p1919
(dp1920
S'sound'
p1921
S'+3]'
p1922
ssS'However, if you are considering purchasing one to use with subscription music services like Napster-to-go, or Yahoo Music Unlimited, there are a few things to keep in mind:  1.'
p1923
NsS"The battery is also convenient, but could have been better, such as the Zen Touch's battery (but at least this one is removable)."
p1924
(dp1925
S'battery'
p1926
S'+1]'
p1927
ssS'Finally, someone has figured out that building some smarts into the player will help it compete with iPods.'
p1928
NsS"The Zen Micro (mine's black) has a lot going for it."
p1929
(dp1930
S'windows compatibility'
p1931
S'+2][u]'
p1932
ssS'Zen micro does.'
p1933
NsS'Now, there are many alternatives to the Ipod, but I wanted a nice design, also, and not some generic looking mp3 player.'
p1934
NsS'They have a good concept here, and I normally expect a lot better quality from Creative, so maybe they will do better with the next gen version, but for now I say buyer beware.'
p1935
(dp1936
S'player'
p1937
S'-][s]'
p1938
ssS'The interface, while a bit confusing at first, is very easy to navigate after about 15 minutes.'
p1939
(dp1940
S'interface'
p1941
S'+1]'
p1942
ssS'Click on "Zen Micro Media Explorer" and then click on "Transfer Data Between PC and Device" after that, a File Explorer window opens.'
p1943
NsS"With the iPod, if the battery has reached it's life span (after about a year), and you didn't buy the warranty from the store, you need to buy a NEW player."
p1944
NsS'Tall order, eh?'
p1945
NsS"After research of other creative hard drive players, i found that most of them aren't very durable and tend to crash (read most reviews on amazon.com and see for yourself)."
p1946
(dp1947
S'durability'
p1948
S'-2]'
p1949
ssS') Button sensitivity: Even reduced to the lowest sensitivity setting, the buttons are far two sensitive, really takes some getting use to, and even then, it is still too sensitive.'
p1950
(dp1951
S'Button sensitivity'
p1952
S'-2]'
p1953
ssS'My list of "nice to have" features is a little longer, but it also contains nothing unreasonable: backlit screen, removable battery, FM Radio feature, ID3 Tag line support, lots of storage.'
p1954
NsS"Also, the earbuds that came with it sound great but are uncomfortable (although my wife didn't have a problem), so I bought a pair of over-the-ear headphones."
p1955
(dp1956
S'earbuds'
p1957
S'-1]'
p1958
ssS'Try an additional *six* hours, methinks.'
p1959
NsS'You don\'t need to cough up an extra couple bucks for a "special edition" to get black! - Sound: Awesome! - Batteries: removable/replaceable.'
p1960
(dp1961
S'sound'
p1962
S'+3]'
p1963
ssS'The Zen was an impressive purchase and I would highly recommend it to anyone using Napster.'
p1964
(dp1965
S'Zen'
p1966
S'+][s'
p1967
ssS'Once I did this, visions of burning my CDs-literally-dance around my head, and all was right in the world (of course, I would have backed my files up, silly).'
p1968
NsS'Bottom line.'
p1969
NsS' 2. ##'
p1970
NsS"I tried the help menu that referenced GUI buttons that don't exist on my version."
p1971
NsS'The interface works great.'
p1972
(dp1973
S'interface'
p1974
S'+3]'
p1975
ssS"That said, you can get more of what the Zen is capable of by donating them to your local iPod person (they're white) and getting a pair of $60-$80 aftermarket headphones."
p1976
NsS'So Creative should be "Creative".'
p1977
NsS'- Replaceable battery.'
p1978
(dp1979
S'battery'
p1980
S'+1]'
p1981
ssS"Whichever it may be, I'm happy I've made this purchase."
p1982
(dp1983
S'player'
p1984
S'+2][p]'
p1985
ssS'rvice, they said I should send it in for repairs.'
p1986
NsS'To transfer songs requires you to pay 99 cents.'
p1987
NsS'Let\'s just say it\'s no coincidence I put "Foxy Lady" on there.'
p1988
NsS'the sound is quite good, in terms of volume.'
p1989
(dp1990
S'sound'
p1991
S'+1]'
p1992
ssS"Another problem is that the latest 2.0 firmware upgrade moves you into Windows Media Player 10 which seems to be very, very slow for downloads.  charging[-2] ##Also note that it doesn't seem to charge when connected to the PC, only when plugged into an AC socket even though they both connect to the single USB port on the player, so you have to charge the battery separately from downloading music."
p1993
(dp1994
S'download speed'
p1995
S'-3]'
p1996
ssS'Some other companies require you to send your player back and then charge you an additional $130 to replace their batteries.'
p1997
NsS'Too bad.'
p1998
NsS'Are you feeling lucky today?'
p1999
NsS'Not because I wanted to go against the grain, but the idea of having to shell out another 100 bucks (after a year) in order to have Apple replace the non-removable battery just turned me off.'
p2000
NsS'On the downside, I think the interface takes some getting used to and the Zen software !'
p2001
(dp2002
S'interface'
p2003
S'-1]'
p2004
ssS'So I took out the battery and put it back in again, only to find that it would not work.'
p2005
(dp2006
S'working'
p2007
S'-3][u]'
p2008
ssS'It has to be the UI and user experience.'
p2009
NsS'After that, you connect your Zen Micro and open My Computer.'
p2010
NsS'I must say that there are several factors that influenced my purchase.'
p2011
NsS'This brings my review to one star!'
p2012
NsS'The hardcase they give with it must work well.'
p2013
(dp2014
S'hardcase'
p2015
S'+1]'
p2016
ssS'over and over again.'
p2017
NsS'Have not had any issues with the headphones or fragility.'
p2018
(dp2019
S'headphones'
p2020
S'+1]'
p2021
ssS"It's faster than WMP."
p2022
(dp2023
S'file transfer'
p2024
S'+2][p][cc]'
p2025
ssS'As opposed to the Nomad II or any other flash based player, the songs load extremely fast...about one or two seconds per song.'
p2026
(dp2027
S'loading speed'
p2028
S'+2]'
p2029
ssS'i have a lot of files in wma so that was the biggest factor in my decision to purchase the zen.'
p2030
NsS"SO, YOU MIGHT INQUIRE, WHY DON'T THEY MAKE IT A FIRST PRIORITY TO CAREFULLY, SIMPLY EXPLAIN HOW DOWNLOAD MUSIC FROM YOUR MUSIC LIBRARY TO THEIR DEVICE??? This seems academic to me."
p2031
(dp2032
S'EXPLAIN'
p2033
S'-3]'
p2034
ssS"Speaking of battery, it's removable AND replaceable!"
p2035
(dp2036
S'battery usage'
p2037
S'+1][u]'
p2038
ssS"But since it's so small, it isn't a big deal to bring it with me."
p2039
(dp2040
S'size'
p2041
S'+1][u]'
p2042
ssS"I don't know, maybe I got a defective one but first, the player would not shut off, next, the player would not come on - I had to send it away to get repaired."
p2043
(dp2044
S'on'
p2045
S'-3'
p2046
sS' off'
p2047
S'-3]'
p2048
ssS'I emailed the company and after 2 days was told to read their Q&A site and then download again.'
p2049
NsS'The scrol bar agian takes some getting used to.'
p2050
(dp2051
S'scroll bar'
p2052
S'-1]'
p2053
ssS'If you can get one with all the accessories and a cheap extended warranty, this is the player to get! Highly recommended.'
p2054
(dp2055
S' player'
p2056
S'+][s]'
p2057
sS'warranty price'
p2058
S'+2][u'
p2059
sS' accessories'
p2060
S'+2'
p2061
ssS"It wouldn't always work seemlessly with WMP and it often required me to restart the frozen micro by taking out the battery and restarting it."
p2062
(dp2063
S'work with WMP'
p2064
S'-2]'
p2065
ssS'I had the second one for less than two weeks when I noticed a rattling/humming/buzzing sound while music was played.'
p2066
(dp2067
S'sound'
p2068
S'-3]'
p2069
ssS"The plus was the storage size but I didn't like hearing the hard drive spin."
p2070
NsS'My gatekeeper programs kept fixes away a few times until I got wise to it.'
p2071
NsS'Even the "shorter" battery life, though, has not impaired my positive experience with the Zen Micro in any way.'
p2072
(dp2073
S'battery life'
p2074
S'-2]'
p2075
ssS'Thankfully, Creative has come through with a product that puts the Ipod back in its place.'
p2076
(dp2077
S'player'
p2078
S'+2][u]'
p2079
ssS'Plug in a decent set or hook it up to a stereo system and prepare to be impressed.'
p2080
NsS'It makes the Nomad I purchase feel and look like junk.'
p2081
(dp2082
S'player'
p2083
S'+][p][cs'
p2084
ssS'Before you run out and buy an iPod, understand something: there are REASONS the Zen is worth encountering this kind of hassle, principally excellent (for MP3) sound quality.'
p2085
(dp2086
S'sound quality'
p2087
S'+3]'
p2088
ssS"player[-][s]However, this one makes an ipod sound like your old LP's, so even if you're a casual listener, I'd advise that you avoid the purchase of this product. Terrible."
p2089
NsS'I managed to fit about 700 tracks on the player, but many of those are 6-15 minute long classical tracks.'
p2090
NsS'In conclusion, this player is beautiful.'
p2091
(dp2092
S'player'
p2093
S'+3]'
p2094
ssS"If you're an audiophile, you already know that mp3 players are far from impressive."
p2095
NsS'I just tried to move a load of plain data files from my home computer to my office work computer, and it is promting me to install Zen Micro software, etc....'
p2096
NsS'Looks nice but the conrols are awkward and the entire front is touch sensitive.'
p2097
(dp2098
S' touchpad'
p2099
S'-2][u]'
p2100
sS'look'
p2101
S'+2'
p2102
sS' controls'
p2103
S'-3'
p2104
ssS"The karma doesn't look as sexy but it's interface is very efficiently designed."
p2105
(dp2106
S' interface'
p2107
S'-2]'
p2108
sS'look'
p2109
S'+][cc'
p2110
ssS'Also all the required cables and what not.'
p2111
NsS'It was time to exchange it for the other player the Creative Zen Micro 5 GB MP3 Player Black.'
p2112
NsS'It was also the most appealing.'
p2113
(dp2114
S'appeal'
p2115
S'+3]'
p2116
ssS'eball metaphor: I was hoping Creative hit a home run here, and I think the Zen Micro is more like a stand-up double.'
p2117
(dp2118
S'Zen micro'
p2119
S'+2]'
p2120
ssS'i dont especially like how music files are unstructured; basically they are just dumped into one folder with no organization, like you might have in windows explorer folders and subfolders.'
p2121
(dp2122
S'organization'
p2123
S'-2][u]'
p2124
ssS'Mine is as easy to use as the mini without any firmware download.'
p2125
(dp2126
S'ease of usage'
p2127
S'+2][u]'
p2128
ssS'One of my favorite features about the player is its ability to sync to Windows Media Player.'
p2129
(dp2130
S'sync to windows media player'
p2131
S'+1]'
p2132
ssS'5.'
p2133
NsS'It was a good player when it worked and I loved the design.'
p2134
(dp2135
S'design'
p2136
S'+2]'
p2137
ssS"You can only copy songs you've downloaded for free or ripped from a CD."
p2138
NsS'Pressed play and I was off.'
p2139
NsS"Really that's all I can find wrong with it, it took some major bouncing around to get a song to skip (there is a hard drive within), and I don't forsee jogging (wich I plan to do with it tonight) to cause any problems whatsoever (if it does, I'll update this)."
p2140
NsS"The radio works excellent in my area, I'm not sure everywhere else."
p2141
(dp2142
S'radio'
p2143
S'+3]'
p2144
ssS") WORST FEATURE POSSIBLE, THIS ALONE MAKES IT RATE ONE STAR: What's up with no recharge cord?"
p2145
(dp2146
S' recharge cord'
p2147
S'-3]'
p2148
sS'FEATURE'
p2149
S'-3'
p2150
ssS"it's a little counter intuitive at first, but works great when your used to it."
p2151
NsS'I just discovered another con in my list of pros and cons.'
p2152
NsS"Hands down, better quality than ipod's."
p2153
NsS'players that are currently available, but not the Zen Micro.'
p2154
NsS'the headphones are not very comfortable, but most people have a certain style they like so just go buy new ones or keep the ones you have.'
p2155
(dp2156
S'headphones'
p2157
S'-2]'
p2158
ssS'Spare batteries incase  you need some extra hours without charging.'
p2159
NsS'Although some came close to perfection, none of them left me completely happy with their performance.'
p2160
NsS'**** I gave up a ton of positive reviews to add this addendum.'
p2161
NsS"The life-span on it, though, is NOT as advertised, but if you're not a heavy user, you can tick in at 9-10 hours of playback."
p2162
NsS"If I could, I'd trade-up on my Creative Muvo2 and snag a Zen Micro tomorrow."
p2163
(dp2164
S'player'
p2165
S'+2]'
p2166
ssS'Its my first purchase choice.'
p2167
NsS'Well, I have an Ipod mini - and I really like it, but all in all, I like the Zen Micro more.'
p2168
(dp2169
S'Zen Micro'
p2170
S'+2]'
p2171
ssS'Moving on to sound department... It delivers!'
p2172
(dp2173
S'sound'
p2174
S'+1]'
p2175
ssS'I have used similar devices and they are seamless and simple.'
p2176
NsS'But, they rushed it to market, so you, general public, get to roll the dice.'
p2177
NsS'The first thing I did was upgrade the firmware to the version required for WMP10, it syncs flawlessly with Media Player and transfers are fast.'
p2178
(dp2179
S'transfer'
p2180
S'+2'
p2181
sS' sync with media player'
p2182
S'+1][u]'
p2183
ssS'Set the sensitivity of the touch pad to LOW.'
p2184
NsS'Putting the Micro into your pocket could trigger just about anything (unless the hold feature is improved: it asks if you want to "unhold" for every button up press) Second, I\'m worried about the durability of the player.'
p2185
(dp2186
S'durability'
p2187
S'-2]'
p2188
ssS"Some features that the 'Zen Micro' has that sold me on my purchase include: a 5G hard drive...actually an SD flash card drive...very large and much more than actually needed, the ability to sync with Microsoft Outlook's calendar, the long battery life of about 10 to 12 hours (I can change the battery myself for about $40 to buy vs."
p2189
(dp2190
S' extra features'
p2191
S'+2][u]'
p2192
sS' battery life'
p2193
S'+3'
p2194
sS'storage'
p2195
S'+3][u'
p2196
ssS"Overall, the Micro is a solid device and I haven't fell into a problem with it yet *knocks on wood*."
p2197
(dp2198
S'Micro'
p2199
S'+2]'
p2200
ssS'Of all the players that I have owned in the past (6 of them), all of them have had drawbacks and problems.'
p2201
NsS'Freebies you get: A cradle with detachable stand and belt clip, some thing very handy and useful.'
p2202
(dp2203
S' stand'
p2204
S'+1]'
p2205
sS'belt clip'
p2206
S'+1'
p2207
ssS'I got about 700 loaded up before it told me I was full, and at that point, I was ready to toss it out the window.'
p2208
(dp2209
S'storage'
p2210
S'-2][u]'
p2211
ssS"I'm going to try to get a refund but considering all the hoops I jumped through (emails, downloads, reboots, a purge and another download, plus reading through the help menu) a refund should be twice as frustrating."
p2212
(dp2213
S'support'
p2214
S'-3][u]'
p2215
ssS'The slow throbbing glow that it emits during charging is cool too.'
p2216
NsS'these are the things I was curious about when I was shopping around.'
p2217
NsS'e again.'
p2218
NsS"Why isn't it?"
p2219
NsS'Unfortunately, Creative offered scant few pages of instruction, which meant that I was on own from the outset.'
p2220
(dp2221
S'instruction'
p2222
S'-2]'
p2223
ssS'The blue backlight is pretty cool.'
p2224
(dp2225
S'backlight'
p2226
S'+3]'
p2227
ssS'That\'s it for now, what are you doing still reading this, click the "Add to Cart" button already!'
p2228
(dp2229
S'plaeyr'
p2230
S'+][s]'
p2231
ssS'This is my first MP3 player and I am so impressed with what such a small device can do.'
p2232
(dp2233
S'player'
p2234
S'+2][p]'
p2235
ssS'I keep boxes for all my equipment for storage and moving.'
p2236
NsS've heard many good reviews of this product and I wonder if maybe I just had bad luck.'
p2237
NsS"The headphone jack gave out after only a couple weeks of use, and the stock earbuds were replaced same day with some high end sony's I'd been having."
p2238
(dp2239
S'headphone jack'
p2240
S'-3]'
p2241
ssS"features[-][u][cc]It hold's a promised amount of songs, and the headphone jack/volume controls deliver a more impressive performance than creative's."
p2242
NsS"That's it."
p2243
NsS'The radio and voice recording are nice.'
p2244
(dp2245
S'radio'
p2246
S'+2'
p2247
sS' voice recording'
p2248
S'2]'
p2249
ssS'It is unlikely that you will EVER get the best products just by sticking with one company.'
p2250
NsS'Frustrated, I exchanged the player only to get another faulty one!'
p2251
NsS"Transferring files couldn't be easier thanks to the included software bundle."
p2252
(dp2253
S' software'
p2254
S'+2]'
p2255
sS'file transfer'
p2256
S'+2][u'
p2257
ssS'When most of us purchase these little devises, we do so because of their diminuitive size and extraordinary storage capacities.'
p2258
NsS'Apple is Apple.'
p2259
NsS'The Zen Micro FM receiver is ok, not great.'
p2260
(dp2261
S'FM receiver'
p2262
S'+1]'
p2263
ssS'Flawless.'
p2264
(dp2265
S'compatibility'
p2266
S'+3]'
p2267
ssS"It is the 'first generation' of the player, and while I still agree that it is a great alternative to the iPod, I think there are many others that would be a much better value for your buck."
p2268
(dp2269
S'player'
p2270
S'-3][u]'
p2271
ssS"whatever...  on to the negatives:  -touchy about charging... you can damage the battery and seriously decrease it's life if you don't upgrade the firmware OR dont' heed the advice to always plug in the player side of the cord before plugging in the outlet side."
p2272
(dp2273
S'charging'
p2274
S'-1]'
p2275
ssS'They seem to be working on a fix and will probably sort it out soon.'
p2276
NsS'Soon I will have every CD song I care about from my collection to carry around with me.'
p2277
NsS'A bargain $200.'
p2278
NsS'No comparison in my opinion.'
p2279
NsS'This is by far my biggest complaint.'
p2280
NsS'The sound is great, the portability, etc... all the "stuff" you expect from a good MP-3 player, this Zen Micro has it.'
p2281
(dp2282
S'sound'
p2283
S'+3'
p2284
sS' portability'
p2285
S'+2]'
p2286
ssS"I've never owned an Ipod, so this won't be a which one is better review."
p2287
NsS"I've tried different headphones, upgrading firmware, using different files and nothing helps."
p2288
NsS'The player was large and bulky.'
p2289
NsS'It is exactly the same size as my flip phone.'
p2290
NsS'With the latest version (10), I can simply browse my WMP library, adding songs/albums/artists to the sync list, and then sync all of the tracks at any time.'
p2291
NsS"I love how small the thing is, and the blue glow - I've had it for two weeks with no electronic problems at all."
p2292
(dp2293
S'small'
p2294
S'+3]'
p2295
ssS'So starting out i knew i wanted a windows friendly player.'
p2296
NsS"This player is absolutely phenomenal, I haven't had any problems, and if you're worried you will have problems, I suggest buying it at a retail store that has a good return policy but anyways... I find the touch pad very easy to use, and I'm surprised so many people have had problems."
p2297
(dp2298
S'player'
p2299
S'+3'
p2300
sS' functioning'
p2301
S'+2][u'
p2302
sS' touchpad'
p2303
S'+2]'
p2304
ssS'Limitations: - Not a lot of original accessories like the iPod.'
p2305
(dp2306
S'accessories'
p2307
S'-2]'
p2308
ssS') No locked-in proprietary business like Apple; this baby plays WMAs too.'
p2309
(dp2310
S'play WMA'
p2311
S'+2]'
p2312
ssS'Creative has excellent music software, a very responsive tech support group (they are quick on firmware updates, and make them publicly available), and usually a good array of accessories.'
p2313
(dp2314
S' tech support'
p2315
S'+2'
p2316
sS' accessories'
p2317
S'+2]'
p2318
sS'software'
p2319
S'+3'
p2320
ssS'Last, i find the price a bit expensive for a product such as this.'
p2321
(dp2322
S'price'
p2323
S'-2]'
p2324
ssS'Some upgrades are needed for the Micro to work properly with the Windows XP operating system and Media Player 10.'
p2325
NsS"Another thing I don't like is that some of the features take 1-2 seconds to load up."
p2326
(dp2327
S'response speed'
p2328
S'-1][u]'
p2329
ssS'The support has been less than impressive, considering the cost.'
p2330
(dp2331
S'support'
p2332
S'-3]'
p2333
ssS'All-in-all, Creative has definitely come up with a winner in terms of product design and features, and I look forward to the Nomad/Zen line of products seizing more market share as people begin to realize that quality is a better determinant of experience than quantity and hype.'
p2334
(dp2335
S' features'
p2336
S'+2]'
p2337
sS'design'
p2338
S'+2'
p2339
ssS'The little bag it comes with is cheap and useless.'
p2340
(dp2341
S'bag'
p2342
S'-3]'
p2343
ssS'Nevertheless, I still get shirked when someone out of ignorance states "But it\'s not an IPod!" or "Never heard of it, I\'ll go with the IPod".'
p2344
NsS'm.'
p2345
NsS'All of my files are mp3 or wma, Windows Media Player is my primary music suite, i use it to burn, play, rip, and sync.'
p2346
NsS'This proprietory software to download.'
p2347
NsS'You have to purchase that separately for some outrageous cost.'
p2348
(dp2349
S'cost'
p2350
S'-3'
p2351
ssS"The reason why I didn't give the Zen Micro 5 stars is that they also seem to want to conform the the Ipod sense of style."
p2352
NsS'I would give the Creative Zen Micro five stars without hesitation...except for the eight hours of my life I can never get back.'
p2353
NsS'rks almost without fail, no matter what your taste in music is: From relaxation music to hard rock, to hip hop, to Korean and Japanese, to Afro-Cuban and Salsa, Jazz, Blues, Country and Pop, this feature performs well.'
p2354
(dp2355
S'labling'
p2356
S'+3]'
p2357
ssS"What is the conjunctive probability that each successive product release will be without flaws or that the company isn't having turnover in the R&D department (or making bad management decisions)?"
p2358
NsS'I really like both of them and as with any other popular products, they both have their share of negative reviews warning of their shortcomings.'
p2359
NsS"The FM radio's reception isn't spectacular, but it will pick up the most powerful stations in any given metro area."
p2360
(dp2361
S'FM reception'
p2362
S'-2]'
p2363
ssS"With WMP10, you don't need to install any software other than the driver, which makes using multiple computers fairly simple."
p2364
NsS'It DOES take some getting used to.'
p2365
(dp2366
S'scrollpad'
p2367
S'-1]'
p2368
ssS'An extra gig of room, FM radio, voice recorder, PIM applications with sync to Outlook.'
p2369
(dp2370
S'extra features'
p2371
S'+3]'
p2372
ssS'First of all, why does every single piece of media library software that comes with an MP3 player suck?'
p2373
NsS"Don't worry this player rocks."
p2374
(dp2375
S'player'
p2376
S'+3][p]'
p2377
ssS"I waited for Creative's FM transmitter for a month, finally bought a Belkin Tunecast II, which is not great."
p2378
NsS"When I opened the box, I was shocked by the size of this thing... It's TINY!"
p2379
(dp2380
S'size'
p2381
S'+2]'
p2382
ssS"I have had several MP3 players over the past few years, and have to say that this by far is the best that I've owned."
p2383
(dp2384
S'player'
p2385
S'+3][p]'
p2386
ssS'However, there is a more detailed PDF manual on the CD (and online) that should answer any questions about the operational features of the Zen Micro.'
p2387
(dp2388
S'manual'
p2389
S'+1]'
p2390
ssS'Again, the headphone jack on this thing is garbage.'
p2391
(dp2392
S'headphone jack'
p2393
S'-3]'
p2394
ssS'I dont use the headphones that come with it instead I use Bose Triport headphones.'
p2395
NsS"ORIGINAL REVIEW December 2004 I'm sorry to read about other people having problems with their Zen Micro, but mine has worked great!"
p2396
(dp2397
S'player'
p2398
S'+2][p]'
p2399
ssS'The Zen plays mp3, wma and wave formats, which makes it more versatile than the Ipod.'
p2400
(dp2401
S'format'
p2402
S'+2]'
p2403
ssS'The Micro has an impressive array of very nice features and a well designed user interface.'
p2404
(dp2405
S' user interface'
p2406
S'+3]'
p2407
sS'features'
p2408
S'+3'
p2409
ssS"No offense to Amazon, but I was able to find one online for just over 200 bucks (I'm sure prices here will continue to sink), and that also seemed quite a good bargain for the amount of storage space."
p2410
(dp2411
S'srorage'
p2412
S'+2]'
p2413
ssS'I bought my Zen Micro three months ago mainly because I preferred the size and style to the iPod mini.'
p2414
(dp2415
S' style'
p2416
S'+1]'
p2417
sS'size'
p2418
S'+1'
p2419
ssS'And so far, I have been very, very happy with my Zen Micro.'
p2420
(dp2421
S'Zen Micro'
p2422
S'+3]'
p2423
ssS'So yeah, you can have the best of both worlds.'
p2424
NsS"The sound is bright and clear, the ability to store any MP3's (and not just Apple-approved files) is great, and I plan to make use of the storage space and sound recording from time to time."
p2425
(dp2426
S'sound'
p2427
S'+2'
p2428
sS' storage'
p2429
S'+2][u]'
p2430
ssS'PC software that comes with the player is not as simple as i Tunes but its not bad at all.'
p2431
(dp2432
S'PC  software'
p2433
S'-2]'
p2434
ssS'NAGATIVES of the Player itself:  You need to do a little work before having full enjoyement of this player.'
p2435
(dp2436
S'Player'
p2437
S'-1]'
p2438
ssS'The only reason for not giving it 5 stars: the claimed battery life of 12 hours is very optimistic - possible maybe if you really sit down and listen continuously for 12 hours without ever touching the player, but in real life I can probably get 6-8 hours at most.'
p2439
(dp2440
S'battery life'
p2441
S'-2]'
p2442
ssS'This is a perfect blend to accomplish both tasks.'
p2443
(dp2444
S'player'
p2445
S'+2][p'
p2446
sS' size'
p2447
S'+2][p]'
p2448
sS' portability'
p2449
S'+2][p'
p2450
ssS"I also own a retail store and this little guy easily plugs into my AUX slot in the store's sound system."
p2451
(dp2452
S'plug in'
p2453
S'+2]'
p2454
ssS'First I removed each piece and laid them out on my coffee table.'
p2455
NsS"This is the mp3 player with everything I need.  As long as it lasts me a good three years, I'm satisfied."
p2456
(dp2457
S'player'
p2458
S'+2]'
p2459
ssS'This player is not compatible with Napster To Go.'
p2460
NsS'UPDATE March 3rd, 2005: I bought my Dark Blue Zen Micro back in November, when they first came out.'
p2461
NsS') Creative, Inc. the maker includes the barest of the bare minimum in the box, then through gross profiteering nickles and dimes you on EVERY single accessory at extraordinarily inflated prices.'
p2462
(dp2463
S'prices'
p2464
S'-3]'
p2465
ssS"Yes, there is a belt clip, but that doesn't hold the extra battery and usb cable."
p2466
(dp2467
S'belt clip'
p2468
S'-1]'
p2469
ssS'Why, troubleshooting, mediating software conflicts, devising workarounds, and when things got too bizarre, even calling tech support.'
p2470
NsS'As for the problem with locking up mentioned in a previous post, it only seems to happen if the USB cable is unplugged while WMP 10 is still running.'
p2471
NsS"er compatibility, you can't downgrade the firmware."
p2472
NsS'+looks snazzy +smaller than a pack of smokes - easily transported +ac charger included as well as a hardshell that comes with a clip and a stand adapter +USB cable !'
p2473
(dp2474
S' accessories'
p2475
S'+2][u]'
p2476
sS'look'
p2477
S'+2'
p2478
sS'size'
p2479
S'+2'
p2480
ssS"The touch buttons are textured so that your finger sdon't slip which was very thoughtful."
p2481
(dp2482
S'touch buttons'
p2483
S'+3]'
p2484
ssS"First thing I noticed was that the creative wasn't well made."
p2485
(dp2486
S'made'
p2487
S'-3][u]'
p2488
ssS'Why not join the iPodders like the rest of the world?'
p2489
NsS"Just because Amazon doesn't have it to sell doesn't mean the product is unavailable for review."
p2490
NsS'I was more excited about this player upon opening than I was about the Nomad.'
p2491
(dp2492
S'player'
p2493
S'+1][cs]'
p2494
ssS"On the whole, I'm quite happy with the purchase."
p2495
(dp2496
S'player'
p2497
S'+2][p]'
p2498
ssS'Something about the pictures suggests a deck-of-cards size, but you can hide the Micro completely under a standard business card.'
p2499
NsS') I purchased this device primarily to record off the built-in FM receiver for lectures and seminars that are broadcast live over a FM signal for the hearing impaired.'
p2500
NsS'Who wants to go through the hassles of loading software onto a "foreign" computer just to move over some simple (*.txt) files?'
p2501
(dp2502
S'software'
p2503
S'-2]'
p2504
ssS'00% good though, and the Zen does have a few drawbacks.'
p2505
(dp2506
S'Zen'
p2507
S'-2]'
p2508
ssS'Creating and modifying playlists is easy and clean.'
p2509
(dp2510
S'playlists'
p2511
S'+3]'
p2512
ssS'I would say the only thing I need to adjust is the sensitivity of the touch pad.'
p2513
NsS'Actually only three players are on the list for Napster To Go.'
p2514
NsS'It also comes with a case so you can either stand it up or use a belt clip.'
p2515
NsS'For the price I think this is a remarkably fun MP3 player.'
p2516
(dp2517
S'player'
p2518
S'+2]'
p2519
ssS'- The FM Radio.'
p2520
NsS'Why get locked in to crappy Itunes weather you want to or not?'
p2521
NsS'I will be using the player 99% of the time as an MP3 device, so these small pauses are entirely bearable, for the added features just to be available.'
p2522
NsS'Track #, name, artist, album and genre is automatically-retrieved via internet-labeled, and properly catergorized into the Zen.'
p2523
(dp2524
S'organization'
p2525
S'+2][u]'
p2526
ssS'Tested with the same mp3 for benchmarking'
p2527
NsS'The flaw is in the circuit board that the headphone jack is connected to.'
p2528
(dp2529
S'headphone jack'
p2530
S'-2]'
p2531
ssS'The first was an ipod 5gb (I could kick myself for not buying it), and the other was a creative 5gb.'
p2532
NsS'Remember mp3 format lets you store tons of songs.'
p2533
NsS'I say get one today!!'
p2534
NsS"The Touchpad is virtually unusable -- sometimes you have to press like mad to make a selection and other times the slightest brush causes something to be selected that you don't want."
p2535
(dp2536
S'touchpad'
p2537
S'-3]'
p2538
ssS"I'm not gonna go into the features cause if you're reading this review, you've probably already looked at them, but I must say the DJ feature if Very cool and the removable battery is also a bonus!"
p2539
(dp2540
S'battery'
p2541
S'+1'
p2542
sS' features'
p2543
S'+2]'
p2544
sS' DJ'
p2545
S'+2'
p2546
ssS'I have visited multiple websites, and for virtually EVERY new hard-drive-based mp3 player I find, there are always user reviews that smash the new player and say something like "Just go buy an Ipod!"'
p2547
NsS'Finally I upgraded the firmware and log in to Napster.'
p2548
NsS'While they all seem to have their own positives and negatives, I picked the Zen Micro over the Ipod mini, because I am not an Apple person, never has been - I wanted something that is fully compatible with Windows Media Player.'
p2549
(dp2550
S'compatibility with windows media player'
p2551
S'+3] '
p2552
ssS'I have trashed this product on other opinion sites based on this major flaw alone.'
p2553
(dp2554
S'product'
p2555
S'-2]'
p2556
ssS"But Amazon won't allow me to reduce the number of stars once I have already established three two days ago."
p2557
NsS'This program enables the user to batch convert and convert audio files from one format to another.'
p2558
(dp2559
S'converter'
p2560
S'+2]'
p2561
ssS'This one is particularly bothersome: Allegedly one can use the Zen Micro as a portable drive to store and transport data from one computer to another.'
p2562
(dp2563
S'Zen Micro'
p2564
S'-2]'
p2565
ssS'u may need to briefly disable various spam blockers, cookie swatters, and antivirus programs (I know, I know -- get offline first).'
p2566
NsS'Do NOT buy Apple.'
p2567
NsS'Utility Its got a huge list of features including an FM Recorder a Calender and contacts list.'
p2568
(dp2569
S'features'
p2570
S'+3]'
p2571
ssS'I actually prefer the vertical strip rather than running my thumb in continuous circular motion.'
p2572
NsS"It's too bad, though, that !"
p2573
(dp2574
S'player'
p2575
S'-3][p]'
p2576
ssS'Still has terrible software.'
p2577
(dp2578
S'software'
p2579
S'-3]'
p2580
ssS'I threw it away.'
p2581
NsS"Only slight negatives I've had so far is that I haven't been able to get it to accept any of my WAV files yet."
p2582
(dp2583
S'WAV format'
p2584
S'-3]'
p2585
ssS'I waited a week to make the Micro worthy of a review.'
p2586
NsS'There were two downloads I had to complete.'
p2587
NsS'Why would anyone buy this when you can get a 20GB iPod that will hold 4 times the number of songs (and even MORE if AAC encoding is used) for the same price???'
p2588
(dp2589
S'storage'
p2590
S'-][cc]'
p2591
ssS'The greatest thing about the software (in my humble) is that it reads your CD info.'
p2592
(dp2593
S'software'
p2594
S'+2]'
p2595
ssS'The blue light also makes this player one of the most fashionable in the market also.'
p2596
(dp2597
S'look'
p2598
S'+2][u]'
p2599
ssS'4.'
p2600
NsS'You quickly learn to brush your thumb ever so lightly over its surface.'
p2601
NsS'+Battery life is awesome IF you upgrade the firmware [requires a windows pc] OR make sure to always plug the ac adapter into the player before plugging into the outlet +Awesome sound quality... I mean it is Creative right?'
p2602
(dp2603
S'battery life'
p2604
S'+3'
p2605
sS' sound quality'
p2606
S'+3]'
p2607
ssS'As I wrote, this COULD have been a great product, but expect hidden charges (read gross profiteering and price gouging) as the company royally sticks you on every conceivable accessory necessary for normal daily usage.'
p2608
(dp2609
S'charges'
p2610
S'-2]'
p2611
ssS"If you don't mind all the buttons being touch sensitive, I'd recomment buying it to try out, and also buy an extra 2 year warrenty for it (there are some offered here, for about $15 dollors I think)."
p2612
(dp2613
S'player'
p2614
S'+][s]'
p2615
ssS'I first signed up for Napster on line.'
p2616
NsS"They didn't really make any difference."
p2617
NsS'I love that you can create custom playlists, and organize music in so many different ways.'
p2618
(dp2619
S'organization'
p2620
S'+2][u]'
p2621
ssS"Two: it has a removeable/rechargeable battery, so you don't have to send the thing in when the re!"
p2622
(dp2623
S'battery'
p2624
S'+1]'
p2625
ssS'The hook with this MP3 player, distinguishing it from the others, is clearly going to be the OS applications it provides.'
p2626
NsS"When it's working, it's great but it is very tempermental."
p2627
(dp2628
S'player'
p2629
S'+1][p]'
p2630
ssS'While I have not had the "privilege", as many call it, of owning an Ipod, based on the experience of friends who have had some misfortune with their Ipod (and subsequently purchased the Zen Touch or Zen Micro), I can pretty much rest assured that my decision to purchase the Zen Micro was one of the more informed ones.'
p2631
(dp2632
S'Zen micro'
p2633
S'+2]'
p2634
ssS'Verdict:  Had I not needed something with a tad bit more space, I consider this player fair game.'
p2635
(dp2636
S'storage'
p2637
S'-1][u]'
p2638
ssS'I took my Zen Micro with me over the weekend, and was forced to lug my laptop with me on the trip for one reason: to keep the Zen Micro charged.'
p2639
(dp2640
S'charged'
p2641
S'-2]'
p2642
ssS'I occassionally flip songs while working out as i accidently hit the pad even lightly (yes i have it in maximum desensitized mode).'
p2643
(dp2644
S'touchpad'
p2645
S'-1]'
p2646
ssS'Doing what, you ask?'
p2647
NsS'I sync the player with Napster software and it downloaded the library I had already created.'
p2648
NsS'You get a USB cable headphones, a pouch, software except headphones you will like every thing else.'
p2649
(dp2650
S' accessories'
p2651
S'+2]'
p2652
sS'headphones'
p2653
S'-3'
p2654
ssS'It comes loose after 3 months-give or take-of careful use.'
p2655
NsS'They obviously have quality and reliability problems.'
p2656
(dp2657
S' reliability'
p2658
S'-2]'
p2659
sS'quality'
p2660
S'-2'
p2661
ssS"Overall, I've been very impressed with the player."
p2662
(dp2663
S'player'
p2664
S'+2]'
p2665
ssS"Overall though, i'm very happy with it and highly recommend it to folks looking for a mp3 player, even if it is to pretend your not a braindead consumer giving into the marketing hype of the iPod. ;)"
p2666
(dp2667
S'player'
p2668
S'+][p][s]'
p2669
ssS'Further, the tech specs suggest that it has better audio quality than the Ipod.'
p2670
(dp2671
S'audio quality'
p2672
S'+][cc]'
p2673
ssS'IRiver has a better FM receiver built in, but the drawback to IRiver products is they are flimsy and poorly constructed.'
p2674
(dp2675
S'FM receiver'
p2676
S'-][cc]'
p2677
ssS'and labels it before you burn the CD into the Zen.'
p2678
NsS"However, the Ipod does not come close to the number of extra features that the 'Zen Micro' has to offer."
p2679
(dp2680
S'features'
p2681
S'+3][cc]'
p2682
ssS'I get occasional hiss while driving.'
p2683
NsS'The interface has a sassier flair and the blue-lit trimming is an added bonus.'
p2684
(dp2685
S'interface'
p2686
S'+1'
p2687
sS' trim'
p2688
S'+1]'
p2689
ssS'I finally decided to purchase this player because it was compatible with Napster 2 Go....which is a subscription service, allowing me to download as much music as I want for a $14.95 flat fee.'
p2690
(dp2691
S'Napster 2 go compatibility'
p2692
S'+2]'
p2693
ssS'You ask, yup.'
p2694
Ns.