(dp0
S'There are 2 things that need fixing  First is the battery life. It will run for 6 hrs without problems with medium usage of the buttons.'
p1
S'neg'
p2
sS'Second might be a problem I might have with my PC but not too sure, when the player is connected on the USB and I start playing on it and also using the windows explorer, it sometimes pauses by itself and tries to synchronise with the PC during play, which is a bit irritating.'
p3
g2
sS''
p4
S'neutral'
p5
sS'Unfortunately, the touch-pad issues [non-intuitive] and poor instruction guide killed it.'
p6
g2
sS'A must for me, the fact that you can carry extra batteries is a big bonus.'
p7
g5
sS'If one battery drains just snap the spare one and you are back in bussiness.'
p8
g5
sS'The touchpad is annoying sometimes (give me the click-wheel and pressable buttons any day), but not at all as difficult to get over as other people are saying.'
p9
g2
sS'The Micro seeemed like an iPod for less.'
p10
S'pos'
p11
sS'and if you have 2500 songs, as you might very well, you will be reluctant to edit the clip properties of 2500 files.'
p12
g5
sS'Creative did well on its rechargeable battery feature. .'
p13
g11
sS'The light pulsates when you are charging it almost as if it were breathing.'
p14
g5
sS'Battery : A Big Big plus.'
p15
g11
sS'Most of the other players I checked dont have user servicable battery.'
p16
g11
sS'The battery has a long life.'
p17
g11
sS'It has Apple insipid written all over it.'
p18
g5
sS'The software included is an easy installation and you have the option of using the Creative software, Windows Media Player 10, or simply Windows Explorer to move music back and forth between your Zen Touch.'
p19
g11
sS'And all you do is select all the tracks in the iTunes playlist and drag them to the File Explorer window.'
p20
g5
sS"Bottomline, don't even bother with the software that comes with the Zen Micro."
p21
g5
sS'The Creative MediaSource software that comes with the Zen Micro is cluttered, and excludes my favorite feature in iTunes, the ability to automatically copy everything you import into a certain folder.'
p22
g2
sS'This is what I do:  I copy all the music I want to import to the Zen Micro into an iTunes play list.'
p23
g5
sS"The world of MP3 players is blinding, and since most people don't understand the technology [myself included], user-friendliness is EXTREMELY IMPORTANT."
p24
g5
sS'Smaller size, 1 gb of more space, radio, voice recording, removable battery, cooler look, all in one.'
p25
g11
sS'Plus, from the Creative discussion forums it is clear that they have some problems with excessive battery drainage with the current firmware.'
p26
g5
sS"I've been looking for a portable MP3 player for awhile now."
p27
g5
sS"Sound  I'm no audiophile but I was amazed by the clarity the player had, it was much better than the sound card on my Computer and louder too."
p28
g11
sS'- Great sound! I was very impressed, I encode at 192 kbps and the audio quality is great, especially with the better headphones.'
p29
g11
sS'Loved the service so much I decided to buy an MP3 player and upgrade from the basic Napster to Napster To Go.'
p30
g5
sS'I also hated the packaging, with a passion.'
p31
g5
sS'The buttons are located on the sides making it difficult to use.'
p32
g5
sS'Also, as soon as you select a song and set your desired volume level, put the player on HOLD.'
p33
g5
sS'- Looks sleek, compact, has a radio.'
p34
g11
sS"**I honestly don't see the point of buying songs from iTunes when there are so many free alternatives."
p35
g5
sS'I dont use the belt clip cuz it fails to hold the player securely (design problem).'
p36
g2
sS'A distinct IPod relation is evident with white colored cables, power plug and the very nice Zen case with a white rubber inside covering.'
p37
g11
sS'Pros: - Excellent sound, even with the headphones that come out of the box, but it absolutely rocked with my Bose Quietcomfort 2 set.'
p38
g11
sS'Overall this play is my introduction into the market.'
p39
g5
sS'With the right firmware, drag and drop to and from the player like any other jump drive.'
p40
g11
sS'Remember this is a huge plus when travelling.'
p41
g5
sS'But if you get that "fuzzy legal feeling" from paying for songs, at least buy them from allofmp3.com, there are no restrictions and the songs cost pennies.'
p42
g5
sS'It looks sleek and modern.'
p43
g11
sS'Update 8/11/05:  The latest release of the iPOD firmware fixes teh calender sync bug i noted below.'
p44
g5
sS"I am one of the many people who (a) are PC Based and (b) can't stand to see the multitudes of people with those funky white headphones that belong to Ipod users. ##I first want to say that I think Apple is making the same old mistake as they did with Macintosh years ago."
p45
g5
sS'I think that for its price compared to the ipod the creative zen is pretty good.'
p46
g11
sS"I'll talk more about that later."
p47
g5
sS"For me, I get through a typical day's listening just fine, and I could probably squeeze out two days, but it really is no big deal to just charge the Micro overnight."
p48
g5
sS'HOWEVER after just one month my headphone jack was BROKEN as a result of normal, every-day use.'
p49
g2
sS'It was one of those plastic glued containers that can take you thirty minutes to open.'
p50
g5
sS'I do give create to Creative for their attractive design.'
p51
g11
sS'With so many choices it was a tough decision.'
p52
g5
sS'3.'
p53
g5
sS"I downloaded the new firmware which was supposed to take care of the problem, but it hasn't worked."
p54
g2
sS'It COULD have been a great product.'
p55
g5
sS'(That was a major turn off).'
p56
g5
sS' You will find a small folder/envelope on top along with the player.'
p57
g5
sS'I wish they has a "lock" function like cell phones to prevent this.'
p58
g5
sS'Creative Media Source is very easy to use once you get the hang of it, and the file transfers are fast.'
p59
g11
sS'You have to be in an area with good reception, but where I live I can get most of my favorite stations quite well.'
p60
g5
sS'The Earbuds are great headphones as good as my AGK Studio 240, well not as good but darn close.'
p61
g11
sS'I got my Zen Micro last week.'
p62
g5
sS"This is Creative's attempt to compete with the IPod mini."
p63
g5
sS'I enjoy getting use to the touch pad.'
p64
g11
sS'It holds plenty of songs.'
p65
g11
sS"However, since you're reading this review, you want to avoid getting an iPod."
p66
g5
sS'If you are like me who wants move to the next phase of portable audio from conventional portable CD players I hope you find this usefull.'
p67
g5
sS'Read the next six mixed pros and cons: .'
p68
g5
sS'Space : 5GB =2500 songs.'
p69
g5
sS"Let's face it."
p70
g5
sS"I'm addicted to music."
p71
g5
sS'The player has great potential (ur experiance may differ based on your headphones).'
p72
g5
sS'Mp3 players are like a blessing and a curse for people like me.'
p73
g5
sS'Fits well in hand in trouser pockets.'
p74
g11
sS"* Of Course, if you've BOUGHT tracks from iTunes, this won't work."
p75
g5
sS'Cranking the master volume level up past the mark of the bar only leads to distortion and compromised sound quality.'
p76
g2
sS'The belt clip however is not very useful if you move around a lot.'
p77
g5
sS'I am the type of person that will always go against the masses of blind followers so there was no way I was getting an Ipod.'
p78
g5
sS'This fixes some glitches such as the player freezing.'
p79
g2
sS'Its not convinient to enter name of course but synchronise it with outlook and it becomes a gem of a address book.'
p80
g5
sS'Creative has put a lot of effort into making this player appeal to those true geeks that search for coolness and functionality in electronic devices.'
p81
g11
sS'After attempting to navigate the clumsy touch-pad system, I could not get the unit to download my wma files.'
p82
g2
sS'Buy from another company and run from Creative, Inc.'
p83
g5
sS'Upon opening the box I was confronted with this small cute little MP3 player.'
p84
g11
sS'Ahhh! There is a catch, the manufacturer does not tell you.'
p85
g5
sS'Havent read the manual till now (remember I am good time computer user).'
p86
g5
sS'I just want MUSIC to eminate from it when I want, how I want.'
p87
g5
sS'1 Speakers at home, I rarely use it with the earbuds, though they are much better than the ones you normally get with other mp3 players.'
p88
g11
sS'Since zen does not have an external antena it has some problems catching weak signals but it works.'
p89
g2
sS'I find myself listening to the radio a lot.'
p90
g5
sS"Even after all the nightmare sound problems, I'd still half-way like this product if it kept it's promise; the ability to store 1500 songs."
p91
g2
sS'  Why?'
p92
g5
sS"My friend has an ipod, and although the sound quality probably won't meet most audiophile standards, the product itself is better than anything creative has made."
p93
g5
sS"They're easy to use."
p94
g11
sS'I have two spare batteries (brought on ebay for 28 bucks each).'
p95
g5
sS"If you're not computer savvy or if you want things as simple as they can be, get the iPod."
p96
g5
sS'The back of the player is nice too, with water ripples inside the clear white coating.'
p97
g11
sS'Overall, it does its basic function very well, but we expect more from the mp3 players today and the Zen Micro does not rise to the occassion.'
p98
g2
sS'All I can say is what a wonderful choice!'
p99
g5
sS'I like to keep all of my Mp3s in one folder and manually doing this is a pain.'
p100
g5
sS'User Interface: The software is simple and straight forward.'
p101
g11
sS'all-in-all, its good enough for its price as long as it doesnt break again due to normal use.'
p102
g11
sS'The Look & Feel: I have the black one and the contrasting neon blue on the buttons add a very nice ambience.'
p103
g11
sS'The earbud headphones are really nice.'
p104
g11
sS'On the one hand, you have the ability to store and plays over 1000 songs on one little piece of machine.'
p105
g5
sS'I compared it to other CD players (Two models of Panasonic, Rio & samsung) and they were no way even near Zen Micro.'
p106
g5
sS'I have had the ipod mini and it performs on the level with my sound card but the micro beats it outright.'
p107
g11
sS'Also If you want a device that does soo much more than the Ipod mini but is at the same price, this is the player for you.'
p108
g11
sS'My hobby is home audio and home theater.'
p109
g5
sS'The recharge cord will do the job in a fraction of the time that the USB cable will hooked to your computer.'
p110
g5
sS'In minutes I was easily navigating through the menus.'
p111
g11
sS'They have a list of compatible players which I miss read.'
p112
g5
sS'The company has received thousands of complaints about this and refuses to do anything about it. .'
p113
g5
sS"The photos don't do it justice."
p114
g5
sS') One outstanding positive feature is the battery. It holds a charge for a long time, longer than most other similar products and the user can replace it easily or take another along as a backup.'
p115
g11
sS'I did a quick test by selecting a few files and copying them over and they loaded right in.'
p116
g5
sS'The touch pad does take a little getting used to.'
p117
g2
sS"To bad Napster software is not compatible with Apple IPod's."
p118
g5
sS'(iTunes being an exception of course).'
p119
g5
sS'Reliability & Build  I dropped the player once from about 4 ft, and it fell hard, but kept on playing.'
p120
g11
sS"It's rechargable and supposedly easy to replace though I haven't had to do it yet of course."
p121
g11
sS'I use it on an average 5 hours a day I hook it up to my Belkin FM transmitter in the car or to my Logitech 2.'
p122
g5
sS'For the Zen Creative focused on packaging which looked well thought out, well presented and easy to open and put back together.'
p123
g11
sS'2.'
p124
g5
sS"It's cheaper, holds more songs and is smaller."
p125
g11
sS'Infuriating! Nearly all other MP-3 producing companies include a recharging cord with their product that can be plugged into a wall socket.'
p126
g5
sS"I'm also somewhat of an audiophile."
p127
g5
sS"I promptly gave the included earbuds to my wife, I'm using a pair of Sennheiser PXC250 noise-canceling headphones with the Zen Micro."
p128
g5
sS'i didnt have any installation problems; and the touch pad is fine, even if it is sort of inaccurate.'
p129
g11
sS'I have not yet used all the features, like the calendar, etc, but as a music player this little thing rocks.'
p130
g11
sS'On the other hand, you get terrible sound quality.'
p131
g5
sS'I absolutely love it.'
p132
g11
sS"that isn't saying much, but hey, I like to be positive."
p133
g5
sS'Instead I use a cellphone cover with a belt clip and it works just fine.'
p134
g5
sS'Accessories are in reusable bags unlike the Nomad which requires you to tear each back plastic store bag open.'
p135
g5
sS'I was fortunate to get the packaging that still included all the accessories (desk stand/hard case, belt clip, wall charger, etc).'
p136
g11
sS'I ordered from Amazon and got the Limited Edition package that includes a free battery!'
p137
g5
sS'Although you can store any type of file on the Zen Micro to download onto a different computer, you need to INSTALL (on the computer you are moving the data to) Zen Micro software and drivers to do it!!!'
p138
g5
sS'Accessories were cheap looking.'
p139
g5
sS'The player was not very appealing either.'
p140
g5
sS'The eq is awful, and even at top volumes, the bass is flat sounding.'
p141
g2
sS'If you want to recharge it, you MUST connect it to your computer.'
p142
g5
sS'The songs recorded with FM are as good as the original signal.'
p143
g11
sS'The base was deeper and the highs were crisper.'
p144
g11
sS"Its a few bucks more and has only 5 GB's of storage but its well worth the trade off."
p145
g5
sS"I can't help but feel peeved by the attitude created by Apple enthusiasts that basically detracts from anything that attempts to compete with Apple products in the marketplace."
p146
g5
sS'I have gone through two of them in two years. .'
p147
g5
sS'This is a must have.'
p148
g5
sS'This is a difficult player to review because I would recommend it on a case-by-case basis.'
p149
g5
sS'Two days after writing this review below, I want to remove another two stars.'
p150
g5
sS'Sound quality is great, fm tuner is fine, as is the recorder.'
p151
g11
sS'I have no problem using iTunes with the Zen Micro (in a makeshift sorta way).'
p152
g11
sS'It has a cardboard slip cover with a nice layered box casing inside.'
p153
g11
sS'I have stored 40 audio CDs and i still have close to 2.8 GB free.'
p154
g11
sS'- Doubles as a removable disk drive.'
p155
g5
sS"It's not as seamless as if you were to use an iPod, but it only takes a few seconds longer."
p156
g5
sS'The menu is easy to use and understand.'
p157
g11
sS'Just in case, I bought a two-year extended warranty for about 15% of the purchase price of the player.'
p158
g5
sS"- The outlook synch only works for non recurring appointments, which personally is very annoying to me but probably wont be to most people. - ##Several people complained about the touchpad and frankly i'm starting to see why."
p159
g2
sS'Stuff you may need to buy: Wired remote from creative.'
p160
g5
sS'If you want a wall-socket recharging cord, you have to dish out somewhere between $30 and $35, plus shipping and handling, for a cord that cost less than $1 to manufacture and market.'
p161
g5
sS"Overall I'm incredibly impressed with my new Zen Touch."
p162
g11
sS'Most of us just want to plug and play, not spend a year navigating a maze of complicated options...like transfering everything on a hard drive to this stupid thing.'
p163
g2
sS"Their product may appear more enconomical, but it isn't in the long run. ."
p164
g5
sS') The Zen Micro appears sturdy and well constructed, hefty, if you will, far better than many of its competitors. .'
p165
g11
sS'The player I first purchased was the Creative Nomad Jukebox Zen Xtra 40 GB MP3 Player.'
p166
g5
sS'- The battery life leaves a lot to be desired.'
p167
g2
sS'Creative was defiantly giving the IPod a run for their money with this device.'
p168
g11
sS'If you want to purchase a real case or container or clip-on carrier for you Zen Micro, expect to purchase it separately and to dish out big time. .'
p169
g2
sS'I got rid of my older PDA figuring that since the only function I used on it anyways was to manage my contacts and calender, I could now use my Zen Micro.'
p170
g5
sS'I bought this two months ago at a local retailer, after spending considerable time reading reviews here of this and other 5GB players.'
p171
g5
sS'I decided to go with the convienence factor and purchase a creative zen micro.'
p172
g5
sS'However, if there was one thing I liked about the creative, it would be the car adapter.'
p173
g11
sS' Though rated at 12 hrs, I could barely manage 8 and I have two spares as well.'
p174
g5
sS'All this before I found out the bad news.'
p175
g5
sS'you just get used to it after a while.'
p176
g5
sS'1.'
p177
g5
sS'Next I wanted to update the software, after a quick firmware upgrade the player was ready to go.'
p178
g5
sS"Creative has not lounched any silicon cover for the player like ipod's (I think belkin makes it for ipod)."
p179
g5
sS'Immediately you could tell a very distinct difference between the two Creative MP3 players.'
p180
g5
sS'Also, the WMA compression format is superior to MP3, especially at lower bit rates, so I needed a player that could handle WMA and integrate well with my Windows XP computers.'
p181
g11
sS"One drop from a pocket or desktop, and it'd be a goner."
p182
g2
sS"It's so small."
p183
g11
sS'It feels tiny in the hand without it.'
p184
g11
sS'So the download was much slower.'
p185
g5
sS'I am now staring at an array of stuff including Zen Micro player, stereo earbud headphones, a rechargeable lithium-ion battery, an AC/DC power adapter, a USB 2.0 cable, a belt-clip, a stand, a stylish cloth pouch, an installation CD, a quick-start guide, and Creative MediaSource software.'
p186
g11
sS'If you have a huge CD collection, 5GB can hold only a part of your CD collection.'
p187
g5
sS'What impressed me most was the sound.'
p188
g11
sS"All of this said [as it's on it's way back to Amazon], the one song it did include provided far better sound than the IPOD."
p189
g11
sS"If you've been listening to cd's in your car for awhile, dealing with the drop-off in sound quality may take some getting used to."
p190
g2
sS"I've had this player for more than 4 months and I'm very happy with it."
p191
g11
sS"I don't care what ELSE it can do."
p192
g5
sS'Each battery lasts about 10-11 hours.'
p193
g11
sS'Creative says that the software engine for this MP3 is the best hands down.'
p194
g5
sS"The player itself is tiny , it gets a bit bulky when you put it in the hardcase, which you need to do if you don't want to get scrathes on the back(its a nice looking back too )."
p195
g5
sS'You can use it as a storage Hard Drive.'
p196
g11
sS'If anyone is thinkning of getting an ipod mini, forget it and go with this player.'
p197
g5
sS'Update the firmware which can be found on the Creative web site.'
p198
g5
sS'FM transmitter (belkin has a good one) to use Zen with your car Sterio FM Tunner   Latest Find: Connected this baby to my $3800 audiophile audio system and it produced clean sound compared to Ipod.'
p199
g11
sS'What I dont like: Nothing much except Headphones, Belt clip design.'
p200
g2
sS'The creative came with a free trial of [random file sharing company] "to go".'
p201
g5
sS'What is up with nickle and dimeing consumers on the recharge cord?'
p202
g5
sS"It's cute as anything and the glowing blue LED looks super cool around the edges."
p203
g11
sS'The battery is removable.'
p204
g11
sS"The player looks SO much better when you're actually holding it."
p205
g11
sS'I was at [random electronic store], browsing through players, and came across two that made the cut.'
p206
g5
sS'The blue backlit LCD looks really neat and is easy to read.'
p207
g11
sS'The interface takes 2 secs after you press record to show up but its actually started recording at the moment you press record.'
p208
g5
sS'Excellent sound I mean the player has juice.'
p209
g11
sS'The sound is amazing.'
p210
g11
sS'I visited quite a few forums and while the iPod is a great player I was concerned with the battery life and the inability to change them without breaking open the case.'
p211
g5
sS'The screen is clear and readable, and the touch pad works very well, it took me less than a day to get the hang of it, and now I like it better than having to click buttons or fiddle with a separate volume control.'
p212
g11
sS'Looks and shape: I have a black one and the first time I charged it and switched it on jeez the blue light looked so cool.'
p213
g11
sS'Best of all the WMAs(I have a lot of them) sound great.'
p214
g11
sS'Upon logging in I received a notification that my player works with Napster but not Napster To Go.'
p215
g5
sS'The Zen Micro is smaller than it looks in pictures, and feels very solid.'
p216
g11
sS'i didnt get ipod because i dont especially like itunes (no music i want, but thats just me) and the creative product was cheaper; and i needed to be able to use WMA files.'
p217
g11
sS'Enjoy!'
p218
g5
sS'and supply those stupid white Headphones.'
p219
g2
sS'i havent used it much yet so i dont know if i will have the same problem; obviously i hope not.'
p220
g5
sS"If you're an itunes person then no one could argue against an IPod."
p221
g5
sS"If you do not care about sound/music quality in the least, and don't mind the ability to store 800 songs less than promised, get the creative zen micro.   ##Otherwise, you should get an ipod."
p222
g5
sS'Its compact and has rounded edges.'
p223
g11
sS"The touch controls took a little getting used to but now I wouldn't change it for the scroll wheel."
p224
g2
sS'Builtin microphone is great for recording short voice notes.'
p225
g11
sS'I bought this a couple of months ago after researching all the reviews comparing with the iPod mini.'
p226
g5
sS'Dont have to switch to another device for FM tuner.'
p227
g5
sS'You can buy a new battery for 49.99.'
p228
g5
sS"I started looking at the Creative Zen Micro and after reading numerous reviews from message boards and magazines I decided I'd give the Zen a try."
p229
g5
sS'The stand that comes with it is very useful to prop it up on the desk.'
p230
g11
sS'in principle playlists, album names, artist names, etc would help you organize but this only works IF your tracks have all the necessary data; mine do not.'
p231
g5
sS'The Zen lives up to the audio quality I love and expect.'
p232
g11
sS" Problems with the sound quality were evident right away, but even I couldn't imagine they'd be that bad."
p233
g2
sS'Software The software that comes along with it is not very intuitive but once you are used to it,it  does the job well.'
p234
g2
sS'The file ripping/transfering software that comes with the player is easy to use.'
p235
g11
sS'You can use the player to store your computer data files (Good feature to have).'
p236
g11
sS'I love the touchpade controls.'
p237
g11
sS"The package also comes with a USB cable, an AC adapter, a pair of headphones (they're okay until you get a better pair), a stand, and a microfiber pouch to carry your Zen Touch in."
p238
g11
sS"i got 6000 mp3's you'll never register or gay up."
p239
g5
sS'My PC only supports USB 1.0 not the 2.0 which is blazing fast.'
p240
g5
sS'Record memos using the built in microphone.'
p241
g11
sS'I have heard in other players these have to be brought separately.'
p242
g5
sS'by broken i mean that it would no longer transmit sound.'
p243
g5
sS'I also experimented with an adapter for the car.'
p244
g5
sS'6.'
p245
g5
sS'It feels solid and not flimsy like the carbon.'
p246
g11
sS'Sound: This is where I love Zen the most.'
p247
g11
sS'what a kick butt Mp3 machine and the freedom to get songs from a reasonable source, instead of paying for them two or three times, then get the Creative Zen IPOD killer, kiss my ass Itunes!'
p248
g11
sS'Even on the LOW sensitivy level, a slight touch can skip or pause the track.'
p249
g2
sS'The bass treble the sound detail is awsome.'
p250
g11
sS"It's being used daily and I have had none of the problems reported by other reviewers (headphone jack, player locking up, etc)."
p251
g11
sS'I also think that if you are going to offer them in different colors then commit all the way and have the entire device in that color, not just the front and color the head phones as well.'
p252
g5
sS'POSITIVES:  Reasons for getting the Zen Micro instead of the iPod:  1.'
p253
g5
sS'FM tuner & Microphone : Having a tuner in the player is a blessing.'
p254
g11
sS'So my first MP3 player purchase was incorrect.'
p255
g5
sS'For whatever reason. There is also a low number of people, like me, who love iTunes but want to get the Zen Micro.'
p256
g5
sS'Everything shines of quality.'
p257
g11
sS' FM radio built in (Howard Stern).'
p258
g11
sS'Now, about the iTunes.'
p259
g5
sS'Another good feature is that you can charge the battery by just connecting the player to your computer using the USB cable.'
p260
g11
sS'I believe them.'
p261
g5
sS'The good news is that the creative support is very responsive and after some emails and postal exchanges, i had a new zen.'
p262
g11
sS'I popped one of the batteries in and to my surprised it started right up.'
p263
g5
sS'- Integration with Media Player.'
p264
g5
sS"I'm still trying to manage the thing myself, but I've found that if you put the sensitivity to low it is fine."
p265
g5
sS'- Not compatible with Audible.com books.'
p266
g2
sS'What I like the most:  - Small and solid feel.'
p267
g11
sS"So that's the one I bought."
p268
g5
sS'The box included a little polyester, pull-string BAG, (yes, you read right a BAG, something a boy would carry ten marbles in) and tries to pass it off as the case.'
p269
g2
sS'So far I have no complaints with this player.'
p270
g11
sS'My first instinct was to go with an iPod.'
p271
g5
sS'At 128 the songs sound very good.'
p272
g11
sS'Zen micro does.'
p273
g5
sS'Click on "Zen Micro Media Explorer" and then click on "Transfer Data Between PC and Device" after that, a File Explorer window opens.'
p274
g5
sS"With the iPod, if the battery has reached it's life span (after about a year), and you didn't buy the warranty from the store, you need to buy a NEW player."
p275
g5
sS') Button sensitivity: Even reduced to the lowest sensitivity setting, the buttons are far two sensitive, really takes some getting use to, and even then, it is still too sensitive.'
p276
g2
sS'The Zen was an impressive purchase and I would highly recommend it to anyone using Napster.'
p277
g5
sS'Bottom line.'
p278
g5
sS' 2. ##'
p279
g5
sS'The interface works great.'
p280
g11
sS'So Creative should be "Creative".'
p281
g5
sS'- Replaceable battery.'
p282
g11
sS'To transfer songs requires you to pay 99 cents.'
p283
g5
sS'the sound is quite good, in terms of volume.'
p284
g11
sS'Some other companies require you to send your player back and then charge you an additional $130 to replace their batteries.'
p285
g5
sS'Too bad.'
p286
g5
sS'After that, you connect your Zen Micro and open My Computer.'
p287
g5
sS'This brings my review to one star!'
p288
g5
sS'The hardcase they give with it must work well.'
p289
g11
sS"It's faster than WMP."
p290
g11
sS'i have a lot of files in wma so that was the biggest factor in my decision to purchase the zen.'
p291
g5
sS"SO, YOU MIGHT INQUIRE, WHY DON'T THEY MAKE IT A FIRST PRIORITY TO CAREFULLY, SIMPLY EXPLAIN HOW DOWNLOAD MUSIC FROM YOUR MUSIC LIBRARY TO THEIR DEVICE??? This seems academic to me."
p292
g2
sS'The scrol bar agian takes some getting used to.'
p293
g2
sS'If you can get one with all the accessories and a cheap extended warranty, this is the player to get! Highly recommended.'
p294
g11
sS"The plus was the storage size but I didn't like hearing the hard drive spin."
p295
g5
sS'Even the "shorter" battery life, though, has not impaired my positive experience with the Zen Micro in any way.'
p296
g2
sS'Thankfully, Creative has come through with a product that puts the Ipod back in its place.'
p297
g11
sS'It makes the Nomad I purchase feel and look like junk.'
p298
g5
sS"player[-][s]However, this one makes an ipod sound like your old LP's, so even if you're a casual listener, I'd advise that you avoid the purchase of this product. Terrible."
p299
g5
sS'I managed to fit about 700 tracks on the player, but many of those are 6-15 minute long classical tracks.'
p300
g5
sS"If you're an audiophile, you already know that mp3 players are far from impressive."
p301
g5
sS'I just tried to move a load of plain data files from my home computer to my office work computer, and it is promting me to install Zen Micro software, etc....'
p302
g5
sS'It was time to exchange it for the other player the Creative Zen Micro 5 GB MP3 Player Black.'
p303
g5
sS'It was also the most appealing.'
p304
g11
sS'i dont especially like how music files are unstructured; basically they are just dumped into one folder with no organization, like you might have in windows explorer folders and subfolders.'
p305
g2
sS'5.'
p306
g5
sS"You can only copy songs you've downloaded for free or ripped from a CD."
p307
g5
sS'Pressed play and I was off.'
p308
g5
sS") WORST FEATURE POSSIBLE, THIS ALONE MAKES IT RATE ONE STAR: What's up with no recharge cord?"
p309
g2
sS'I just discovered another con in my list of pros and cons.'
p310
g5
sS"Hands down, better quality than ipod's."
p311
g5
sS'the headphones are not very comfortable, but most people have a certain style they like so just go buy new ones or keep the ones you have.'
p312
g2
sS'Spare batteries incase  you need some extra hours without charging.'
p313
g5
sS'Its my first purchase choice.'
p314
g5
sS'Well, I have an Ipod mini - and I really like it, but all in all, I like the Zen Micro more.'
p315
g11
sS'I have used similar devices and they are seamless and simple.'
p316
g5
sS'The first thing I did was upgrade the firmware to the version required for WMP10, it syncs flawlessly with Media Player and transfers are fast.'
p317
g11
sS'Set the sensitivity of the touch pad to LOW.'
p318
g5
sS'Freebies you get: A cradle with detachable stand and belt clip, some thing very handy and useful.'
p319
g11
sS'I got about 700 loaded up before it told me I was full, and at that point, I was ready to toss it out the window.'
p320
g2
sS"Why isn't it?"
p321
g5
sS'Unfortunately, Creative offered scant few pages of instruction, which meant that I was on own from the outset.'
p322
g2
sS'The blue backlight is pretty cool.'
p323
g11
sS'I keep boxes for all my equipment for storage and moving.'
p324
g5
sS"The headphone jack gave out after only a couple weeks of use, and the stock earbuds were replaced same day with some high end sony's I'd been having."
p325
g2
sS"features[-][u][cc]It hold's a promised amount of songs, and the headphone jack/volume controls deliver a more impressive performance than creative's."
p326
g5
sS'The radio and voice recording are nice.'
p327
g11
sS'When most of us purchase these little devises, we do so because of their diminuitive size and extraordinary storage capacities.'
p328
g5
sS'Apple is Apple.'
p329
g5
sS'The Zen Micro FM receiver is ok, not great.'
p330
g11
sS'They seem to be working on a fix and will probably sort it out soon.'
p331
g5
sS'The sound is great, the portability, etc... all the "stuff" you expect from a good MP-3 player, this Zen Micro has it.'
p332
g11
sS'The player was large and bulky.'
p333
g5
sS"I love how small the thing is, and the blue glow - I've had it for two weeks with no electronic problems at all."
p334
g11
sS'Limitations: - Not a lot of original accessories like the iPod.'
p335
g2
sS'Nevertheless, I still get shirked when someone out of ignorance states "But it\'s not an IPod!" or "Never heard of it, I\'ll go with the IPod".'
p336
g5
sS'This proprietory software to download.'
p337
g5
sS'You have to purchase that separately for some outrageous cost.'
p338
g2
sS"The reason why I didn't give the Zen Micro 5 stars is that they also seem to want to conform the the Ipod sense of style."
p339
g5
sS'First of all, why does every single piece of media library software that comes with an MP3 player suck?'
p340
g5
sS"Don't worry this player rocks."
p341
g11
sS"I waited for Creative's FM transmitter for a month, finally bought a Belkin Tunecast II, which is not great."
p342
g5
sS'I dont use the headphones that come with it instead I use Bose Triport headphones.'
p343
g5
sS'The Micro has an impressive array of very nice features and a well designed user interface.'
p344
g11
sS'And so far, I have been very, very happy with my Zen Micro.'
p345
g11
sS'So yeah, you can have the best of both worlds.'
p346
g5
sS'PC software that comes with the player is not as simple as i Tunes but its not bad at all.'
p347
g2
sS'NAGATIVES of the Player itself:  You need to do a little work before having full enjoyement of this player.'
p348
g2
sS'The only reason for not giving it 5 stars: the claimed battery life of 12 hours is very optimistic - possible maybe if you really sit down and listen continuously for 12 hours without ever touching the player, but in real life I can probably get 6-8 hours at most.'
p349
g2
sS'First I removed each piece and laid them out on my coffee table.'
p350
g5
sS"This is the mp3 player with everything I need.  As long as it lasts me a good three years, I'm satisfied."
p351
g11
sS'This player is not compatible with Napster To Go.'
p352
g5
sS') Creative, Inc. the maker includes the barest of the bare minimum in the box, then through gross profiteering nickles and dimes you on EVERY single accessory at extraordinarily inflated prices.'
p353
g2
sS"The touch buttons are textured so that your finger sdon't slip which was very thoughtful."
p354
g11
sS"First thing I noticed was that the creative wasn't well made."
p355
g2
sS'I was more excited about this player upon opening than I was about the Nomad.'
p356
g11
sS') I purchased this device primarily to record off the built-in FM receiver for lectures and seminars that are broadcast live over a FM signal for the hearing impaired.'
p357
g5
sS'Who wants to go through the hassles of loading software onto a "foreign" computer just to move over some simple (*.txt) files?'
p358
g2
sS'Creating and modifying playlists is easy and clean.'
p359
g11
sS'Actually only three players are on the list for Napster To Go.'
p360
g5
sS'For the price I think this is a remarkably fun MP3 player.'
p361
g11
sS'- The FM Radio.'
p362
g5
sS'Why get locked in to crappy Itunes weather you want to or not?'
p363
g5
sS'Tested with the same mp3 for benchmarking'
p364
g5
sS'The first was an ipod 5gb (I could kick myself for not buying it), and the other was a creative 5gb.'
p365
g5
sS'Remember mp3 format lets you store tons of songs.'
p366
g5
sS'Finally I upgraded the firmware and log in to Napster.'
p367
g5
sS'While they all seem to have their own positives and negatives, I picked the Zen Micro over the Ipod mini, because I am not an Apple person, never has been - I wanted something that is fully compatible with Windows Media Player.'
p368
g11
sS'I have trashed this product on other opinion sites based on this major flaw alone.'
p369
g2
sS"But Amazon won't allow me to reduce the number of stars once I have already established three two days ago."
p370
g5
sS'This one is particularly bothersome: Allegedly one can use the Zen Micro as a portable drive to store and transport data from one computer to another.'
p371
g2
sS'Utility Its got a huge list of features including an FM Recorder a Calender and contacts list.'
p372
g11
sS'4.'
p373
g5
sS'As I wrote, this COULD have been a great product, but expect hidden charges (read gross profiteering and price gouging) as the company royally sticks you on every conceivable accessory necessary for normal daily usage.'
p374
g2
sS'I first signed up for Napster on line.'
p375
g5
sS"They didn't really make any difference."
p376
g5
sS'While I have not had the "privilege", as many call it, of owning an Ipod, based on the experience of friends who have had some misfortune with their Ipod (and subsequently purchased the Zen Touch or Zen Micro), I can pretty much rest assured that my decision to purchase the Zen Micro was one of the more informed ones.'
p377
g11
sS'I took my Zen Micro with me over the weekend, and was forced to lug my laptop with me on the trip for one reason: to keep the Zen Micro charged.'
p378
g2
sS'I occassionally flip songs while working out as i accidently hit the pad even lightly (yes i have it in maximum desensitized mode).'
p379
g2
sS'I sync the player with Napster software and it downloaded the library I had already created.'
p380
g5
sS'You get a USB cable headphones, a pouch, software except headphones you will like every thing else.'
p381
g5
sS'IRiver has a better FM receiver built in, but the drawback to IRiver products is they are flimsy and poorly constructed.'
p382
g5
sS'I get occasional hiss while driving.'
p383
g5
s.