(dp0
S'2. The looks are absolutely no nonsensical.'
p1
S'neutral'
p2
sS'A decent camera phone for taking quick pictures, movies, and having general all around fun with.'
p3
S'pos'
p4
sS'Have had the Nokia 6600 for a year now and am generally very happy with it and with T-Mobile.'
p5
g4
sS"I've connected the phone with two laptops and a iPaq 4155."
p6
g4
sS"Secondly, in addition to the lag each time you give a command, it's just not that easily useable on the go."
p7
S'neg'
p8
sS'I feel much less likely to drop this phone than others, which are actually starting to get too small.'
p9
g4
sS'Its a tough one this unless you wanna drive your car over it.'
p10
g4
sS'What is that, .00000001 megapixel quality?'
p11
g2
sS'On the T-Mobile service I was able to take pics as we drove across I-70 and email them to family & friends once we reached a T-Mobile tzone (usually a major city).'
p12
g4
sS'And Bluetooth does not drain the battery as quick as I thought it would, I usually can go 1.5 days with Bluetooth on along with making calls before I need a full recharge.'
p13
g4
sS"i'd rather have a little more phone than the t610 offers."
p14
g2
sS'With the recent "bluejacking" vunerability, the Bluetooth overseers have created a new security system called Combination Key.'
p15
g2
sS"I could go on and on---but I won't!"
p16
g2
sS'All that had to be done was restore the software to the phone, and all that took was a cable and some Nokia software.'
p17
g2
sS"Nokia finally determined that my phone was in need of repair, but since it was out of warranty (it was made in May '03 and they would not take an eBay purchase as proof) they refused to fix the phone for less than $120!"
p18
g2
sS"The camera and video functionality is decent, I can't see myself wasting my time with it, but some people will."
p19
g4
sS'They have the worst service of any of the major companies.'
p20
g8
sS"I've have many Nokia's and while this is the best for features, it's the worst as a phone."
p21
g8
sS'3. The Nokia 6600 has a brilliant Java interface.'
p22
g4
sS'On average, I prolly restart the phone every two days.'
p23
g2
sS"I have set up it's PDA features with avantgo.com where you can download info from sites like weather,mapquest maps/directions into it, which is great."
p24
g4
sS"If I had to do it over, I wouldn't buy anything else."
p25
g4
sS"I love the features, the interface, the size (the screen is a delight), the camera (though I admit I'm not much of a camera user -- so just a toy for me), the internet connectivity, the quality, etc."
p26
g4
sS"The camera is adequate and if I want high-res photos I'll use my digital camera instead."
p27
g4
sS'Many of these programs are shareware, some can be purchased by paying a little bit of bucks.'
p28
g4
sS'I am just in love with this phone, especially after using a more primitve phone about 3 years.'
p29
g4
sS'For example, the memory card is under the battery.'
p30
g2
sS"The 3650--being essentially a mini-computer--had memory leaks and occassional crashing, but nothing that a quick power cycle couldn't help."
p31
g2
sS"Now I'm a techy and like getting technical about things so I'd brief you in on the few features I liked about this phone-"
p32
g2
sS'After over two hours of being placed on hold and persuasion, a supervisor finally agreed to fix the phone for free.'
p33
g2
sS'If you own an apple you can isync it to your address book so that you have all of you numbers in two places..... in case you lose your phone (get INSURACE)'
p34
g2
sS'Now that is neat.'
p35
g2
sS'Two days after they received the phone, I received a letter in my mailbox stating that if I did not pay $120 for the repair of my phone, it would be returned unrepaired.'
p36
g2
sS"It's not as stylized as a Sony or Samsung."
p37
g8
sS"STYLING/ERGONOMICS: The keys are small, which generally doesn't bother me if they are spaced because I can employ a little 'Braille,' but the keys run into each other, so careful attn. must be paid when dialing."
p38
g8
sS'Speaker volume is loud and clear but it sacrifaces the battery life.'
p39
g8
sS'Most importantly, it allowed me to get on the Internet via Bluetooth via GPRS flawlessly.'
p40
g2
sS"In noisy environment, it's hard to hear from the earpiece."
p41
g8
sS'You will probably have to get a belt clip for it, however, unless you wear the pants with the cargo pockets.'
p42
g2
sS"I really dislike holding a phone to my ear, and I've found the Freespeak to be very comfortable and easy to use with this phone."
p43
g4
sS'The best features that I use most often are:'
p44
g2
sS"3- It is SLOW , if you keep the original configuration and progs (why'd u buy it then ?!) it'll run smoothly , but still slower than most other coloured-screen Nokias ."
p45
g8
sS'i would highly recommmend...... oh and i have owned this baby for like 6 months now'
p46
g2
sS'i also use the phone as my modem via bluetooth to my Apple powerbook!'
p47
g4
sS'It is Nokia and thus easy to acces the menu options.'
p48
g4
sS"I'm giving it 1 star because as compared to other Nokia phones , its a 1 , compared to other blunders by other companies (such a samsung and motorrola) it might be good .... but if you're getting a Nokia , don't get this one ."
p49
g8
sS"This phone is one of the best I've ever used."
p50
g4
sS'The only disappointment so far has been battery life.'
p51
g8
sS'Overall I dont think I will ever upgrade from this phone.'
p52
g2
sS'It would not hang up on calls.'
p53
g8
sS'But watch the Amazon rebates on these (T-Mobile rebate is fine).'
p54
g2
sS'I also am loving T-Mobile (100 times better than ATT...'
p55
g2
sS"I've dropped it atleast a dozen times to my recolletion and it still works as good as ever."
p56
g4
sS'The fact that you can assign ringtones to people and/or groups is really cool.'
p57
g4
sS"The voice recorders good, but you can't record songs off the radio for ring tones."
p58
g4
sS'Looks big in the display ads though.'
p59
g2
sS"If you're looking for a new company, don't be fooled by the service plans."
p60
g2
sS'The second piece of advice - Be prepared to spend a lot of time w/ this phone.'
p61
g2
sS'This one has a good looking.'
p62
g4
sS"Best phone i've ever owned, period."
p63
g4
sS"UPSIDE: This one, like most Nokias, receives a consistently strong signal (I've tried some Samsung and Sony Ericsson models which were very weak on the reception front)."
p64
g4
sS'I really love this phone...'
p65
g4
sS'Especially the LCD is big and the camera quality is among the very best around.'
p66
g4
sS'I was looking for a phone which synced with Mac OSX using Bluetooth, had decent battery life, could check email, had good reception, nice screen size and was durable (I break often break small gadgets)'
p67
g4
sS"You can upgrade but then there's a certain level of trouble involved."
p68
g8
sS'I was using a Motorola T720i with Verizon and I had alot of dropped calls and I had troubles syncing data.'
p69
g8
sS'And, other else,  the camera is still VGA.'
p70
g8
sS"In short, I don't have a single negative thing to say."
p71
g2
sS'The games are decent, but u only get 2 to start off with.'
p72
g4
sS'But you can download some really good ones like pac-man or mafia wars.'
p73
g4
sS'*****DO NOT BUY THIS PHONE***** ****READ WHY****'
p74
g2
sS'My old Sony Ericsson T610 has this feature.'
p75
g8
sS"I'll have to buy bigger MMC card of course."
p76
g2
sS'The good:  1) Large LCD screen, colorful display, good resolution.'
p77
g4
sS"Depending on the timing of the postmark date, you don't get your second bill until the postmark date passes, so it's impossible to qualify for the rebate."
p78
g2
sS'The battery life is less than stellar, but it charges w/ the quickness.'
p79
g4
sS'This is great for putting photos and memos on the computer and transferring calander data to my phone.'
p80
g2
sS'Dont rely on T-Mobile rebates.'
p81
g8
sS'Not for the impatient.'
p82
g2
sS"In my humble opinion, games, along w/ 'flip phones' belong in the hands of teenagers."
p83
g2
sS'The battery power discharges rapidly especially on using the web browser.'
p84
g8
sS'I got a 1GB MMC upgrade for this phone and now I can:'
p85
g4
sS'The speed is the same as dail up, where i live we do not have wifi everywhere so this is my version of it until we catch up.'
p86
g4
sS'It was a major step up from a Sony t68i.'
p87
g2
sS'a bit dissapoitnd on that!'
p88
g8
sS'Sometimes,the phone gets stuck just like a computer and it doesnt store any incoming call numbers..etc..'
p89
g2
sS'The only problem is the size of the keys.'
p90
g8
sS'5. Check traffic411.com for LA traffic on the 405.'
p91
g4
sS'this nokia is going back to china or wherever it came from.'
p92
g2
sS'Sometimes, various applications crash.'
p93
g8
sS'I spent over an hour talking to a tier-2 technician who told me that their tier-1 technician should have known that it was not possible to backup the 6600 to the 3650 safely in any condition.'
p94
g2
sS'While the two devices will pair, the phone will immediately drop the connection if any data is transferred.'
p95
g2
sS'My last simpler Nokia started right up and was immediately ready for use.'
p96
g8
sS'Overall the phones fantastic, and I would have given it 5 stars, but its not perfect.'
p97
g4
sS'5) Bluetooth wireless technology, so that I can transfer data to and from my computer without messing with any cables.'
p98
g4
sS'This phone is not suitable for fast people, maybe only for old people.'
p99
g8
sS'In short, the Nokia 6600 is an evolution but not a revolution.'
p100
g4
sS'1) Great audio quality overall.'
p101
g4
sS"I've synched it with my PC over bluetooth."
p102
g2
sS'the GPRS web access is sloooooooooooooow!'
p103
g8
sS'I can use it as a modem for my computer, connect with clients and friends, the possibilities are endless.'
p104
g4
sS'It films 10 second video, for crying out loud.'
p105
g4
sS'The phone must be shut down & taken apart to change the memory card... and turning the phone back on takes a little while.'
p106
g8
sS'I like the size and shape.'
p107
g4
sS"This may be a really cool phone, but it's not worth it with T-Mobile."
p108
g4
sS'The video recorders a bit odd, sometimes I get 9 secs on my recordings, sometimes I get 17.'
p109
g8
sS'I thought it was kind of steeply priced at that time.'
p110
g8
sS'It was an OK phone with a really nice screen, great battery life, decent signal, and cool applications.'
p111
g2
sS"The 6600 (T-Mobile) is the true 'world phone' in that it has the mhz to operate around the globe, including New Zealand and Australia (900) whereas the  6620 (available from Cingular) replaces it w/ 800mhz (some refer to as 850)."
p112
g4
sS'Nokia makes great phones, and this one is the cream of the crop.'
p113
g4
sS'Using supplied s/w, you can transfer all addresses from a different nokia phone into it.'
p114
g4
sS'I bought this phone after having other phones that had less-than-consistant reception.'
p115
g2
sS'Less Benz/obvious; more Audi/understated.'
p116
g2
sS'It has raised the bar owing to number of features it offers and the absolute ease of use delight.'
p117
g4
sS'DOWNSIDE: It takes a long time to start up.'
p118
g8
sS"However, it needs to be quite quiet for it to work at all -- dosn't work at all in the car, for example."
p119
g8
sS'This makes for a great phone.'
p120
g4
sS'I think the keypad on your cell phone is the most important thing for me as Im constantly sending messages , calling people and fiddling around with my phone.'
p121
g2
sS'I use this phone as my quick and dirty digital camera!'
p122
g2
sS'You have to wait to get your second bill before you can send the rebate form in. \\'
p123
g2
sS"There's a whole lot of things you can do with this phone besides reading a book , playing various Java games , having a variety of software installed."
p124
g2
sS"On the plus side it's packed with features, including BlueTooth that works fine - it's really a tiny computer that is also a phone... and that's the negative."
p125
g8
sS'very cool features... great camera with zoom...cool quality pictures... great ringtones... bluetooth feature is great....'
p126
g4
sS'Capacity is not a problem here.'
p127
g4
sS'Two weeks later I mailed the phone in for repair.'
p128
g2
sS'I bet most of the users of this phone would agree.'
p129
g2
sS'As a computer, or PDA its weak since the screen, while large by phone standards, is still tiny to really do anything on.'
p130
g8
sS'This is a MUST when you need to get flight times, connect to reservations, etc.'
p131
g2
sS"This is the first cell phone I've owned, and overall, I am quite pleased with it."
p132
g4
sS"Picture quality's great for still and video with sound."
p133
g4
sS'The nokia 6600 is a great phone, good games, good camera.'
p134
g4
sS'The phone itself is pretty nice.'
p135
g4
sS"When you consider expandability (downloads via computer), the numerous features, two transmission programs and multiple storage devices, dependability - this is a phone that isn't easy to out-grow."
p136
g8
sS'If you use linux and want GRPS and/or want to use a handsfree bluetooth device, and want a decent camera -- this is the phone for you.'
p137
g4
sS'1) phone card calling feature.'
p138
g2
sS'i have owned many phones with them such as v60, 6190, e715, 6610, v66, v205.... and the list can go on!'
p139
g2
sS'I have used this wireless internet almost everywhere i travel and it works great.'
p140
g2
sS'I have ordered 2 "cell phone + service"s from Amazon.'
p141
g2
sS'So no wonder a lot of people find the 6600 such a miracle .'
p142
g2
sS"I'm used to having to restart things."
p143
g2
sS'Does all this sound technical?'
p144
g2
sS"Other than that, the simbian series 60 OS is great and offers lots of proprietary software that will work on your phone if you're willing to hunt for it."
p145
g4
sS'I called Nokia to try to get it sorted out, and they stated that they had no recollection of ever promising to repair the phone for free.'
p146
g2
sS'I almost always get a good strong signal, even in fairly remote areas here in the southwest.'
p147
g4
sS'I recommend T-Mobile and the Nokia 6600 without reservation.'
p148
g4
sS"Motorola's phones are well engineered but have an user interface that reflects very poorly on what is otherwise an excellent engineering company."
p149
g2
sS'This is representative of the entire phone operation.'
p150
g2
sS'Especially for the price amazon gives it at (I was unable to get mine through amazon due to some credit complications).'
p151
g4
sS"I wouldn't use it for business purposes and hand one out to all my employees, because you tend to want a little more rugged a phone for that."
p152
g2
sS'Video recording is limited at just 9 seconds.'
p153
g8
sS'I love this phone.'
p154
g4
sS"I really regret signing up with T-Mobile, but I'm stuck with them for the next 6 months of the contract."
p155
g8
sS'Anyhow some demerits of this phone, The phone has a slow processor and the ear volume is lower than 6610 but then the 6610 has the best ear volume among most Nokia variants.'
p156
g8
sS'First of all, the phone houses a great deal of memory for multiple videos, sound clips, photos, texts, etc.'
p157
g4
sS'Despite a critical start, this phone deserves four stars because it accomplishes what it sets out to do (which is pretty lofty)... does more than most... does it well... is dependable.'
p158
g4
sS'THE ADVERTISING IS A LIE.'
p159
g2
sS'the pics can be touched up in photoshop, and be printed at 4x6 and they look great!'
p160
g4
sS'Outside of the T-Mobile service area the phone seamlessly jumped onto AT&T Wireless and various other services where the T-Mobile service was unavailable.'
p161
g4
sS"It's as though Nokia has segregated 90% of the screen for fancy features rarely used and leave just 10% for the day to day use."
p162
g8
sS'Great reception, visibility and interface (may be complicated by others).'
p163
g4
sS"The sound quality is excellent and the speaker phone couldn't be easier to use."
p164
g4
sS"I'm sure you can read the specs above to see everything it does, but for me the best thing is that I can easily check my email, movie times, news, or any website with this phone."
p165
g4
sS"One primary reason for getting a cell phone was so that I could use it as an internet connection for my laptop running linux, where softmodem drivers are hard to find, and don't work very well."
p166
g4
sS'All at the same time, and all without a hitch.'
p167
g4
sS'3) Phone is kinda heavy, but small in size.'
p168
g2
sS'Believe me when I say this I have used and fingered all Nokia phones and the 6600 has the best keypad'
p169
g4
sS'It is a multifunction phone, reception quality is better than the 610.'
p170
g4
sS'I use a Nokia 6600, it has a great color TFT display and camera equipped with zoom, which complement a built-in video recorder with audio and a RealOne player for playback and streaming of 3GPP-compatible and RealMedia video clips.'
p171
g4
sS'I can NOT find a carrier for this phone I like, end up just tossing it in my purse.'
p172
g8
sS'If you find a better phone, then I suggest you go for it.'
p173
g2
sS'The ONLY bad thing?'
p174
g2
sS'i may have been up for this 10 years ago, but i just want a phone that works at this point.'
p175
g2
sS'The phone can use any MIDI audio file as a ringtone.'
p176
g4
sS'Among my requirments for a phone were: good screen, decent camera, bluetooth, and GPRS support.'
p177
g4
sS"OPERATION: It's like BMW's I-Drive - It does it's job, but has the most unintuitive, overly-layered interface."
p178
g8
sS'The phone has such advantages as the excellent keypad and display, long rundown time and a good software suite.'
p179
g4
sS"I've had nothing but good luck with T-Mobile."
p180
g4
sS'I actually purchased two phones recently (this one at the new Blackberry phone), and this one is far superior (IMHO).'
p181
g4
sS'A huge beautiful color screen which can not been scratched at all even with the rough handling i give it.'
p182
g4
sS"I've been using this phone for 3 days now, and while I admit that seems doesn't seem like very long -- I should also point out that I've been using it almost non-stop."
p183
g2
sS'All you need to do is to choose your "phone card" contact and then "send touch tone" and choose the contact.'
p184
g2
sS'If you are using Linux, and you want to use GPRS to connect to the net, I suggest this phone along with a Belkin USB Bluetooth adapter.'
p185
g4
sS'So I bought the phone and went on my merry way.'
p186
g2
sS'6) The phone is really wide, which seems to be a turnoff for many people, but the phone is actually easier to grip and feel more ergonomic.'
p187
g4
sS'2) Camera phone.'
p188
g2
sS'you actually can talk to a real person for support in under an hour!).'
p189
g4
sS' The first shipment took such a long time, I had to cancel it.'
p190
g2
sS"As I drove across the country I lost reception only in eastern Kentucky's mountains."
p191
g4
sS'RECEPTION: This really depends on locale & carrier.'
p192
g2
sS"It's a high-line Audi, on a Cadillac suspension, at a reasonable price."
p193
g2
sS'I have really enjoyed the camera on this phone.'
p194
g4
sS"I've had this beauty for nearly 2 months now and I truely love it."
p195
g4
sS'So my review should defintely give you an idea about this phone.'
p196
g2
sS'there are lengthy hacks offered requiring root access and edits via terminal.'
p197
g2
sS'The navigation takes so much time that it would eventually drive you crazy.'
p198
g8
sS"Basically the 6600 is a bundle of over-hyped features you don't and won't need (if you do get yourself a PDA or pocket PC) , none of them work as they should , and the basic phone functions and ergonomics are less than average ."
p199
g8
sS'Sure, it is a relatively bulky, but it is really packed with many great features.'
p200
g2
sS"It's oval and... nice."
p201
g4
sS'3. Play Java games on it.'
p202
g4
sS"Mine generally requires a charege every 48 hours or so and I don't really talk on it that much."
p203
g8
sS'Most Bluetooth devices only support the older security system, Unit Key.'
p204
g2
sS'I use this phone exculsivly with a Jabra Freespeak 250.'
p205
g2
sS'Although the images are not the best in the world, its very handy to have a camera everywhere you go.'
p206
g2
sS'Some people have commented about the size and weight of the phone, and it has rightfully gotten the nick-name "the bar of soap" which, it really is.'
p207
g8
sS'it has a handsfree loudspeaker, conference and transfer!'
p208
g4
sS'I saw a few complaints on the load time of menus and I feel people are over-exaggerating the menu load time.'
p209
g8
sS'It has everything I needed: bluetooth, infrared, support for MMC, camera, and a good operating system with lots of supporting software.'
p210
g4
sS'4. The Build is just right.'
p211
g4
sS"Few will look at the phone and know it's 'all that'."
p212
g2
sS'On the other hand, one may leave many applications open at once, hide them and return to them just where they left off - similar to a Mac.'
p213
g2
sS'The title pretty much says it all.'
p214
g2
sS'who in the hell needs a frigging *VGA* camera on their CELLPHONE???'
p215
g8
sS'T610 supports only midi files.'
p216
g8
sS'The bottom line is "Phone is cool one - only for the moment, as its the latest phone in the market and has all the new features, but this will soon be displaced by upcoming newer phones".'
p217
g4
sS'You can take pic of your friends and the picture will pop up when they call.'
p218
g4
sS'The latter will provide better coverage in more remote areas of The States but still operates in many countries, excluding New Zealand and Australia.'
p219
g4
sS"IMP: Two important pieces of advice - Visit Nokia's site."
p220
g2
sS'6600 looks and feels nice.'
p221
g4
sS'You have to use speaker or handsfree, to get larger volume.'
p222
g2
sS'There will be much erasing of text as, one would tend to type something instead of the actual letters.'
p223
g8
sS"I've had no problems w/ this phone."
p224
g4
sS'This phone is fantastic.'
p225
g4
sS"If you expect to be able to pick things up when you're out and in a rush via common sense, many times you'll end up frustrated."
p226
g2
sS'Very simple and painless.'
p227
g4
sS'They really are awfully small.'
p228
g8
sS"While this phone obviously doesn't have the same quality construction as Motorola does, the Nokia 6600 is one of the better phones I've used."
p229
g4
sS'Is it really slow, or what?'
p230
g2
sS'5.The Camera installed on this phone is awesome.'
p231
g4
sS"When you dial a number, you'll need to check the screen to see that the number entered is correct."
p232
g8
sS"I've gone from almost every Nokia phone since they were only known and operational in Europe."
p233
g2
sS'It also works just fine for international calls.'
p234
g4
sS'So, after all this frustration of adding all of my newest contacts to the 6600, I asked the technician if it were possible to transfer the data from the 6600 to the 3650.'
p235
g2
sS'But not good enough for me.'
p236
g8
sS"It's important that people know the following:  First, the interface is slow."
p237
g8
sS'The only problem is that occasionally the joystick does start to dig into your thumb while gaming.'
p238
g8
sS'What I have found useful to consider before purchasing a phone:  - decent battery life - good call quality - user-friendly interface - camera/video functions - bluetooth - ability to sync contacts stored in the PC with the phone (no more manual entries!)'
p239
g2
sS'i checked the iSync compatibility page and it was listed--they even had a photo of the 6600 shown in the graphic.'
p240
g2
sS'all the other features are gravy.'
p241
g2
sS'4) Buttons are quite small and is really a pain exp if one is fond of text messaging.'
p242
g8
sS"Its been 11 months now that I've held on to my Nokia 6600 for."
p243
g2
sS'Another great feature for me anyway is the ability to load .wav sounds as ringers.'
p244
g4
sS"It's good."
p245
g4
sS'Clear the call logs once in a while to speed up the phone people!!!'
p246
g4
sS'The phone does not have an Mp3-player, FM radio, 200k+ color screen, megapixel camera, quad band, PDA, photo editor.'
p247
g8
sS'Handset quality is great, as is the speakerphone quality and the headset audio quality.'
p248
g4
sS"I purchased this phone after researching many different phones, mostly Nokia's that were T-Mobile compatiable."
p249
g2
sS"Don't get me wrong."
p250
g2
sS"I've been on the phone, while browsing the net over a GPRS connection, while sending a text message."
p251
g2
sS'Its like having a 66Mhz computer with a webcam, fax, printer, blue tooth...etc...Just an example..'
p252
g2
sS"Why have the function if you can't film anything longer than e few seconds?"
p253
g2
sS'It seems to be a much more user friendly company than Verizon and a thousand percent better than the horrible Quest Wireless.'
p254
g2
sS'There is no way you can talk with customer care about this.'
p255
g8
sS'The screen is quite big (between all handphone), but the just about 65000 color.'
p256
g4
sS'BLUETOOTH DOES NOT WORK ON THIS PHONE.'
p257
g8
sS'The battery life of this phone is at most 2 days and at least one day at excessive use.'
p258
g8
sS'1. Record around 1 hour of video with Phillips Camcorder Pro.'
p259
g4
sS'They stated that though it was a simple repair they would not do it for less than $120.'
p260
g2
sS'Bought a bluetooth headset and it works like a wonder.'
p261
g2
sS'Ultimately you will learn just how bad Nokia is, and why their recent loss of market share is so utterly deserved.'
p262
g8
sS'the difference is : until recently there have been no GSM networks in a wide scale , so most cell network companies supplied consumers with cells , we in the middle east (for example) have stopped using years ago ....'
p263
g2
sS'Me likes.'
p264
g2
sS"I'm not sure that a phone w/ these and all of the above features exists just yet. ...I'm not sure I'd want to spend THAT much time w/ a device, anyhow."
p265
g2
sS'As the 6600 uses 900mhz, it operates in more countries than the 6620.'
p266
g4
sS'speaker phone quality is good, and poping in a 512mb MMC card, it rocks !'
p267
g4
sS"Before buying, I'd urge you to actually use one and not just handle it in the store."
p268
g2
sS"I've had this phone for almost a year now and it has been nothing but great to use."
p269
g4
sS'Its a real shame that T-Mo does not offer the newer Nokia models.'
p270
g2
sS'For phone card with PIN Free dialing setup, you are a little bit lucky.'
p271
g2
sS"If you've never used an advanced mobile phone before, you might assume this is par for the course, but it simply isn't."
p272
g2
sS'so, right out of the box i had issue.'
p273
g8
sS'I upgraded mine to a 128 MB MMC Card via which I can store unlimited number of messages, take a thousand pictures and videos.'
p274
g2
sS'This phone is flashy and feels good in the hand, but it could not hold a connection to any of my bluetooth devices (headset, handheld, or desktop computer).'
p275
g2
sS'There are number of downloads needed/available for this phone & they will be texted to you at no cost.'
p276
g4
sS'I must add to the dismay/delight of readers this phone is simply the most groundbreaking phone mankind has ever held.'
p277
g4
sS'Their customer service agents are always prompt and polite and my service is terrific.'
p278
g4
sS'Its nice look is also a plus.'
p279
g4
sS'2) Nice features, like web browser, camera, video recorder, speaker phone (very usefully), clear voice reception.'
p280
g4
sS'Menu is a bit slow, but overall, phone is very functional.'
p281
g2
sS'INCREDIBLE MEMORY!'
p282
g4
sS'I got this with the need for a nokia GSM camera-phone with speakerphone.'
p283
g2
sS'I have overall been disappointed with Nokia in the past, finding that Samsung and Motorola tended to have better quality phones.'
p284
g8
sS"It's easy to use. Not too small, and not too big."
p285
g4
sS"In short - Nokia themselves don't know that this phone doesn't work with the Palm, and if you don't heed my advice you will spend hours with technicians around the globe reading from scripts, chiding you in broken english for not following their directions exactly."
p286
g8
sS'1.The Phone has the best keypad any Nokia phone has to offer.'
p287
g4
sS'Some complain it being a tad too bulky looking.'
p288
g2
sS'All in all I would say wait for the cell phone companies to create a PDA/cell hybrid that is efficient and easy to use as a phone.'
p289
g2
sS"I got this phone yesterday and didn't find any problems with it yet."
p290
g4
sS'Even the instruction booklet is out of order.'
p291
g8
sS'Camera is nice, and video recording for some reason is only limited to 9 seconds.'
p292
g2
sS"I can tell using the phone that it feels a little flimsier than Motorolas do, but as long as I'm not planning on dropping the phone or running over it with my car it should be just fine."
p293
g4
sS'3) Joy stick for eazy navigation, 35Mb memory card to store the pictures and stuff.'
p294
g4
sS'Ha!'
p295
g2
sS'Sometimes, it needs few minutes to open an application.'
p296
g8
sS'So, do I recommend the 6600?'
p297
g2
sS"I would suggest this phone for all but the simple-minded... or those who simply don't need so many features."
p298
g2
sS'Most of thew reviews are high for this phone ......'
p299
g2
sS'2) Low volume on regular answering.'
p300
g2
sS'Supporting an operating system, Symbian OS, you can download and run a lot of programs on this phone.'
p301
g4
sS"Finally, after about a week's use, the screen started to freeze on me."
p302
g8
sS"Also the battery life isn't great but it's sufficient for my needs."
p303
g8
sS'I can play MP3 files on my phone by simply downloading softwares freely available on the net.'
p304
g2
sS'Yes, certainly.'
p305
g2
sS'One minute with the salesman and I was sold.'
p306
g2
sS'went with T mobile Nokia 6600 replacing my Sony T610.'
p307
g2
sS'If you max out the phone memory and have sent all you wish to a computer, there is a memory card w/ a good deal of storage as well.'
p308
g2
sS"T-Mobile wasn't upfront about some of the terms to qualify for the rebate."
p309
g8
sS'7. Have a good chunk of my small MP3 to listen through the speaker phone.'
p310
g4
sS'I never get dropped calls.'
p311
g4
sS"I find this feature on this phone useless, but, since I don't really need this function anyway, I don't really use it."
p312
g8
sS'if you are looking for a phone to integrate as easily as the sonyericsson phones with iSync, i say stick with a sonyericsson.'
p313
g4
sS'The downloads are for basic and advanced operations.'
p314
g2
sS'With one of the most intuitive user-interfaces around, seamless bluetooth sync with Microsoft Outlook, support for thousands of applications for the Symbian platform which this phone runs on (I own the IR Remote, ICQ and a few others), the Nokia 6600 is all of the above - one of the few phones from T-Mobile that can claim such a distinction.'
p315
g4
sS'And remember, this is a PHONE first and foremost which is where I have my biggest complaints...'
p316
g2
sS'if there was a zero-star rating i would give it.'
p317
g8
sS'i bought this phone last march, almost a year ago, in saudi arabia (it came out there before it did here).'
p318
g2
sS'Handsfree future is good, but not too exciting.'
p319
g4
sS'The 6600 was the best phone I could find with these options that I could get with t-mobile.'
p320
g4
sS'3 band and you can just change the SIM card in it to be able to use it in Europe with another service provider.'
p321
g4
sS"On occasion I'm not able to connect to the phone with iSync via Bluetooth but I found that rebooting the phone seems to solve this problem."
p322
g8
sS'The use of 65536 (16bit) colors ensures you get your share of animations and icons on your phone'
p323
g4
sS'the stand by is really good considering all the toys this phone has and the screen size!'
p324
g2
sS'The interface is simple to use.'
p325
g4
sS'I must admit its not the best looking phone ever but then it has this look of static and absolute conviction that looks like everything a phone should be'
p326
g4
sS'Ive had this phone for a year now - and its the best phone I have owned.'
p327
g4
sS'I love gadgets, technology and whatever electronic equipment you throw my way.'
p328
g2
sS'And the phone has a very cool feature wich allows you to send images via a normal POP3/SMTP e-mail account.'
p329
g4
sS"If you're still whining about storage, deleting some games will free-up still more memory."
p330
g2
sS"I do not need to repeat what's great about this phone."
p331
g4
sS"It's really well made and has survived sliding across floors and pavement without a scratch."
p332
g4
sS'Why is this phone so great?'
p333
g2
sS'The second one is on hold for almost 2 weeks with a message that "Can be delayed further".'
p334
g2
sS'It takes a while to learn how to use it right, and at this point I am able to make about 70% of my calls using it.'
p335
g8
sS"Over the past three days, I've only had to turn the phone off twice, so I rarely have to deal with the delay in initially booting the phone."
p336
g2
sS'yes it is a bit large, but the realestate on the screen will spoil you!'
p337
g2
sS'I can connect to my computer via bluetooth to transfer images, calender events, contacts and anything else.'
p338
g4
sS"Now I'm back to Nokia to try their 6600 model."
p339
g2
sS'Everything, so far, has worked flawlessly.'
p340
g4
sS'I bought this phone a few months ago and I have been using it since then.'
p341
g2
sS"Camera quality isn't bad for the low resolution."
p342
g4
sS'The log functions helps you track down the incoming , outgoing calls in the most easy of ways.'
p343
g4
sS"Aside from a 6MB++ built-in phone memory, there's a 32MB MMC card that goes with it!"
p344
g4
sS'3) The joystick design they are using on the new Nokias gives you a great degree of control.'
p345
g4
sS'I will also say that setting up the e-mail account was very simple and straight-forward, although you do need an external SMTP server to use.'
p346
g4
sS'The 6600 will provide similar service in more developed areas of The States and not as well in more remote areas.'
p347
g8
sS"I find it difficult to remove back cover so is you plan to have a spare battery and replace it I suggest you don't ,besides it has a long battery life."
p348
g2
sS'namely, it wouldnt sync.'
p349
g8
sS'Bottom line great phone for the time being.'
p350
g4
sS'i have a hard time using other phones with smaller screens!!!'
p351
g4
sS'Besides the above mentioned Merits , the phone has decent ear volume and loudspeaker functionality.'
p352
g2
sS"The battery life can't be very long; let's not be greedy."
p353
g8
sS"You'll do that because the keys are tightly packed in and your fingers will likely press two keys at once."
p354
g8
sS'Multimedia functions are enhanced by multi-slide MMS messages and a Gallery for organizing digital content captured or downloaded with the phone.'
p355
g4
sS"I've synched it with my Jabra 250 bluetooth headset."
p356
g2
sS"You'll see what I mean ... if you have a magnifying glass."
p357
g2
sS"Remember, this phone uses an operating system - Symbian... and it's feature-rich w/ 65k colors."
p358
g4
sS'6. Play Gameboy Color games on it with GoBoy.'
p359
g4
sS"It's a bit pricey to call home from other countries but the instant messaging to and from covered countries in Europe are quite reasonable."
p360
g4
sS'So on the whole, let me summarize the good and bad things about this phone, instead of writing a long review.'
p361
g2
sS'gee anyways ENJOY WHAT WORKS!'
p362
g2
sS"The battery on mine lasts 2 days if I don't play games that much, and it only takes 90 mins to charge from flat."
p363
g4
sS'Among its weak points is the MMC slot location and a bit vague design.'
p364
g8
sS'I hope you have a magnifying glass, because the number displayed as well as most of the pop up options are tiny.'
p365
g8
sS'It has great upgradibility.'
p366
g4
sS'If you are looking for an upgrade, this is definitely the phone for you.'
p367
g4
sS'This phone is one of the milestones in the history of the cellular phones.'
p368
g4
sS'I have a couple hundred contacts and the menu loads within a few seconds, no big deal.'
p369
g4
sS'I followed the technician\'s directions to the letter while they were on the phone, and after I had done so, the phone restarted and displayed the message "Phone startup failed. Contact the retailer."'
p370
g2
sS"Few month ago, it's very popular among my community."
p371
g4
sS"The Nokia 660 runs the Symbian OS, which works pretty well for most standard phone fare, most of the stuff is not that intuitive, but if you actually learn how to use it all, there's plenty of neat tie-ins."
p372
g4
sS"When I purchased this phone , I thought to myself that I had purchased the most popular phone around and the thought didn't please me."
p373
g2
sS'N6600 supports midi, wav, amr, mp3 etc.'
p374
g4
sS'According to a survey, more customers are ordering their cell phone and service from AMAZON.COM'
p375
g2
sS'Picture and video quality is ok.'
p376
g4
sS'5) Video recorder is of no use and one cannot record something useful in 10 seconds and it takes a while to send the same through the "Free picture and video messaging" offered by service provider.'
p377
g8
sS"This phone doesn't include Phone card calling."
p378
g8
sS'You hit the message button on the front and it takes a matter of SECONDS to bring up the menu.'
p379
g8
sS'The plusses are the features, look, good signal and battery life, memory size and robustness.'
p380
g4
sS'Probably a great phone overall, and perhaps mine just has bugs.'
p381
g4
sS'I love the Bluetooth; easy to use with a wireless Jabra headset.'
p382
g4
sS"T-Mobile's minute plans are cheaper for a reason."
p383
g2
sS'This way I never have to be ripped off by the carrier for stupid ringtones, I can get whatever I want.'
p384
g4
sS"Don't use them, so I delete them for addtl space."
p385
g8
sS'i guess its my own fault for not researching more before buying the thing.'
p386
g2
sS'Initially these phones were fun to play with some of the cool features like the speaker phone, web browser and ofcourse the built in camera.'
p387
g4
sS'But if you use all bluetooth accessories, as I do, its really not an issue.'
p388
g4
sS'Give each friend a different ringtone.'
p389
g4
sS'3660 had similar features, but that is big in size.'
p390
g4
sS"DOwnside is the size of the phone, it is BIG for today's standard."
p391
g8
sS'It offers way more features than I need but the ones I use work well.'
p392
g4
sS'Goes ~3 days after a charge.'
p393
g4
sS"but, that's the only SE t-mobile offers right now."
p394
g2
sS"This isn't the most rugged phone ever but then your not gonna play aeroplane with this,are you."
p395
g4
sS'I purchased this phone knowing it was slightly old as compared to the newer models of Nokia phones available.'
p396
g8
sS'It has it all.'
p397
g4
sS'If you are purchasing this phone, then make sure you can handle the speed of this phone.'
p398
g2
sS'the OS is abit confusing at 1st, but within a few days you will pass this learning curve!'
p399
g8
sS'I will say that the OS that the phone runs does have a few issues.'
p400
g8
sS'I must say, this one is quite slow to open an application.'
p401
g8
sS'My explanation is that most of the reviewers are americans that live in the states .....'
p402
g2
sS'I did notice if you turn the phone on and off the OS takes a bit to load up and initially the menus are slower but once the phone has been on and booted up the menus are reasonably quicker.'
p403
g4
sS'The ringtones are beautiful, the screen is super high quality.'
p404
g4
sS'At first glance, I thought this phone was a little too big for me, maybe a little too complicated.'
p405
g8
sS'MEMORY/STORAGE - Seemingly boundless.'
p406
g4
sS'I have purchased two of these phones together from the Amazon market place.'
p407
g2
sS'This phone has a nice blend of features without going overboard.'
p408
g4
sS'GAMES - Java.'
p409
g2
sS'A Sony Ericcson may be the phone for you... but good luck finding one w/ all the features & such a competitive price.'
p410
g4
sS'This is somewhat annoying, but from working with computers (espcially windows -- ugh...)'
p411
g8
sS'What makes it so great is the versatility and the number of features it has.'
p412
g4
sS'I had a Sony ericsson T610 before this and the T610 is far inferior.'
p413
g4
sS'This is no small deal.'
p414
g2
sS"I suggested that it didn't make sense for me to send in the phone for repair if I thought Nokia would charge me $120 to repair it since I could get it done locally for $30."
p415
g2
sS'The Phone offers a 32 Mb MMC card and I think that is certainly the most exciting feature.'
p416
g4
sS"I mean, they're short!"
p417
g8
sS"I'm an advocate of Nokia , but this phone and the following models (7610) , are seemingly a desperate trial at squeezing as much under-engineered and experimental technologies in one sloppy phone ."
p418
g8
sS'The KDE Bluez system for bluetooth support.'
p419
g2
sS'A few things that I want to suggest for improvements:'
p420
g2
sS'The phone is sturdy.'
p421
g4
sS'You can use the OBEX File Transfer service with bluetooth from linux (KDE-bluetooth provieds a nice intergration into Konqueror for this) for sending files to the phone.'
p422
g4
sS"Frankly, I think this is one of the niftiest pieces of hardware I've ever used."
p423
g4
sS'Im able to keep my phone on for about a week (mostly stand by) to three days (regular use)'
p424
g4
sS'High quality video and pictures rock!'
p425
g4
sS'The 6600 has more ameneties than most - World phone, Camera (VGA/zoom/night mode/timer), Video (w/ audio & zoom), Speaker (good sound), Bluetooth, infrared, Modem for computers, electronic wallet, Internet access, Calendar, calculator, converter and more.'
p426
g4
sS'The photos in the address book are terribly scaled too; they look as though they were built out of legos.'
p427
g8
sS'The "movies" last about 5 seconds.'
p428
g8
sS'The supervisor stated that it must have been third-party applications on the 6600 that caused the 3650 to break, and would not take the suggestion that his own tier-2 technicians stated that it was not possible to back up the 6600 to the 3650 without damaging the 3650, regardless of what was or was not on the 6600.'
p429
g2
sS'The only downside I have found with this phone is that it is a bit slow to react, meaning when I push the contacts button, it takes a while to load, this is true for almost all the menus and programs on the phone.'
p430
g8
sS"My biggest concern is that I have found Nokia phones lower quality construction to lead to lower prices, but they also don't last as long."
p431
g8
sS'Unfortunately , I sold it exactly a month later .'
p432
g8
sS"Just don't get drawn into T-Mobile's catchy rebate."
p433
g8
sS'APPLICATIONS: It has lots of applications and they work very well... when you eventually find where they are and they finally open.'
p434
g4
sS'The menu pops up after 3 seconds The picture takes a while to load from its slow card memory.'
p435
g8
sS'The only main drawback is the fact that the voice-dialing system is kinda picky.'
p436
g8
sS'The Nokia 6600 is really just a glorified 3650: you know the 3650, those bulbous, formless, big phones a few unfortunate ATT customers are carrying around.'
p437
g2
sS'after scouring the various boards i find this is an arbitrary and pervasive problem.'
p438
g8
sS'2. Take around 10,000 640x480 pictures.'
p439
g4
sS'Did I mention the note feature and how you can send notes via Bluetooth?'
p440
g2
sS"5- If you already have a girlfriend and/or wife , you won't need Bluetooth lol ."
p441
g2
sS"It's a nice phone, and I'm glad to have used it."
p442
g2
sS"1-A cell phone is to make CALLS , in other words , quality of reception and mic/speaker are the most important , the 6600 has a relatively low volume speaker , you'd have to press it hard against your ear to hear anything the other person is saying , unless the surroundings were completely quiet ."
p443
g8
sS'but this by far is the best phone out there right now!'
p444
g4
sS':! OK, score 7.0 Oh yes, the newest color of this phone is quite cool.'
p445
g4
sS'My dad has a Nokia 6670 before which he has a Nokia 7210 and before that he had a Nokia 6610.'
p446
g2
sS'Since I use my Palm PDA and T-Mobile offers unlimited Internet, I asked the sales representative if I could use this phone as a Bluetooth modem for my Palm, and he said yes.'
p447
g2
sS'I think the interface is great.'
p448
g4
sS'But if you are one of the customers contributing to this, its a big mistake.'
p449
g2
sS"I like it's shape and it's keypad and joystick."
p450
g4
sS"i'm having mine upgraded to capture endless video, which right now allows 10 secs."
p451
g2
sS'For last one month my Rebate status showing me that my rebate is apporved and check is delivered but still I am waiting for Check.'
p452
g8
sS'The only con I can think of is the lack of a mega-pixel camera.'
p453
g8
sS'On a DELL Inspiron 8200 with a P4 2.0ghz system with 1gb RAM.'
p454
g2
sS'I own this phone for about 6 months now, I have used the following features: bluetooth connection to laptop and desktop for sync contacts and calendars with Outlook, transfer files (movies, songs), I have many movies on it now with a 512MB memory card that it takes.'
p455
g4
sS'I have purchased the 6600 when it was first released in The Middle East , almost a month before Europe , and reading the brochures and features , it really did sound like a true all-in-one functionality monster .'
p456
g2
sS"It is slow to initially start up, but once it's turned on, I've never had any complaints about the speed."
p457
g4
sS"That's because it is, and the only way I learned it was by spending over an hour talking to T-Mobile's tier-3 technicians in South Africa (to learn that the problem wasn't about T-Mobile) and three hours of getting nowhere with Nokia support technicians reading endlessly from scripts, never deviating, until I started cursing and got a tier-2 tech."
p458
g2
sS'If you love your cell phone games or changing your ring tones everyday, Nokia beats everyone else.'
p459
g4
sS'8. Connected the phone to my tablet pc and now can access company VPN at 56k speed via bluetooth.'
p460
g4
sS'So you have to dial your phone card access number, PIN card, and choose "send touch tone" and find your contact from the address book.'
p461
g2
sS'In any case , putting aside how common it is in my city , I dont think I can be anymore satisfied.'
p462
g2
sS"The number buttons are crammed into a 3x4cm area, the fonts are small, the interface is too convoluted and frustrating, it's not that customisable as well."
p463
g8
sS'Photos are pretty darned good!'
p464
g4
sS'Sorry, try something else or at least trying using one.'
p465
g2
sS"Apparently some phones don't allow you to give an entire group a ringtone."
p466
g2
sS'I still decided to send in the phone, since insured shipping was only $10.'
p467
g2
sS'This thing does everything but washes your dishes.'
p468
g4
sS'Go see for yourself.'
p469
g2
sS'Especially the bluetooth server... Meaning you have to restart the phone if you want bluetooth to work again.'
p470
g8
sS'Solid, squeak-free, large screen.'
p471
g4
sS'4. Play N-Gage games on it.'
p472
g4
sS"Keep in mind that for nearly every screen, there are a number 'along side' and 'beneath' them... for every 'save,' there are choices of phone memory, memory card or sim card."
p473
g2
sS'2) Phone is awfully slow.'
p474
g8
sS'This one is full of features(has bluetooth).'
p475
g4
sS"What's wrong with it?"
p476
g2
sS'It fits comfortably in my hand and pocket.'
p477
g4
sS'you can record your voice and turn it into a ringtone.'
p478
g4
sS'Love the speaker phone.'
p479
g4
sS'I never had a single problem.'
p480
g4
sS'and the battery life is bad !'
p481
g8
sS"I've had Nokia's for years, and while this one is packed with whiz bang features it is disappointing for its primary use - a phone."
p482
g8
sS'Simple.'
p483
g2
sS'For those Mac OSX users out there, iSync works fairly well.'
p484
g4
sS'You can turn this phone into a gaming machine, a camcorder or a digital camera, an mp3-player, a movie viewer, a voice recorder, a personal secretary, a GPS map browser, a book, a multifunction remote controller, practically everything that you can do with the computer, plus it is a phone(!!) and also you can carry it in your pocket :).'
p485
g4
sS'My fingers are kind of stubby so it took a while to learn how to hit a key without hitting the adjacent ones.'
p486
g8
sS"Other than that it meets or surpasses all of my needs and surely won't disappoint any already established Nokia phone fans."
p487
g4
sS'This process can be very annoying and unsafe when you are driving a stick shift on the highway.'
p488
g8
sS'A firmware upgrade is irrelevant .'
p489
g2
sS'since then, i have not found one major problem with it.'
p490
g4
sS'He advised me to back up the 6600 to a newly formatted Nokia MMC card, and restore the data to the 3650.'
p491
g2
sS'Sometimes when you press buttons, the menu appears after a second or two.'
p492
g8
sS'This phone has the best battery, it lasts longer then my old 3210'
p493
g4
sS'So if you order one of the top 10 bestselling phones from Amazon now, it will take at least 3 weeks for your shipment to be delivered...guess Amazon is waiting for seconds to re-package,'
p494
g2
sS'4) One nice thing about Nokias is that they have a ton of ring tone and game choices.'
p495
g4
sS'putting in MP3 player, lots of games and application to download.'
p496
g4
sS'DaveC'
p497
g2
sS'Also, when I dial an "800" number like an airline, it will not allow me to use number keys to navigatee the prerecorded menu.'
p498
g8
sS'You will also hard-reset both your Palm and your Nokia to factory defaults in their lame attempts to get the script to work, though it will not.'
p499
g2
sS"As for appearance, well, that's subjective."
p500
g2
sS'The handsfree provided by the phone is useful for those who talk on the phone while driving.'
p501
g4
sS'It uses the extendable MMC memory, it is perfect for storing videos, pictures and mp3s.'
p502
g4
sS'but, i am quite unhappy with nokia at the moment.'
p503
g8
sS'I click pictures in JPG format and because the phone has a bluetooth device I find it extremely easy to transfer pics to my pc and forth.'
p504
g4
sS'This simple nuance was too much for Nokia, and they still refuse to acknoledge the fact that their technician could have broken the phone or repair the phone for free.'
p505
g8
sS'This feature is very important to me as I make a lot of international calls.'
p506
g2
sS'Get great themes and wallpapers for this phone and many many polyphonic rings.'
p507
g4
sS'This includes ALL Palm PDAs! Further, due to an unparalled design oversight, Nokia is the only device that supports Combination Key that is NOT BACKWARDS COMPATIBLE with the older devices that people actually own.'
p508
g2
sS'I used to work with t-mobile..'
p509
g2
sS"For the linux users out there who are intrested in my setup: I'm running Debian (Knoppix 3.4) with a custom 2.6.7 kernel."
p510
g2
sS'And also, since it is tri band and since it uses SIM-card, you can just use it in Europe and many other parts of the world, wherever GSM exists.'
p511
g4
sS'my number one criteria for a new phone was iSync compaibility via bluetooth.'
p512
g2
sS'Now the bad:  1) As usual, battery power not sufficient for daily usuage.'
p513
g8
sS'But beware of the bugs; they are major!'
p514
g2
sS"Although it has chubby hips, the device isn't really so big."
p515
g4
sS"I would have given this phone 5 stars if it wasn't for the fact that I would rather use my 3330 to do all the most common things you do with a phone."
p516
g4
sS'This is the first phone I know of that has the large bright screen, infrared, bluetooth, USB connector and a speakerphone.'
p517
g4
sS'With Bluetooth off the phone last almost twice as long.'
p518
g4
sS'If your looking for a phone thats mainly for calls and killing time this is the one you want.'
p519
g2
sS"you can't do that with a Sony T610 (which i traded for a 6600)."
p520
g8
sS'These people takes lest effort to process rebate forms.'
p521
g8
sS'I could not get the 3650 working to even factory defaults, even after trying every reset code they could muster.'
p522
g2
sS"In those days I've gone from Oki, Motorolla and progressed (actually regressed) to Sony Ericsson's T610."
p523
g2
sS'In October of 2003, I bought a Nokia 3650 off of eBay.'
p524
g2
sS'Hand set is good, but be aware of this T-MOBILE rebate.'
p525
g2
sS"DEPENDABILITY: I've seen no glitches."
p526
g4
sS'My old Siemens s56, on the other hand, worked beautifully with all of the above.'
p527
g8
sS'As soon as you copy video/audio files and add some programs and games , it WILL hang at least 5-10 times a day.'
p528
g2
sS'The older security method is called Unit Key.'
p529
g2
sS'I highly recommend this phone.'
p530
g4
sS'2- It is bulky and the small buttons on the sides are sloppy to use .'
p531
g8
sS'I did a little research and discovered that the repair could be done by any basic cell-phone for $30.'
p532
g2
sS'i highly recommend it if you are looking for a phone with great camera quality and/or lots of features you would find in a PDA.'
p533
g4
sS'Which is really nice because you can get pretty much any piece of music in MIDI format for free on the net.'
p534
g4
sS"Along the way we compared it to my wife's T720i and the 6600 was superior in terms of battery life, connectivity bars and features."
p535
g4
sS'Still not sure?'
p536
g2
sS'The Nokia 6600 is a decent extension of the smartphone line.'
p537
g4
sS'I could hardly use it without a recharge in 2 days!'
p538
g8
sS'In July of 2004, I purchased a Nokia 6600 from T-Mobile.'
p539
g2
sS'All I need to do is to choose the contact and in option select "calling card call".'
p540
g2
sS'No matter how accustomed to the phone you become, too much time is required to get to, open and close applications.'
p541
g8
sS"Only thing I don't like about it is slow in changing apps, boot up, and sometime it has problem connect thru bluetooth."
p542
g8
sS"Once it froze so bad I couldn't even use the power button to turn it off, and had to open and take out the battery."
p543
g8
sS'Though nearly a dozen different people at both T-Mobile and Nokia have told me otherwise, it is simply not possible to use this phone as a Bluetooth modem for the vast majority of PDAs and many other devices.'
p544
g8
sS"I wouldn't do that because it's not worth my life."
p545
g2
sS'As for bluetooth, no problems at all.'
p546
g4
sS'Same with the contacts list, recent call list and everything else.'
p547
g2
sS"But if you are in the market for a new business capable phone, and don't want to deal with a stylus equipped PDA like device such as the P900, then the 6600 will probably suit you just fine."
p548
g2
sS'I bought 2 of these Nokia 6600 phones recently, thru the amazon market place.'
p549
g2
sS'Secondly, all info can be sent to a computer and w/o the hassle of USB wires.'
p550
g4
sS'All in all, this is a great phone.'
p551
g4
sS'this is a great phone i have this phone since Feb 04 and i never have any problem at all.'
p552
g4
sS'The display and brightness on this phone is quite extraordinary.'
p553
g4
sS'Only then did I learn the truth -- THIS PHONE DOES NOT WORK WITH PALM PDAS!'
p554
g8
sS'4- My idea was that it was an all-in-one , and that theory -once again- proves wrong , this phone excells at nothing , less  than average in everything , if you seriously need any of the "other than phone" functionalities , you\'ll be disappointed .... if you have lots of money and bought it for the love of gadgets then fine .... but don\'t expect to get much done .'
p555
g8
sS'This helps prevent people from sending short "obscene" messages to your phone.'
p556
g2
s.