(lp0
((lp1
S"I've"
p2
aS'had'
p3
aS'this'
p4
aS'beauty'
p5
aS'for'
p6
aS'nearly'
p7
aS'2'
p8
aS'months'
p9
aS'now'
p10
aS'and'
p11
aS'I'
p12
aS'truely'
p13
aS'love'
p14
aS'it.'
p15
aS'pos'
p16
tp17
a((lp18
S'The'
p19
aS'only'
p20
aS'disappointment'
p21
aS'so'
p22
aS'far'
p23
aS'has'
p24
aS'been'
p25
aS'battery'
p26
aS'life.'
p27
aS'neg'
p28
tp29
a((lp30
S'Mine'
p31
aS'generally'
p32
aS'requires'
p33
aS'a'
p34
aS'charege'
p35
aS'every'
p36
aS'48'
p37
aS'hours'
p38
aS'or'
p39
aS'so'
p40
aS'and'
p41
ag12
aS"don't"
p42
aS'really'
p43
aS'talk'
p44
aS'on'
p45
aS'it'
p46
aS'that'
p47
aS'much.'
p48
ag28
tp49
a((lp50
S'Why'
p51
aS'is'
p52
aS'this'
p53
aS'phone'
p54
aS'so'
p55
aS'great?'
p56
aS'neutral'
p57
tp58
a((lp59
S'Simple.'
p60
ag57
tp61
a((lp62
S'It'
p63
aS'has'
p64
aS'it'
p65
aS'all.'
p66
ag16
tp67
a((lp68
S'This'
p69
aS'is'
p70
aS'the'
p71
aS'first'
p72
aS'phone'
p73
ag12
aS'know'
p74
aS'of'
p75
aS'that'
p76
aS'has'
p77
aS'the'
p78
aS'large'
p79
aS'bright'
p80
aS'screen,'
p81
aS'infrared,'
p82
aS'bluetooth,'
p83
aS'USB'
p84
aS'connector'
p85
aS'and'
p86
ag34
aS'speakerphone.'
p87
ag16
tp88
a((lp89
S'If'
p90
aS'you'
p91
aS'are'
p92
aS'looking'
p93
aS'for'
p94
aS'an'
p95
aS'upgrade,'
p96
aS'this'
p97
aS'is'
p98
aS'definitely'
p99
aS'the'
p100
aS'phone'
p101
aS'for'
p102
aS'you.'
p103
ag16
tp104
a((lp105
g12
aS'got'
p106
aS'this'
p107
aS'with'
p108
aS'the'
p109
aS'need'
p110
aS'for'
p111
ag34
aS'nokia'
p112
aS'GSM'
p113
aS'camera-phone'
p114
aS'with'
p115
aS'speakerphone.'
p116
ag57
tp117
a((lp118
S'3660'
p119
aS'had'
p120
aS'similar'
p121
aS'features,'
p122
aS'but'
p123
aS'that'
p124
aS'is'
p125
aS'big'
p126
aS'in'
p127
aS'size.'
p128
ag16
tp129
a((lp130
S'6600'
p131
aS'looks'
p132
aS'and'
p133
aS'feels'
p134
aS'nice.'
p135
ag16
tp136
a((lp137
S'This'
p138
aS'one'
p139
aS'is'
p140
aS'full'
p141
aS'of'
p142
aS'features(has'
p143
aS'bluetooth).'
p144
ag16
tp145
a((lp146
S'Especially'
p147
aS'the'
p148
aS'LCD'
p149
aS'is'
p150
aS'big'
p151
aS'and'
p152
aS'the'
p153
aS'camera'
p154
aS'quality'
p155
aS'is'
p156
aS'among'
p157
aS'the'
p158
aS'very'
p159
aS'best'
p160
aS'around.'
p161
ag16
tp162
a((lp163
g12
aS'have'
p164
aS'set'
p165
aS'up'
p166
aS"it's"
p167
aS'PDA'
p168
aS'features'
p169
aS'with'
p170
aS'avantgo.com'
p171
aS'where'
p172
aS'you'
p173
aS'can'
p174
aS'download'
p175
aS'info'
p176
aS'from'
p177
aS'sites'
p178
aS'like'
p179
aS'weather,mapquest'
p180
aS'maps/directions'
p181
aS'into'
p182
aS'it,'
p183
aS'which'
p184
aS'is'
p185
aS'great.'
p186
ag16
tp187
a((lp188
S'Using'
p189
aS'supplied'
p190
aS's/w,'
p191
aS'you'
p192
aS'can'
p193
aS'transfer'
p194
aS'all'
p195
aS'addresses'
p196
aS'from'
p197
ag34
aS'different'
p198
aS'nokia'
p199
aS'phone'
p200
aS'into'
p201
aS'it.'
p202
ag16
tp203
a((lp204
S'Goes'
p205
aS'~3'
p206
aS'days'
p207
aS'after'
p208
ag34
aS'charge.'
p209
ag16
tp210
a((lp211
S'Its'
p212
aS'been'
p213
aS'11'
p214
aS'months'
p215
aS'now'
p216
aS'that'
p217
aS"I've"
p218
aS'held'
p219
aS'on'
p220
aS'to'
p221
aS'my'
p222
aS'Nokia'
p223
aS'6600'
p224
aS'for.'
p225
ag57
tp226
a((lp227
g12
aS'purchased'
p228
aS'this'
p229
aS'phone'
p230
aS'knowing'
p231
aS'it'
p232
aS'was'
p233
aS'slightly'
p234
aS'old'
p235
aS'as'
p236
aS'compared'
p237
aS'to'
p238
aS'the'
p239
aS'newer'
p240
aS'models'
p241
aS'of'
p242
aS'Nokia'
p243
aS'phones'
p244
aS'available.'
p245
ag28
tp246
a((lp247
g12
aS'thought'
p248
aS'it'
p249
aS'was'
p250
aS'kind'
p251
aS'of'
p252
aS'steeply'
p253
aS'priced'
p254
aS'at'
p255
aS'that'
p256
aS'time.'
p257
ag28
tp258
a((lp259
g12
aS'must'
p260
aS'add'
p261
aS'to'
p262
aS'the'
p263
aS'dismay/delight'
p264
aS'of'
p265
aS'readers'
p266
aS'this'
p267
aS'phone'
p268
aS'is'
p269
aS'simply'
p270
aS'the'
p271
aS'most'
p272
aS'groundbreaking'
p273
aS'phone'
p274
aS'mankind'
p275
aS'has'
p276
aS'ever'
p277
aS'held.'
p278
ag16
tp279
a((lp280
S'It'
p281
aS'has'
p282
aS'raised'
p283
aS'the'
p284
aS'bar'
p285
aS'owing'
p286
aS'to'
p287
aS'number'
p288
aS'of'
p289
aS'features'
p290
aS'it'
p291
aS'offers'
p292
aS'and'
p293
aS'the'
p294
aS'absolute'
p295
aS'ease'
p296
aS'of'
p297
aS'use'
p298
aS'delight.'
p299
ag16
tp300
a((lp301
S'Now'
p302
aS"I'm"
p303
ag34
aS'techy'
p304
aS'and'
p305
aS'like'
p306
aS'getting'
p307
aS'technical'
p308
aS'about'
p309
aS'things'
p310
aS'so'
p311
aS"I'd"
p312
aS'brief'
p313
aS'you'
p314
aS'in'
p315
aS'on'
p316
aS'the'
p317
aS'few'
p318
aS'features'
p319
ag12
aS'liked'
p320
aS'about'
p321
aS'this'
p322
aS'phone-'
p323
ag57
tp324
a((lp325
S'1.The'
p326
aS'Phone'
p327
aS'has'
p328
aS'the'
p329
aS'best'
p330
aS'keypad'
p331
aS'any'
p332
aS'Nokia'
p333
aS'phone'
p334
aS'has'
p335
aS'to'
p336
aS'offer.'
p337
ag16
tp338
a((lp339
S'My'
p340
aS'dad'
p341
aS'has'
p342
ag34
aS'Nokia'
p343
aS'6670'
p344
aS'before'
p345
aS'which'
p346
aS'he'
p347
aS'has'
p348
ag34
aS'Nokia'
p349
aS'7210'
p350
aS'and'
p351
aS'before'
p352
aS'that'
p353
aS'he'
p354
aS'had'
p355
ag34
aS'Nokia'
p356
aS'6610.'
p357
ag57
tp358
a((lp359
g12
aS'think'
p360
aS'the'
p361
aS'keypad'
p362
aS'on'
p363
aS'your'
p364
aS'cell'
p365
aS'phone'
p366
aS'is'
p367
aS'the'
p368
aS'most'
p369
aS'important'
p370
aS'thing'
p371
aS'for'
p372
aS'me'
p373
aS'as'
p374
aS'Im'
p375
aS'constantly'
p376
aS'sending'
p377
aS'messages'
p378
aS','
p379
aS'calling'
p380
aS'people'
p381
aS'and'
p382
aS'fiddling'
p383
aS'around'
p384
aS'with'
p385
aS'my'
p386
aS'phone.'
p387
ag57
tp388
a((lp389
S'Believe'
p390
aS'me'
p391
aS'when'
p392
ag12
aS'say'
p393
aS'this'
p394
ag12
aS'have'
p395
aS'used'
p396
aS'and'
p397
aS'fingered'
p398
aS'all'
p399
aS'Nokia'
p400
aS'phones'
p401
aS'and'
p402
aS'the'
p403
aS'6600'
p404
aS'has'
p405
aS'the'
p406
aS'best'
p407
aS'keypad'
p408
ag16
tp409
a((lp410
S'2.'
p411
aS'The'
p412
aS'looks'
p413
aS'are'
p414
aS'absolutely'
p415
aS'no'
p416
aS'nonsensical.'
p417
ag57
tp418
a((lp419
S'Some'
p420
aS'complain'
p421
aS'it'
p422
aS'being'
p423
ag34
aS'tad'
p424
aS'too'
p425
aS'bulky'
p426
aS'looking.'
p427
ag57
tp428
a((lp429
g12
aS'must'
p430
aS'admit'
p431
aS'its'
p432
aS'not'
p433
aS'the'
p434
aS'best'
p435
aS'looking'
p436
aS'phone'
p437
aS'ever'
p438
aS'but'
p439
aS'then'
p440
aS'it'
p441
aS'has'
p442
aS'this'
p443
aS'look'
p444
aS'of'
p445
aS'static'
p446
aS'and'
p447
aS'absolute'
p448
aS'conviction'
p449
aS'that'
p450
aS'looks'
p451
aS'like'
p452
aS'everything'
p453
ag34
aS'phone'
p454
aS'should'
p455
aS'be'
p456
ag16
tp457
a((lp458
S'3.'
p459
aS'The'
p460
aS'Nokia'
p461
aS'6600'
p462
aS'has'
p463
ag34
aS'brilliant'
p464
aS'Java'
p465
aS'interface.'
p466
ag16
tp467
a((lp468
S"There's"
p469
ag34
aS'whole'
p470
aS'lot'
p471
aS'of'
p472
aS'things'
p473
aS'you'
p474
aS'can'
p475
aS'do'
p476
aS'with'
p477
aS'this'
p478
aS'phone'
p479
aS'besides'
p480
aS'reading'
p481
ag34
aS'book'
p482
ag379
aS'playing'
p483
aS'various'
p484
aS'Java'
p485
aS'games'
p486
ag379
aS'having'
p487
ag34
aS'variety'
p488
aS'of'
p489
aS'software'
p490
aS'installed.'
p491
ag57
tp492
a((lp493
S'The'
p494
aS'Phone'
p495
aS'offers'
p496
ag34
aS'32'
p497
aS'Mb'
p498
aS'MMC'
p499
aS'card'
p500
aS'and'
p501
ag12
aS'think'
p502
aS'that'
p503
aS'is'
p504
aS'certainly'
p505
aS'the'
p506
aS'most'
p507
aS'exciting'
p508
aS'feature.'
p509
ag16
tp510
a((lp511
g12
aS'upgraded'
p512
aS'mine'
p513
aS'to'
p514
ag34
aS'128'
p515
aS'MB'
p516
aS'MMC'
p517
aS'Card'
p518
aS'via'
p519
aS'which'
p520
ag12
aS'can'
p521
aS'store'
p522
aS'unlimited'
p523
aS'number'
p524
aS'of'
p525
aS'messages,'
p526
aS'take'
p527
ag34
aS'thousand'
p528
aS'pictures'
p529
aS'and'
p530
aS'videos.'
p531
ag57
tp532
a((lp533
S'Capacity'
p534
aS'is'
p535
aS'not'
p536
ag34
aS'problem'
p537
aS'here.'
p538
ag16
tp539
a((lp540
S'4.'
p541
aS'The'
p542
aS'Build'
p543
aS'is'
p544
aS'just'
p545
aS'right.'
p546
ag16
tp547
a((lp548
S'The'
p549
aS'phone'
p550
aS'is'
p551
aS'sturdy.'
p552
ag16
tp553
a((lp554
S"I've"
p555
aS'dropped'
p556
aS'it'
p557
aS'atleast'
p558
ag34
aS'dozen'
p559
aS'times'
p560
aS'to'
p561
aS'my'
p562
aS'recolletion'
p563
aS'and'
p564
aS'it'
p565
aS'still'
p566
aS'works'
p567
aS'as'
p568
aS'good'
p569
aS'as'
p570
aS'ever.'
p571
ag16
tp572
a((lp573
S'Its'
p574
ag34
aS'tough'
p575
aS'one'
p576
aS'this'
p577
aS'unless'
p578
aS'you'
p579
aS'wanna'
p580
aS'drive'
p581
aS'your'
p582
aS'car'
p583
aS'over'
p584
aS'it.'
p585
ag16
tp586
a((lp587
S'This'
p588
aS"isn't"
p589
aS'the'
p590
aS'most'
p591
aS'rugged'
p592
aS'phone'
p593
aS'ever'
p594
aS'but'
p595
aS'then'
p596
aS'your'
p597
aS'not'
p598
aS'gonna'
p599
aS'play'
p600
aS'aeroplane'
p601
aS'with'
p602
aS'this,are'
p603
aS'you.'
p604
ag16
tp605
a((lp606
S'5.The'
p607
aS'Camera'
p608
aS'installed'
p609
aS'on'
p610
aS'this'
p611
aS'phone'
p612
aS'is'
p613
aS'awesome.'
p614
ag16
tp615
a((lp616
g12
aS'click'
p617
aS'pictures'
p618
aS'in'
p619
aS'JPG'
p620
aS'format'
p621
aS'and'
p622
aS'because'
p623
aS'the'
p624
aS'phone'
p625
aS'has'
p626
ag34
aS'bluetooth'
p627
aS'device'
p628
ag12
aS'find'
p629
aS'it'
p630
aS'extremely'
p631
aS'easy'
p632
aS'to'
p633
aS'transfer'
p634
aS'pics'
p635
aS'to'
p636
aS'my'
p637
aS'pc'
p638
aS'and'
p639
aS'forth.'
p640
ag16
tp641
a((lp642
S'The'
p643
aS'display'
p644
aS'and'
p645
aS'brightness'
p646
aS'on'
p647
aS'this'
p648
aS'phone'
p649
aS'is'
p650
aS'quite'
p651
aS'extraordinary.'
p652
ag16
tp653
a((lp654
S'The'
p655
aS'use'
p656
aS'of'
p657
aS'65536'
p658
aS'(16bit)'
p659
aS'colors'
p660
aS'ensures'
p661
aS'you'
p662
aS'get'
p663
aS'your'
p664
aS'share'
p665
aS'of'
p666
aS'animations'
p667
aS'and'
p668
aS'icons'
p669
aS'on'
p670
aS'your'
p671
aS'phone'
p672
ag16
tp673
a((lp674
S'Besides'
p675
aS'the'
p676
aS'above'
p677
aS'mentioned'
p678
aS'Merits'
p679
ag379
aS'the'
p680
aS'phone'
p681
aS'has'
p682
aS'decent'
p683
aS'ear'
p684
aS'volume'
p685
aS'and'
p686
aS'loudspeaker'
p687
aS'functionality.'
p688
ag57
tp689
a((lp690
S'It'
p691
aS'has'
p692
aS'great'
p693
aS'upgradibility.'
p694
ag16
tp695
a((lp696
g12
aS'can'
p697
aS'play'
p698
aS'MP3'
p699
aS'files'
p700
aS'on'
p701
aS'my'
p702
aS'phone'
p703
aS'by'
p704
aS'simply'
p705
aS'downloading'
p706
aS'softwares'
p707
aS'freely'
p708
aS'available'
p709
aS'on'
p710
aS'the'
p711
aS'net.'
p712
ag57
tp713
a((lp714
S'Now'
p715
aS'that'
p716
aS'is'
p717
aS'neat.'
p718
ag57
tp719
a((lp720
S'The'
p721
aS'log'
p722
aS'functions'
p723
aS'helps'
p724
aS'you'
p725
aS'track'
p726
aS'down'
p727
aS'the'
p728
aS'incoming'
p729
ag379
aS'outgoing'
p730
aS'calls'
p731
aS'in'
p732
aS'the'
p733
aS'most'
p734
aS'easy'
p735
aS'of'
p736
aS'ways.'
p737
ag16
tp738
a((lp739
S'The'
p740
aS'handsfree'
p741
aS'provided'
p742
aS'by'
p743
aS'the'
p744
aS'phone'
p745
aS'is'
p746
aS'useful'
p747
aS'for'
p748
aS'those'
p749
aS'who'
p750
aS'talk'
p751
aS'on'
p752
aS'the'
p753
aS'phone'
p754
aS'while'
p755
aS'driving.'
p756
ag16
tp757
a((lp758
g12
aS"wouldn't"
p759
aS'do'
p760
aS'that'
p761
aS'because'
p762
aS"it's"
p763
aS'not'
p764
aS'worth'
p765
aS'my'
p766
aS'life.'
p767
ag57
tp768
a((lp769
S'Anyhow'
p770
aS'some'
p771
aS'demerits'
p772
aS'of'
p773
aS'this'
p774
aS'phone,'
p775
aS'The'
p776
aS'phone'
p777
aS'has'
p778
ag34
aS'slow'
p779
aS'processor'
p780
aS'and'
p781
aS'the'
p782
aS'ear'
p783
aS'volume'
p784
aS'is'
p785
aS'lower'
p786
aS'than'
p787
aS'6610'
p788
aS'but'
p789
aS'then'
p790
aS'the'
p791
aS'6610'
p792
aS'has'
p793
aS'the'
p794
aS'best'
p795
aS'ear'
p796
aS'volume'
p797
aS'among'
p798
aS'most'
p799
aS'Nokia'
p800
aS'variants.'
p801
ag28
tp802
a((lp803
S'The'
p804
aS'battery'
p805
aS'life'
p806
aS'of'
p807
aS'this'
p808
aS'phone'
p809
aS'is'
p810
aS'at'
p811
aS'most'
p812
ag8
aS'days'
p813
aS'and'
p814
aS'at'
p815
aS'least'
p816
aS'one'
p817
aS'day'
p818
aS'at'
p819
aS'excessive'
p820
aS'use.'
p821
ag28
tp822
a((lp823
S'Video'
p824
aS'recording'
p825
aS'is'
p826
aS'limited'
p827
aS'at'
p828
aS'just'
p829
aS'9'
p830
aS'seconds.'
p831
ag28
tp832
a((lp833
S'You'
p834
aS'can'
p835
aS'upgrade'
p836
aS'but'
p837
aS'then'
p838
aS"there's"
p839
ag34
aS'certain'
p840
aS'level'
p841
aS'of'
p842
aS'trouble'
p843
aS'involved.'
p844
ag28
tp845
a((lp846
S'Overall'
p847
ag12
aS'dont'
p848
aS'think'
p849
ag12
aS'will'
p850
aS'ever'
p851
aS'upgrade'
p852
aS'from'
p853
aS'this'
p854
aS'phone.'
p855
ag57
tp856
a((lp857
S'When'
p858
ag12
aS'purchased'
p859
aS'this'
p860
aS'phone'
p861
ag379
ag12
aS'thought'
p862
aS'to'
p863
aS'myself'
p864
aS'that'
p865
ag12
aS'had'
p866
aS'purchased'
p867
aS'the'
p868
aS'most'
p869
aS'popular'
p870
aS'phone'
p871
aS'around'
p872
aS'and'
p873
aS'the'
p874
aS'thought'
p875
aS"didn't"
p876
aS'please'
p877
aS'me.'
p878
ag57
tp879
a((lp880
S'In'
p881
aS'any'
p882
aS'case'
p883
ag379
aS'putting'
p884
aS'aside'
p885
aS'how'
p886
aS'common'
p887
aS'it'
p888
aS'is'
p889
aS'in'
p890
aS'my'
p891
aS'city'
p892
ag379
ag12
aS'dont'
p893
aS'think'
p894
ag12
aS'can'
p895
aS'be'
p896
aS'anymore'
p897
aS'satisfied.'
p898
ag57
tp899
a((lp900
S'This'
p901
aS'makes'
p902
aS'for'
p903
ag34
aS'great'
p904
aS'phone.'
p905
ag16
tp906
a((lp907
S'Did'
p908
ag12
aS'mention'
p909
aS'the'
p910
aS'note'
p911
aS'feature'
p912
aS'and'
p913
aS'how'
p914
aS'you'
p915
aS'can'
p916
aS'send'
p917
aS'notes'
p918
aS'via'
p919
aS'Bluetooth?'
p920
ag57
tp921
a((lp922
S'gee'
p923
aS'anyways'
p924
aS'ENJOY'
p925
aS'WHAT'
p926
aS'WORKS!'
p927
ag57
tp928
a((lp929
S"I've"
p930
aS'had'
p931
aS"Nokia's"
p932
aS'for'
p933
aS'years,'
p934
aS'and'
p935
aS'while'
p936
aS'this'
p937
aS'one'
p938
aS'is'
p939
aS'packed'
p940
aS'with'
p941
aS'whiz'
p942
aS'bang'
p943
aS'features'
p944
aS'it'
p945
aS'is'
p946
aS'disappointing'
p947
aS'for'
p948
aS'its'
p949
aS'primary'
p950
aS'use'
p951
aS'-'
p952
ag34
aS'phone.'
p953
ag28
tp954
a((lp955
S'Before'
p956
aS'buying,'
p957
aS"I'd"
p958
aS'urge'
p959
aS'you'
p960
aS'to'
p961
aS'actually'
p962
aS'use'
p963
aS'one'
p964
aS'and'
p965
aS'not'
p966
aS'just'
p967
aS'handle'
p968
aS'it'
p969
aS'in'
p970
aS'the'
p971
aS'store.'
p972
ag57
tp973
a((lp974
S'On'
p975
aS'the'
p976
aS'plus'
p977
aS'side'
p978
aS"it's"
p979
aS'packed'
p980
aS'with'
p981
aS'features,'
p982
aS'including'
p983
aS'BlueTooth'
p984
aS'that'
p985
aS'works'
p986
aS'fine'
p987
ag952
aS"it's"
p988
aS'really'
p989
ag34
aS'tiny'
p990
aS'computer'
p991
aS'that'
p992
aS'is'
p993
aS'also'
p994
ag34
aS'phone...'
p995
aS'and'
p996
aS"that's"
p997
aS'the'
p998
aS'negative.'
p999
ag28
tp1000
a((lp1001
S'As'
p1002
ag34
aS'computer,'
p1003
aS'or'
p1004
aS'PDA'
p1005
aS'its'
p1006
aS'weak'
p1007
aS'since'
p1008
aS'the'
p1009
aS'screen,'
p1010
aS'while'
p1011
aS'large'
p1012
aS'by'
p1013
aS'phone'
p1014
aS'standards,'
p1015
aS'is'
p1016
aS'still'
p1017
aS'tiny'
p1018
aS'to'
p1019
aS'really'
p1020
aS'do'
p1021
aS'anything'
p1022
aS'on.'
p1023
ag28
tp1024
a((lp1025
S'And'
p1026
aS'remember,'
p1027
aS'this'
p1028
aS'is'
p1029
ag34
aS'PHONE'
p1030
aS'first'
p1031
aS'and'
p1032
aS'foremost'
p1033
aS'which'
p1034
aS'is'
p1035
aS'where'
p1036
ag12
aS'have'
p1037
aS'my'
p1038
aS'biggest'
p1039
aS'complaints...'
p1040
ag57
tp1041
a((lp1042
S'When'
p1043
aS'you'
p1044
aS'dial'
p1045
ag34
aS'number,'
p1046
aS"you'll"
p1047
aS'need'
p1048
aS'to'
p1049
aS'check'
p1050
aS'the'
p1051
aS'screen'
p1052
aS'to'
p1053
aS'see'
p1054
aS'that'
p1055
aS'the'
p1056
aS'number'
p1057
aS'entered'
p1058
aS'is'
p1059
aS'correct.'
p1060
ag28
tp1061
a((lp1062
S"You'll"
p1063
aS'do'
p1064
aS'that'
p1065
aS'because'
p1066
aS'the'
p1067
aS'keys'
p1068
aS'are'
p1069
aS'tightly'
p1070
aS'packed'
p1071
aS'in'
p1072
aS'and'
p1073
aS'your'
p1074
aS'fingers'
p1075
aS'will'
p1076
aS'likely'
p1077
aS'press'
p1078
aS'two'
p1079
aS'keys'
p1080
aS'at'
p1081
aS'once.'
p1082
ag28
tp1083
a((lp1084
g12
aS'hope'
p1085
aS'you'
p1086
aS'have'
p1087
ag34
aS'magnifying'
p1088
aS'glass,'
p1089
aS'because'
p1090
aS'the'
p1091
aS'number'
p1092
aS'displayed'
p1093
aS'as'
p1094
aS'well'
p1095
aS'as'
p1096
aS'most'
p1097
aS'of'
p1098
aS'the'
p1099
aS'pop'
p1100
aS'up'
p1101
aS'options'
p1102
aS'are'
p1103
aS'tiny.'
p1104
ag28
tp1105
a((lp1106
S"It's"
p1107
aS'as'
p1108
aS'though'
p1109
aS'Nokia'
p1110
aS'has'
p1111
aS'segregated'
p1112
aS'90%'
p1113
aS'of'
p1114
aS'the'
p1115
aS'screen'
p1116
aS'for'
p1117
aS'fancy'
p1118
aS'features'
p1119
aS'rarely'
p1120
aS'used'
p1121
aS'and'
p1122
aS'leave'
p1123
aS'just'
p1124
aS'10%'
p1125
aS'for'
p1126
aS'the'
p1127
aS'day'
p1128
aS'to'
p1129
aS'day'
p1130
aS'use.'
p1131
ag28
tp1132
a((lp1133
S"I've"
p1134
aS'have'
p1135
aS'many'
p1136
aS"Nokia's"
p1137
aS'and'
p1138
aS'while'
p1139
aS'this'
p1140
aS'is'
p1141
aS'the'
p1142
aS'best'
p1143
aS'for'
p1144
aS'features,'
p1145
aS"it's"
p1146
aS'the'
p1147
aS'worst'
p1148
aS'as'
p1149
ag34
aS'phone.'
p1150
ag28
tp1151
a((lp1152
S'Sorry,'
p1153
aS'try'
p1154
aS'something'
p1155
aS'else'
p1156
aS'or'
p1157
aS'at'
p1158
aS'least'
p1159
aS'trying'
p1160
aS'using'
p1161
aS'one.'
p1162
ag57
tp1163
a((lp1164
S"You'll"
p1165
aS'see'
p1166
aS'what'
p1167
ag12
aS'mean'
p1168
aS'...'
p1169
aS'if'
p1170
aS'you'
p1171
aS'have'
p1172
ag34
aS'magnifying'
p1173
aS'glass.'
p1174
ag57
tp1175
a((lp1176
S'This'
p1177
aS'phone'
p1178
aS'is'
p1179
aS'flashy'
p1180
aS'and'
p1181
aS'feels'
p1182
aS'good'
p1183
aS'in'
p1184
aS'the'
p1185
aS'hand,'
p1186
aS'but'
p1187
aS'it'
p1188
aS'could'
p1189
aS'not'
p1190
aS'hold'
p1191
ag34
aS'connection'
p1192
aS'to'
p1193
aS'any'
p1194
aS'of'
p1195
aS'my'
p1196
aS'bluetooth'
p1197
aS'devices'
p1198
aS'(headset,'
p1199
aS'handheld,'
p1200
aS'or'
p1201
aS'desktop'
p1202
aS'computer).'
p1203
ag57
tp1204
a((lp1205
S'My'
p1206
aS'old'
p1207
aS'Siemens'
p1208
aS's56,'
p1209
aS'on'
p1210
aS'the'
p1211
aS'other'
p1212
aS'hand,'
p1213
aS'worked'
p1214
aS'beautifully'
p1215
aS'with'
p1216
aS'all'
p1217
aS'of'
p1218
aS'the'
p1219
aS'above.'
p1220
ag28
tp1221
a((lp1222
S"Don't"
p1223
aS'get'
p1224
aS'me'
p1225
aS'wrong.'
p1226
ag57
tp1227
a((lp1228
g12
aS'love'
p1229
aS'gadgets,'
p1230
aS'technology'
p1231
aS'and'
p1232
aS'whatever'
p1233
aS'electronic'
p1234
aS'equipment'
p1235
aS'you'
p1236
aS'throw'
p1237
aS'my'
p1238
aS'way.'
p1239
ag57
tp1240
a((lp1241
S"I've"
p1242
aS'gone'
p1243
aS'from'
p1244
aS'almost'
p1245
aS'every'
p1246
aS'Nokia'
p1247
aS'phone'
p1248
aS'since'
p1249
aS'they'
p1250
aS'were'
p1251
aS'only'
p1252
aS'known'
p1253
aS'and'
p1254
aS'operational'
p1255
aS'in'
p1256
aS'Europe.'
p1257
ag57
tp1258
a((lp1259
S'In'
p1260
aS'those'
p1261
aS'days'
p1262
aS"I've"
p1263
aS'gone'
p1264
aS'from'
p1265
aS'Oki,'
p1266
aS'Motorolla'
p1267
aS'and'
p1268
aS'progressed'
p1269
aS'(actually'
p1270
aS'regressed)'
p1271
aS'to'
p1272
aS'Sony'
p1273
aS"Ericsson's"
p1274
aS'T610.'
p1275
ag57
tp1276
a((lp1277
S'Now'
p1278
aS"I'm"
p1279
aS'back'
p1280
aS'to'
p1281
aS'Nokia'
p1282
aS'to'
p1283
aS'try'
p1284
aS'their'
p1285
aS'6600'
p1286
aS'model.'
p1287
ag57
tp1288
a((lp1289
S'who'
p1290
aS'in'
p1291
aS'the'
p1292
aS'hell'
p1293
aS'needs'
p1294
ag34
aS'frigging'
p1295
aS'*VGA*'
p1296
aS'camera'
p1297
aS'on'
p1298
aS'their'
p1299
aS'CELLPHONE???'
p1300
ag28
tp1301
a((lp1302
S'What'
p1303
aS'is'
p1304
aS'that,'
p1305
aS'.00000001'
p1306
aS'megapixel'
p1307
aS'quality?'
p1308
ag57
tp1309
a((lp1310
S'Ha!'
p1311
ag57
tp1312
a((lp1313
S'i'
p1314
aS'bought'
p1315
aS'this'
p1316
aS'phone'
p1317
aS'last'
p1318
aS'march,'
p1319
aS'almost'
p1320
ag34
aS'year'
p1321
aS'ago,'
p1322
aS'in'
p1323
aS'saudi'
p1324
aS'arabia'
p1325
aS'(it'
p1326
aS'came'
p1327
aS'out'
p1328
aS'there'
p1329
aS'before'
p1330
aS'it'
p1331
aS'did'
p1332
aS'here).'
p1333
ag57
tp1334
a((lp1335
S'since'
p1336
aS'then,'
p1337
ag1314
aS'have'
p1338
aS'not'
p1339
aS'found'
p1340
aS'one'
p1341
aS'major'
p1342
aS'problem'
p1343
aS'with'
p1344
aS'it.'
p1345
ag16
tp1346
a((lp1347
g1314
aS'highly'
p1348
aS'recommend'
p1349
aS'it'
p1350
aS'if'
p1351
aS'you'
p1352
aS'are'
p1353
aS'looking'
p1354
aS'for'
p1355
ag34
aS'phone'
p1356
aS'with'
p1357
aS'great'
p1358
aS'camera'
p1359
aS'quality'
p1360
aS'and/or'
p1361
aS'lots'
p1362
aS'of'
p1363
aS'features'
p1364
aS'you'
p1365
aS'would'
p1366
aS'find'
p1367
aS'in'
p1368
ag34
aS'PDA.'
p1369
ag16
tp1370
a((lp1371
S'Sure,'
p1372
aS'it'
p1373
aS'is'
p1374
ag34
aS'relatively'
p1375
aS'bulky,'
p1376
aS'but'
p1377
aS'it'
p1378
aS'is'
p1379
aS'really'
p1380
aS'packed'
p1381
aS'with'
p1382
aS'many'
p1383
aS'great'
p1384
aS'features.'
p1385
ag57
tp1386
a((lp1387
g12
aS'own'
p1388
aS'this'
p1389
aS'phone'
p1390
aS'for'
p1391
aS'about'
p1392
aS'6'
p1393
aS'months'
p1394
aS'now,'
p1395
ag12
aS'have'
p1396
aS'used'
p1397
aS'the'
p1398
aS'following'
p1399
aS'features:'
p1400
aS'bluetooth'
p1401
aS'connection'
p1402
aS'to'
p1403
aS'laptop'
p1404
aS'and'
p1405
aS'desktop'
p1406
aS'for'
p1407
aS'sync'
p1408
aS'contacts'
p1409
aS'and'
p1410
aS'calendars'
p1411
aS'with'
p1412
aS'Outlook,'
p1413
aS'transfer'
p1414
aS'files'
p1415
aS'(movies,'
p1416
aS'songs),'
p1417
ag12
aS'have'
p1418
aS'many'
p1419
aS'movies'
p1420
aS'on'
p1421
aS'it'
p1422
aS'now'
p1423
aS'with'
p1424
ag34
aS'512MB'
p1425
aS'memory'
p1426
aS'card'
p1427
aS'that'
p1428
aS'it'
p1429
aS'takes.'
p1430
ag16
tp1431
a((lp1432
S'Bought'
p1433
ag34
aS'bluetooth'
p1434
aS'headset'
p1435
aS'and'
p1436
aS'it'
p1437
aS'works'
p1438
aS'like'
p1439
ag34
aS'wonder.'
p1440
ag57
tp1441
a((lp1442
S'Handsfree'
p1443
aS'future'
p1444
aS'is'
p1445
aS'good,'
p1446
aS'but'
p1447
aS'not'
p1448
aS'too'
p1449
aS'exciting.'
p1450
ag16
tp1451
a((lp1452
S'Camera'
p1453
aS'is'
p1454
aS'nice,'
p1455
aS'and'
p1456
aS'video'
p1457
aS'recording'
p1458
aS'for'
p1459
aS'some'
p1460
aS'reason'
p1461
aS'is'
p1462
aS'only'
p1463
aS'limited'
p1464
aS'to'
p1465
ag830
aS'seconds.'
p1466
ag57
tp1467
a((lp1468
S'Only'
p1469
aS'thing'
p1470
ag12
aS"don't"
p1471
aS'like'
p1472
aS'about'
p1473
aS'it'
p1474
aS'is'
p1475
aS'slow'
p1476
aS'in'
p1477
aS'changing'
p1478
aS'apps,'
p1479
aS'boot'
p1480
aS'up,'
p1481
aS'and'
p1482
aS'sometime'
p1483
aS'it'
p1484
aS'has'
p1485
aS'problem'
p1486
aS'connect'
p1487
aS'thru'
p1488
aS'bluetooth.'
p1489
ag28
tp1490
a((lp1491
S'This'
p1492
aS'one'
p1493
aS'has'
p1494
ag34
aS'good'
p1495
aS'looking.'
p1496
ag16
tp1497
a((lp1498
S"It's"
p1499
aS'oval'
p1500
aS'and...'
p1501
aS'nice.'
p1502
ag16
tp1503
a((lp1504
g12
aS'like'
p1505
aS"it's"
p1506
aS'shape'
p1507
aS'and'
p1508
aS"it's"
p1509
aS'keypad'
p1510
aS'and'
p1511
aS'joystick.'
p1512
ag16
tp1513
a((lp1514
S"It's"
p1515
aS'easy'
p1516
aS'to'
p1517
aS'use.'
p1518
aS'Not'
p1519
aS'too'
p1520
aS'small,'
p1521
aS'and'
p1522
aS'not'
p1523
aS'too'
p1524
aS'big.'
p1525
ag16
tp1526
a((lp1527
S'The'
p1528
aS'screen'
p1529
aS'is'
p1530
aS'quite'
p1531
aS'big'
p1532
aS'(between'
p1533
aS'all'
p1534
aS'handphone),'
p1535
aS'but'
p1536
aS'the'
p1537
aS'just'
p1538
aS'about'
p1539
aS'65000'
p1540
aS'color.'
p1541
ag16
tp1542
a((lp1543
S'And,'
p1544
aS'other'
p1545
aS'else,'
p1546
aS'the'
p1547
aS'camera'
p1548
aS'is'
p1549
aS'still'
p1550
aS'VGA.'
p1551
ag28
tp1552
a((lp1553
g12
aS'must'
p1554
aS'say,'
p1555
aS'this'
p1556
aS'one'
p1557
aS'is'
p1558
aS'quite'
p1559
aS'slow'
p1560
aS'to'
p1561
aS'open'
p1562
aS'an'
p1563
aS'application.'
p1564
ag28
tp1565
a((lp1566
S'Sometimes,'
p1567
aS'it'
p1568
aS'needs'
p1569
aS'few'
p1570
aS'minutes'
p1571
aS'to'
p1572
aS'open'
p1573
aS'an'
p1574
aS'application.'
p1575
ag28
tp1576
a((lp1577
S"What's"
p1578
aS'wrong'
p1579
aS'with'
p1580
aS'it?'
p1581
ag57
tp1582
a((lp1583
S'Is'
p1584
aS'it'
p1585
aS'really'
p1586
aS'slow,'
p1587
aS'or'
p1588
aS'what?'
p1589
ag57
tp1590
a((lp1591
S'Few'
p1592
aS'month'
p1593
aS'ago,'
p1594
aS"it's"
p1595
aS'very'
p1596
aS'popular'
p1597
aS'among'
p1598
aS'my'
p1599
aS'community.'
p1600
ag16
tp1601
a((lp1602
S"It's"
p1603
aS'good.'
p1604
ag16
tp1605
a((lp1606
S'But'
p1607
aS'not'
p1608
aS'good'
p1609
aS'enough'
p1610
aS'for'
p1611
aS'me.'
p1612
ag28
tp1613
a((lp1614
S':!'
p1615
aS'OK,'
p1616
aS'score'
p1617
aS'7.0'
p1618
aS'Oh'
p1619
aS'yes,'
p1620
aS'the'
p1621
aS'newest'
p1622
aS'color'
p1623
aS'of'
p1624
aS'this'
p1625
aS'phone'
p1626
aS'is'
p1627
aS'quite'
p1628
aS'cool.'
p1629
ag16
tp1630
a((lp1631
g12
aS'have'
p1632
aS'overall'
p1633
aS'been'
p1634
aS'disappointed'
p1635
aS'with'
p1636
aS'Nokia'
p1637
aS'in'
p1638
aS'the'
p1639
aS'past,'
p1640
aS'finding'
p1641
aS'that'
p1642
aS'Samsung'
p1643
aS'and'
p1644
aS'Motorola'
p1645
aS'tended'
p1646
aS'to'
p1647
aS'have'
p1648
aS'better'
p1649
aS'quality'
p1650
aS'phones.'
p1651
ag28
tp1652
a((lp1653
S'While'
p1654
aS'this'
p1655
aS'phone'
p1656
aS'obviously'
p1657
aS"doesn't"
p1658
aS'have'
p1659
aS'the'
p1660
aS'same'
p1661
aS'quality'
p1662
aS'construction'
p1663
aS'as'
p1664
aS'Motorola'
p1665
aS'does,'
p1666
aS'the'
p1667
aS'Nokia'
p1668
aS'6600'
p1669
aS'is'
p1670
aS'one'
p1671
aS'of'
p1672
aS'the'
p1673
aS'better'
p1674
aS'phones'
p1675
aS"I've"
p1676
aS'used.'
p1677
ag16
tp1678
a((lp1679
S'What'
p1680
aS'makes'
p1681
aS'it'
p1682
aS'so'
p1683
aS'great'
p1684
aS'is'
p1685
aS'the'
p1686
aS'versatility'
p1687
aS'and'
p1688
aS'the'
p1689
aS'number'
p1690
aS'of'
p1691
aS'features'
p1692
aS'it'
p1693
aS'has.'
p1694
ag16
tp1695
a((lp1696
S'The'
p1697
aS'best'
p1698
aS'features'
p1699
aS'that'
p1700
ag12
aS'use'
p1701
aS'most'
p1702
aS'often'
p1703
aS'are:'
p1704
ag57
tp1705
a((lp1706
S'1)'
p1707
aS'Great'
p1708
aS'audio'
p1709
aS'quality'
p1710
aS'overall.'
p1711
ag16
tp1712
a((lp1713
S'Handset'
p1714
aS'quality'
p1715
aS'is'
p1716
aS'great,'
p1717
aS'as'
p1718
aS'is'
p1719
aS'the'
p1720
aS'speakerphone'
p1721
aS'quality'
p1722
aS'and'
p1723
aS'the'
p1724
aS'headset'
p1725
aS'audio'
p1726
aS'quality.'
p1727
ag16
tp1728
a((lp1729
S'2)'
p1730
aS'Camera'
p1731
aS'phone.'
p1732
ag57
tp1733
a((lp1734
S'A'
p1735
aS'decent'
p1736
aS'camera'
p1737
aS'phone'
p1738
aS'for'
p1739
aS'taking'
p1740
aS'quick'
p1741
aS'pictures,'
p1742
aS'movies,'
p1743
aS'and'
p1744
aS'having'
p1745
aS'general'
p1746
aS'all'
p1747
aS'around'
p1748
aS'fun'
p1749
aS'with.'
p1750
ag16
tp1751
a((lp1752
S'3)'
p1753
aS'The'
p1754
aS'joystick'
p1755
aS'design'
p1756
aS'they'
p1757
aS'are'
p1758
aS'using'
p1759
aS'on'
p1760
aS'the'
p1761
aS'new'
p1762
aS'Nokias'
p1763
aS'gives'
p1764
aS'you'
p1765
ag34
aS'great'
p1766
aS'degree'
p1767
aS'of'
p1768
aS'control.'
p1769
ag16
tp1770
a((lp1771
S'The'
p1772
aS'only'
p1773
aS'problem'
p1774
aS'is'
p1775
aS'that'
p1776
aS'occasionally'
p1777
aS'the'
p1778
aS'joystick'
p1779
aS'does'
p1780
aS'start'
p1781
aS'to'
p1782
aS'dig'
p1783
aS'into'
p1784
aS'your'
p1785
aS'thumb'
p1786
aS'while'
p1787
aS'gaming.'
p1788
ag28
tp1789
a((lp1790
S'4)'
p1791
aS'One'
p1792
aS'nice'
p1793
aS'thing'
p1794
aS'about'
p1795
aS'Nokias'
p1796
aS'is'
p1797
aS'that'
p1798
aS'they'
p1799
aS'have'
p1800
ag34
aS'ton'
p1801
aS'of'
p1802
aS'ring'
p1803
aS'tone'
p1804
aS'and'
p1805
aS'game'
p1806
aS'choices.'
p1807
ag16
tp1808
a((lp1809
S'If'
p1810
aS'you'
p1811
aS'love'
p1812
aS'your'
p1813
aS'cell'
p1814
aS'phone'
p1815
aS'games'
p1816
aS'or'
p1817
aS'changing'
p1818
aS'your'
p1819
aS'ring'
p1820
aS'tones'
p1821
aS'everyday,'
p1822
aS'Nokia'
p1823
aS'beats'
p1824
aS'everyone'
p1825
aS'else.'
p1826
ag16
tp1827
a((lp1828
S'5)'
p1829
aS'Bluetooth'
p1830
aS'wireless'
p1831
aS'technology,'
p1832
aS'so'
p1833
aS'that'
p1834
ag12
aS'can'
p1835
aS'transfer'
p1836
aS'data'
p1837
aS'to'
p1838
aS'and'
p1839
aS'from'
p1840
aS'my'
p1841
aS'computer'
p1842
aS'without'
p1843
aS'messing'
p1844
aS'with'
p1845
aS'any'
p1846
aS'cables.'
p1847
ag16
tp1848
a((lp1849
S'This'
p1850
aS'is'
p1851
aS'great'
p1852
aS'for'
p1853
aS'putting'
p1854
aS'photos'
p1855
aS'and'
p1856
aS'memos'
p1857
aS'on'
p1858
aS'the'
p1859
aS'computer'
p1860
aS'and'
p1861
aS'transferring'
p1862
aS'calander'
p1863
aS'data'
p1864
aS'to'
p1865
aS'my'
p1866
aS'phone.'
p1867
ag57
tp1868
a((lp1869
S'6)'
p1870
aS'The'
p1871
aS'phone'
p1872
aS'is'
p1873
aS'really'
p1874
aS'wide,'
p1875
aS'which'
p1876
aS'seems'
p1877
aS'to'
p1878
aS'be'
p1879
ag34
aS'turnoff'
p1880
aS'for'
p1881
aS'many'
p1882
aS'people,'
p1883
aS'but'
p1884
aS'the'
p1885
aS'phone'
p1886
aS'is'
p1887
aS'actually'
p1888
aS'easier'
p1889
aS'to'
p1890
aS'grip'
p1891
aS'and'
p1892
aS'feel'
p1893
aS'more'
p1894
aS'ergonomic.'
p1895
ag16
tp1896
a((lp1897
g12
aS'feel'
p1898
aS'much'
p1899
aS'less'
p1900
aS'likely'
p1901
aS'to'
p1902
aS'drop'
p1903
aS'this'
p1904
aS'phone'
p1905
aS'than'
p1906
aS'others,'
p1907
aS'which'
p1908
aS'are'
p1909
aS'actually'
p1910
aS'starting'
p1911
aS'to'
p1912
aS'get'
p1913
aS'too'
p1914
aS'small.'
p1915
ag16
tp1916
a((lp1917
S'You'
p1918
aS'will'
p1919
aS'probably'
p1920
aS'have'
p1921
aS'to'
p1922
aS'get'
p1923
ag34
aS'belt'
p1924
aS'clip'
p1925
aS'for'
p1926
aS'it,'
p1927
aS'however,'
p1928
aS'unless'
p1929
aS'you'
p1930
aS'wear'
p1931
aS'the'
p1932
aS'pants'
p1933
aS'with'
p1934
aS'the'
p1935
aS'cargo'
p1936
aS'pockets.'
p1937
ag57
tp1938
a((lp1939
S'My'
p1940
aS'biggest'
p1941
aS'concern'
p1942
aS'is'
p1943
aS'that'
p1944
ag12
aS'have'
p1945
aS'found'
p1946
aS'Nokia'
p1947
aS'phones'
p1948
aS'lower'
p1949
aS'quality'
p1950
aS'construction'
p1951
aS'to'
p1952
aS'lead'
p1953
aS'to'
p1954
aS'lower'
p1955
aS'prices,'
p1956
aS'but'
p1957
aS'they'
p1958
aS'also'
p1959
aS"don't"
p1960
aS'last'
p1961
aS'as'
p1962
aS'long.'
p1963
ag28
tp1964
a((lp1965
g12
aS'can'
p1966
aS'tell'
p1967
aS'using'
p1968
aS'the'
p1969
aS'phone'
p1970
aS'that'
p1971
aS'it'
p1972
aS'feels'
p1973
ag34
aS'little'
p1974
aS'flimsier'
p1975
aS'than'
p1976
aS'Motorolas'
p1977
aS'do,'
p1978
aS'but'
p1979
aS'as'
p1980
aS'long'
p1981
aS'as'
p1982
aS"I'm"
p1983
aS'not'
p1984
aS'planning'
p1985
aS'on'
p1986
aS'dropping'
p1987
aS'the'
p1988
aS'phone'
p1989
aS'or'
p1990
aS'running'
p1991
aS'over'
p1992
aS'it'
p1993
aS'with'
p1994
aS'my'
p1995
aS'car'
p1996
aS'it'
p1997
aS'should'
p1998
aS'be'
p1999
aS'just'
p2000
aS'fine.'
p2001
ag16
tp2002
a((lp2003
g12
aS"wouldn't"
p2004
aS'use'
p2005
aS'it'
p2006
aS'for'
p2007
aS'business'
p2008
aS'purposes'
p2009
aS'and'
p2010
aS'hand'
p2011
aS'one'
p2012
aS'out'
p2013
aS'to'
p2014
aS'all'
p2015
aS'my'
p2016
aS'employees,'
p2017
aS'because'
p2018
aS'you'
p2019
aS'tend'
p2020
aS'to'
p2021
aS'want'
p2022
ag34
aS'little'
p2023
aS'more'
p2024
aS'rugged'
p2025
ag34
aS'phone'
p2026
aS'for'
p2027
aS'that.'
p2028
ag57
tp2029
a((lp2030
S'Other'
p2031
aS'than'
p2032
aS'that'
p2033
aS'it'
p2034
aS'meets'
p2035
aS'or'
p2036
aS'surpasses'
p2037
aS'all'
p2038
aS'of'
p2039
aS'my'
p2040
aS'needs'
p2041
aS'and'
p2042
aS'surely'
p2043
aS"won't"
p2044
aS'disappoint'
p2045
aS'any'
p2046
aS'already'
p2047
aS'established'
p2048
aS'Nokia'
p2049
aS'phone'
p2050
aS'fans.'
p2051
ag16
tp2052
a((lp2053
S'OPERATION:'
p2054
aS"It's"
p2055
aS'like'
p2056
aS"BMW's"
p2057
aS'I-Drive'
p2058
ag952
aS'It'
p2059
aS'does'
p2060
aS"it's"
p2061
aS'job,'
p2062
aS'but'
p2063
aS'has'
p2064
aS'the'
p2065
aS'most'
p2066
aS'unintuitive,'
p2067
aS'overly-layered'
p2068
aS'interface.'
p2069
ag28
tp2070
a((lp2071
S'For'
p2072
aS'example,'
p2073
aS'the'
p2074
aS'memory'
p2075
aS'card'
p2076
aS'is'
p2077
aS'under'
p2078
aS'the'
p2079
aS'battery.'
p2080
ag57
tp2081
a((lp2082
S'The'
p2083
aS'phone'
p2084
aS'must'
p2085
aS'be'
p2086
aS'shut'
p2087
aS'down'
p2088
aS'&'
p2089
aS'taken'
p2090
aS'apart'
p2091
aS'to'
p2092
aS'change'
p2093
aS'the'
p2094
aS'memory'
p2095
aS'card...'
p2096
aS'and'
p2097
aS'turning'
p2098
aS'the'
p2099
aS'phone'
p2100
aS'back'
p2101
aS'on'
p2102
aS'takes'
p2103
ag34
aS'little'
p2104
aS'while.'
p2105
ag28
tp2106
a((lp2107
S'This'
p2108
aS'is'
p2109
aS'representative'
p2110
aS'of'
p2111
aS'the'
p2112
aS'entire'
p2113
aS'phone'
p2114
aS'operation.'
p2115
ag57
tp2116
a((lp2117
S'Not'
p2118
aS'for'
p2119
aS'the'
p2120
aS'impatient.'
p2121
ag57
tp2122
a((lp2123
S'If'
p2124
aS"you've"
p2125
aS'never'
p2126
aS'used'
p2127
aS'an'
p2128
aS'advanced'
p2129
aS'mobile'
p2130
aS'phone'
p2131
aS'before,'
p2132
aS'you'
p2133
aS'might'
p2134
aS'assume'
p2135
aS'this'
p2136
aS'is'
p2137
aS'par'
p2138
aS'for'
p2139
aS'the'
p2140
aS'course,'
p2141
aS'but'
p2142
aS'it'
p2143
aS'simply'
p2144
aS"isn't."
p2145
ag57
tp2146
a((lp2147
S'Even'
p2148
aS'the'
p2149
aS'instruction'
p2150
aS'booklet'
p2151
aS'is'
p2152
aS'out'
p2153
aS'of'
p2154
aS'order.'
p2155
ag28
tp2156
a((lp2157
S'APPLICATIONS:'
p2158
aS'It'
p2159
aS'has'
p2160
aS'lots'
p2161
aS'of'
p2162
aS'applications'
p2163
aS'and'
p2164
aS'they'
p2165
aS'work'
p2166
aS'very'
p2167
aS'well...'
p2168
aS'when'
p2169
aS'you'
p2170
aS'eventually'
p2171
aS'find'
p2172
aS'where'
p2173
aS'they'
p2174
aS'are'
p2175
aS'and'
p2176
aS'they'
p2177
aS'finally'
p2178
aS'open.'
p2179
ag16
tp2180
a((lp2181
S'No'
p2182
aS'matter'
p2183
aS'how'
p2184
aS'accustomed'
p2185
aS'to'
p2186
aS'the'
p2187
aS'phone'
p2188
aS'you'
p2189
aS'become,'
p2190
aS'too'
p2191
aS'much'
p2192
aS'time'
p2193
aS'is'
p2194
aS'required'
p2195
aS'to'
p2196
aS'get'
p2197
aS'to,'
p2198
aS'open'
p2199
aS'and'
p2200
aS'close'
p2201
aS'applications.'
p2202
ag28
tp2203
a((lp2204
S'On'
p2205
aS'the'
p2206
aS'other'
p2207
aS'hand,'
p2208
aS'one'
p2209
aS'may'
p2210
aS'leave'
p2211
aS'many'
p2212
aS'applications'
p2213
aS'open'
p2214
aS'at'
p2215
aS'once,'
p2216
aS'hide'
p2217
aS'them'
p2218
aS'and'
p2219
aS'return'
p2220
aS'to'
p2221
aS'them'
p2222
aS'just'
p2223
aS'where'
p2224
aS'they'
p2225
aS'left'
p2226
aS'off'
p2227
ag952
aS'similar'
p2228
aS'to'
p2229
ag34
aS'Mac.'
p2230
ag57
tp2231
a((lp2232
S'Me'
p2233
aS'likes.'
p2234
ag57
tp2235
a((lp2236
S'The'
p2237
aS'6600'
p2238
aS'has'
p2239
aS'more'
p2240
aS'ameneties'
p2241
aS'than'
p2242
aS'most'
p2243
ag952
aS'World'
p2244
aS'phone,'
p2245
aS'Camera'
p2246
aS'(VGA/zoom/night'
p2247
aS'mode/timer),'
p2248
aS'Video'
p2249
aS'(w/'
p2250
aS'audio'
p2251
ag2089
aS'zoom),'
p2252
aS'Speaker'
p2253
aS'(good'
p2254
aS'sound),'
p2255
aS'Bluetooth,'
p2256
aS'infrared,'
p2257
aS'Modem'
p2258
aS'for'
p2259
aS'computers,'
p2260
aS'electronic'
p2261
aS'wallet,'
p2262
aS'Internet'
p2263
aS'access,'
p2264
aS'Calendar,'
p2265
aS'calculator,'
p2266
aS'converter'
p2267
aS'and'
p2268
aS'more.'
p2269
ag16
tp2270
a((lp2271
S'The'
p2272
aS'phone'
p2273
aS'does'
p2274
aS'not'
p2275
aS'have'
p2276
aS'an'
p2277
aS'Mp3-player,'
p2278
aS'FM'
p2279
aS'radio,'
p2280
aS'200k+'
p2281
aS'color'
p2282
aS'screen,'
p2283
aS'megapixel'
p2284
aS'camera,'
p2285
aS'quad'
p2286
aS'band,'
p2287
aS'PDA,'
p2288
aS'photo'
p2289
aS'editor.'
p2290
ag28
tp2291
a((lp2292
S"I'm"
p2293
aS'not'
p2294
aS'sure'
p2295
aS'that'
p2296
ag34
aS'phone'
p2297
aS'w/'
p2298
aS'these'
p2299
aS'and'
p2300
aS'all'
p2301
aS'of'
p2302
aS'the'
p2303
aS'above'
p2304
aS'features'
p2305
aS'exists'
p2306
aS'just'
p2307
aS'yet.'
p2308
aS"...I'm"
p2309
aS'not'
p2310
aS'sure'
p2311
aS"I'd"
p2312
aS'want'
p2313
aS'to'
p2314
aS'spend'
p2315
aS'THAT'
p2316
aS'much'
p2317
aS'time'
p2318
aS'w/'
p2319
ag34
aS'device,'
p2320
aS'anyhow.'
p2321
ag57
tp2322
a((lp2323
S'DEPENDABILITY:'
p2324
aS"I've"
p2325
aS'seen'
p2326
aS'no'
p2327
aS'glitches.'
p2328
ag16
tp2329
a((lp2330
S"I've"
p2331
aS'had'
p2332
aS'no'
p2333
aS'problems'
p2334
aS'w/'
p2335
aS'this'
p2336
aS'phone.'
p2337
ag16
tp2338
a((lp2339
S'STYLING/ERGONOMICS:'
p2340
aS'The'
p2341
aS'keys'
p2342
aS'are'
p2343
aS'small,'
p2344
aS'which'
p2345
aS'generally'
p2346
aS"doesn't"
p2347
aS'bother'
p2348
aS'me'
p2349
aS'if'
p2350
aS'they'
p2351
aS'are'
p2352
aS'spaced'
p2353
aS'because'
p2354
ag12
aS'can'
p2355
aS'employ'
p2356
ag34
aS'little'
p2357
aS"'Braille,'"
p2358
aS'but'
p2359
aS'the'
p2360
aS'keys'
p2361
aS'run'
p2362
aS'into'
p2363
aS'each'
p2364
aS'other,'
p2365
aS'so'
p2366
aS'careful'
p2367
aS'attn.'
p2368
aS'must'
p2369
aS'be'
p2370
aS'paid'
p2371
aS'when'
p2372
aS'dialing.'
p2373
ag28
tp2374
a((lp2375
S'As'
p2376
aS'for'
p2377
aS'appearance,'
p2378
aS'well,'
p2379
aS"that's"
p2380
aS'subjective.'
p2381
ag57
tp2382
a((lp2383
S'Few'
p2384
aS'will'
p2385
aS'look'
p2386
aS'at'
p2387
aS'the'
p2388
aS'phone'
p2389
aS'and'
p2390
aS'know'
p2391
aS"it's"
p2392
aS"'all"
p2393
aS"that'."
p2394
ag57
tp2395
a((lp2396
S"It's"
p2397
aS'not'
p2398
aS'as'
p2399
aS'stylized'
p2400
aS'as'
p2401
ag34
aS'Sony'
p2402
aS'or'
p2403
aS'Samsung.'
p2404
ag28
tp2405
a((lp2406
S'Less'
p2407
aS'Benz/obvious;'
p2408
aS'more'
p2409
aS'Audi/understated.'
p2410
ag57
tp2411
a((lp2412
S'Although'
p2413
aS'it'
p2414
aS'has'
p2415
aS'chubby'
p2416
aS'hips,'
p2417
aS'the'
p2418
aS'device'
p2419
aS"isn't"
p2420
aS'really'
p2421
aS'so'
p2422
aS'big.'
p2423
ag16
tp2424
a((lp2425
S'Solid,'
p2426
aS'squeak-free,'
p2427
aS'large'
p2428
aS'screen.'
p2429
ag16
tp2430
a((lp2431
S'MEMORY/STORAGE'
p2432
ag952
aS'Seemingly'
p2433
aS'boundless.'
p2434
ag16
tp2435
a((lp2436
S'First'
p2437
aS'of'
p2438
aS'all,'
p2439
aS'the'
p2440
aS'phone'
p2441
aS'houses'
p2442
ag34
aS'great'
p2443
aS'deal'
p2444
aS'of'
p2445
aS'memory'
p2446
aS'for'
p2447
aS'multiple'
p2448
aS'videos,'
p2449
aS'sound'
p2450
aS'clips,'
p2451
aS'photos,'
p2452
aS'texts,'
p2453
aS'etc.'
p2454
ag16
tp2455
a((lp2456
S'Secondly,'
p2457
aS'all'
p2458
aS'info'
p2459
aS'can'
p2460
aS'be'
p2461
aS'sent'
p2462
aS'to'
p2463
ag34
aS'computer'
p2464
aS'and'
p2465
aS'w/o'
p2466
aS'the'
p2467
aS'hassle'
p2468
aS'of'
p2469
aS'USB'
p2470
aS'wires.'
p2471
ag16
tp2472
a((lp2473
S'Still'
p2474
aS'not'
p2475
aS'sure?'
p2476
ag57
tp2477
a((lp2478
S'If'
p2479
aS'you'
p2480
aS'max'
p2481
aS'out'
p2482
aS'the'
p2483
aS'phone'
p2484
aS'memory'
p2485
aS'and'
p2486
aS'have'
p2487
aS'sent'
p2488
aS'all'
p2489
aS'you'
p2490
aS'wish'
p2491
aS'to'
p2492
ag34
aS'computer,'
p2493
aS'there'
p2494
aS'is'
p2495
ag34
aS'memory'
p2496
aS'card'
p2497
aS'w/'
p2498
ag34
aS'good'
p2499
aS'deal'
p2500
aS'of'
p2501
aS'storage'
p2502
aS'as'
p2503
aS'well.'
p2504
ag57
tp2505
a((lp2506
S'This'
p2507
aS'is'
p2508
aS'no'
p2509
aS'small'
p2510
aS'deal.'
p2511
ag57
tp2512
a((lp2513
S'If'
p2514
aS"you're"
p2515
aS'still'
p2516
aS'whining'
p2517
aS'about'
p2518
aS'storage,'
p2519
aS'deleting'
p2520
aS'some'
p2521
aS'games'
p2522
aS'will'
p2523
aS'free-up'
p2524
aS'still'
p2525
aS'more'
p2526
aS'memory.'
p2527
ag57
tp2528
a((lp2529
S'RECEPTION:'
p2530
aS'This'
p2531
aS'really'
p2532
aS'depends'
p2533
aS'on'
p2534
aS'locale'
p2535
ag2089
aS'carrier.'
p2536
ag57
tp2537
a((lp2538
S'The'
p2539
aS'6600'
p2540
aS'(T-Mobile)'
p2541
aS'is'
p2542
aS'the'
p2543
aS'true'
p2544
aS"'world"
p2545
aS"phone'"
p2546
aS'in'
p2547
aS'that'
p2548
aS'it'
p2549
aS'has'
p2550
aS'the'
p2551
aS'mhz'
p2552
aS'to'
p2553
aS'operate'
p2554
aS'around'
p2555
aS'the'
p2556
aS'globe,'
p2557
aS'including'
p2558
aS'New'
p2559
aS'Zealand'
p2560
aS'and'
p2561
aS'Australia'
p2562
aS'(900)'
p2563
aS'whereas'
p2564
aS'the'
p2565
aS'6620'
p2566
aS'(available'
p2567
aS'from'
p2568
aS'Cingular)'
p2569
aS'replaces'
p2570
aS'it'
p2571
aS'w/'
p2572
aS'800mhz'
p2573
aS'(some'
p2574
aS'refer'
p2575
aS'to'
p2576
aS'as'
p2577
aS'850).'
p2578
ag16
tp2579
a((lp2580
S'The'
p2581
aS'latter'
p2582
aS'will'
p2583
aS'provide'
p2584
aS'better'
p2585
aS'coverage'
p2586
aS'in'
p2587
aS'more'
p2588
aS'remote'
p2589
aS'areas'
p2590
aS'of'
p2591
aS'The'
p2592
aS'States'
p2593
aS'but'
p2594
aS'still'
p2595
aS'operates'
p2596
aS'in'
p2597
aS'many'
p2598
aS'countries,'
p2599
aS'excluding'
p2600
aS'New'
p2601
aS'Zealand'
p2602
aS'and'
p2603
aS'Australia.'
p2604
ag16
tp2605
a((lp2606
S'The'
p2607
aS'6600'
p2608
aS'will'
p2609
aS'provide'
p2610
aS'similar'
p2611
aS'service'
p2612
aS'in'
p2613
aS'more'
p2614
aS'developed'
p2615
aS'areas'
p2616
aS'of'
p2617
aS'The'
p2618
aS'States'
p2619
aS'and'
p2620
aS'not'
p2621
aS'as'
p2622
aS'well'
p2623
aS'in'
p2624
aS'more'
p2625
aS'remote'
p2626
aS'areas.'
p2627
ag28
tp2628
a((lp2629
S'As'
p2630
aS'the'
p2631
aS'6600'
p2632
aS'uses'
p2633
aS'900mhz,'
p2634
aS'it'
p2635
aS'operates'
p2636
aS'in'
p2637
aS'more'
p2638
aS'countries'
p2639
aS'than'
p2640
aS'the'
p2641
aS'6620.'
p2642
ag16
tp2643
a((lp2644
S'The'
p2645
aS'battery'
p2646
aS'life'
p2647
aS'is'
p2648
aS'less'
p2649
aS'than'
p2650
aS'stellar,'
p2651
aS'but'
p2652
aS'it'
p2653
aS'charges'
p2654
aS'w/'
p2655
aS'the'
p2656
aS'quickness.'
p2657
ag16
tp2658
a((lp2659
S'Remember,'
p2660
aS'this'
p2661
aS'phone'
p2662
aS'uses'
p2663
aS'an'
p2664
aS'operating'
p2665
aS'system'
p2666
ag952
aS'Symbian...'
p2667
aS'and'
p2668
aS"it's"
p2669
aS'feature-rich'
p2670
aS'w/'
p2671
aS'65k'
p2672
aS'colors.'
p2673
ag16
tp2674
a((lp2675
S'It'
p2676
aS'films'
p2677
aS'10'
p2678
aS'second'
p2679
aS'video,'
p2680
aS'for'
p2681
aS'crying'
p2682
aS'out'
p2683
aS'loud.'
p2684
ag16
tp2685
a((lp2686
S'The'
p2687
aS'battery'
p2688
aS'life'
p2689
aS"can't"
p2690
aS'be'
p2691
aS'very'
p2692
aS'long;'
p2693
aS"let's"
p2694
aS'not'
p2695
aS'be'
p2696
aS'greedy.'
p2697
ag28
tp2698
a((lp2699
S'GAMES'
p2700
ag952
aS'Java.'
p2701
ag57
tp2702
a((lp2703
S"Don't"
p2704
aS'use'
p2705
aS'them,'
p2706
aS'so'
p2707
ag12
aS'delete'
p2708
aS'them'
p2709
aS'for'
p2710
aS'addtl'
p2711
aS'space.'
p2712
ag28
tp2713
a((lp2714
S'In'
p2715
aS'my'
p2716
aS'humble'
p2717
aS'opinion,'
p2718
aS'games,'
p2719
aS'along'
p2720
aS'w/'
p2721
aS"'flip"
p2722
aS"phones'"
p2723
aS'belong'
p2724
aS'in'
p2725
aS'the'
p2726
aS'hands'
p2727
aS'of'
p2728
aS'teenagers.'
p2729
ag57
tp2730
a((lp2731
S'IMP:'
p2732
aS'Two'
p2733
aS'important'
p2734
aS'pieces'
p2735
aS'of'
p2736
aS'advice'
p2737
ag952
aS'Visit'
p2738
aS"Nokia's"
p2739
aS'site.'
p2740
ag57
tp2741
a((lp2742
S'There'
p2743
aS'are'
p2744
aS'number'
p2745
aS'of'
p2746
aS'downloads'
p2747
aS'needed/available'
p2748
aS'for'
p2749
aS'this'
p2750
aS'phone'
p2751
ag2089
aS'they'
p2752
aS'will'
p2753
aS'be'
p2754
aS'texted'
p2755
aS'to'
p2756
aS'you'
p2757
aS'at'
p2758
aS'no'
p2759
aS'cost.'
p2760
ag16
tp2761
a((lp2762
S'The'
p2763
aS'downloads'
p2764
aS'are'
p2765
aS'for'
p2766
aS'basic'
p2767
aS'and'
p2768
aS'advanced'
p2769
aS'operations.'
p2770
ag57
tp2771
a((lp2772
S'The'
p2773
aS'second'
p2774
aS'piece'
p2775
aS'of'
p2776
aS'advice'
p2777
ag952
aS'Be'
p2778
aS'prepared'
p2779
aS'to'
p2780
aS'spend'
p2781
ag34
aS'lot'
p2782
aS'of'
p2783
aS'time'
p2784
aS'w/'
p2785
aS'this'
p2786
aS'phone.'
p2787
ag57
tp2788
a((lp2789
S'If'
p2790
aS'you'
p2791
aS'expect'
p2792
aS'to'
p2793
aS'be'
p2794
aS'able'
p2795
aS'to'
p2796
aS'pick'
p2797
aS'things'
p2798
aS'up'
p2799
aS'when'
p2800
aS"you're"
p2801
aS'out'
p2802
aS'and'
p2803
aS'in'
p2804
ag34
aS'rush'
p2805
aS'via'
p2806
aS'common'
p2807
aS'sense,'
p2808
aS'many'
p2809
aS'times'
p2810
aS"you'll"
p2811
aS'end'
p2812
aS'up'
p2813
aS'frustrated.'
p2814
ag57
tp2815
a((lp2816
g1735
aS'Sony'
p2817
aS'Ericcson'
p2818
aS'may'
p2819
aS'be'
p2820
aS'the'
p2821
aS'phone'
p2822
aS'for'
p2823
aS'you...'
p2824
aS'but'
p2825
aS'good'
p2826
aS'luck'
p2827
aS'finding'
p2828
aS'one'
p2829
aS'w/'
p2830
aS'all'
p2831
aS'the'
p2832
aS'features'
p2833
ag2089
aS'such'
p2834
ag34
aS'competitive'
p2835
aS'price.'
p2836
ag16
tp2837
a((lp2838
S'Keep'
p2839
aS'in'
p2840
aS'mind'
p2841
aS'that'
p2842
aS'for'
p2843
aS'nearly'
p2844
aS'every'
p2845
aS'screen,'
p2846
aS'there'
p2847
aS'are'
p2848
ag34
aS'number'
p2849
aS"'along"
p2850
aS"side'"
p2851
aS'and'
p2852
aS"'beneath'"
p2853
aS'them...'
p2854
aS'for'
p2855
aS'every'
p2856
aS"'save,'"
p2857
aS'there'
p2858
aS'are'
p2859
aS'choices'
p2860
aS'of'
p2861
aS'phone'
p2862
aS'memory,'
p2863
aS'memory'
p2864
aS'card'
p2865
aS'or'
p2866
aS'sim'
p2867
aS'card.'
p2868
ag57
tp2869
a((lp2870
S'Despite'
p2871
ag34
aS'critical'
p2872
aS'start,'
p2873
aS'this'
p2874
aS'phone'
p2875
aS'deserves'
p2876
aS'four'
p2877
aS'stars'
p2878
aS'because'
p2879
aS'it'
p2880
aS'accomplishes'
p2881
aS'what'
p2882
aS'it'
p2883
aS'sets'
p2884
aS'out'
p2885
aS'to'
p2886
aS'do'
p2887
aS'(which'
p2888
aS'is'
p2889
aS'pretty'
p2890
aS'lofty)...'
p2891
aS'does'
p2892
aS'more'
p2893
aS'than'
p2894
aS'most...'
p2895
aS'does'
p2896
aS'it'
p2897
aS'well...'
p2898
aS'is'
p2899
aS'dependable.'
p2900
ag16
tp2901
a((lp2902
S"It's"
p2903
ag34
aS'high-line'
p2904
aS'Audi,'
p2905
aS'on'
p2906
ag34
aS'Cadillac'
p2907
aS'suspension,'
p2908
aS'at'
p2909
ag34
aS'reasonable'
p2910
aS'price.'
p2911
ag57
tp2912
a((lp2913
S'When'
p2914
aS'you'
p2915
aS'consider'
p2916
aS'expandability'
p2917
aS'(downloads'
p2918
aS'via'
p2919
aS'computer),'
p2920
aS'the'
p2921
aS'numerous'
p2922
aS'features,'
p2923
aS'two'
p2924
aS'transmission'
p2925
aS'programs'
p2926
aS'and'
p2927
aS'multiple'
p2928
aS'storage'
p2929
aS'devices,'
p2930
aS'dependability'
p2931
ag952
aS'this'
p2932
aS'is'
p2933
ag34
aS'phone'
p2934
aS'that'
p2935
aS"isn't"
p2936
aS'easy'
p2937
aS'to'
p2938
aS'out-grow.'
p2939
ag28
tp2940
a((lp2941
g12
aS'would'
p2942
aS'suggest'
p2943
aS'this'
p2944
aS'phone'
p2945
aS'for'
p2946
aS'all'
p2947
aS'but'
p2948
aS'the'
p2949
aS'simple-minded...'
p2950
aS'or'
p2951
aS'those'
p2952
aS'who'
p2953
aS'simply'
p2954
aS"don't"
p2955
aS'need'
p2956
aS'so'
p2957
aS'many'
p2958
aS'features.'
p2959
ag57
tp2960
a((lp2961
S'*****DO'
p2962
aS'NOT'
p2963
aS'BUY'
p2964
aS'THIS'
p2965
aS'PHONE*****'
p2966
aS'****READ'
p2967
aS'WHY****'
p2968
ag57
tp2969
a((lp2970
S'In'
p2971
aS'October'
p2972
aS'of'
p2973
aS'2003,'
p2974
ag12
aS'bought'
p2975
ag34
aS'Nokia'
p2976
aS'3650'
p2977
aS'off'
p2978
aS'of'
p2979
aS'eBay.'
p2980
ag57
tp2981
a((lp2982
S'It'
p2983
aS'was'
p2984
aS'an'
p2985
aS'OK'
p2986
aS'phone'
p2987
aS'with'
p2988
ag34
aS'really'
p2989
aS'nice'
p2990
aS'screen,'
p2991
aS'great'
p2992
aS'battery'
p2993
aS'life,'
p2994
aS'decent'
p2995
aS'signal,'
p2996
aS'and'
p2997
aS'cool'
p2998
aS'applications.'
p2999
ag57
tp3000
a((lp3001
S'It'
p3002
aS'was'
p3003
ag34
aS'major'
p3004
aS'step'
p3005
aS'up'
p3006
aS'from'
p3007
ag34
aS'Sony'
p3008
aS't68i.'
p3009
ag57
tp3010
a((lp3011
S'The'
p3012
aS'3650--being'
p3013
aS'essentially'
p3014
ag34
aS'mini-computer--had'
p3015
aS'memory'
p3016
aS'leaks'
p3017
aS'and'
p3018
aS'occassional'
p3019
aS'crashing,'
p3020
aS'but'
p3021
aS'nothing'
p3022
aS'that'
p3023
ag34
aS'quick'
p3024
aS'power'
p3025
aS'cycle'
p3026
aS"couldn't"
p3027
aS'help.'
p3028
ag57
tp3029
a((lp3030
S'Most'
p3031
aS'importantly,'
p3032
aS'it'
p3033
aS'allowed'
p3034
aS'me'
p3035
aS'to'
p3036
aS'get'
p3037
aS'on'
p3038
aS'the'
p3039
aS'Internet'
p3040
aS'via'
p3041
aS'Bluetooth'
p3042
aS'via'
p3043
aS'GPRS'
p3044
aS'flawlessly.'
p3045
ag57
tp3046
a((lp3047
S"It's"
p3048
ag34
aS'nice'
p3049
aS'phone,'
p3050
aS'and'
p3051
aS"I'm"
p3052
aS'glad'
p3053
aS'to'
p3054
aS'have'
p3055
aS'used'
p3056
aS'it.'
p3057
ag57
tp3058
a((lp3059
S'In'
p3060
aS'July'
p3061
aS'of'
p3062
aS'2004,'
p3063
ag12
aS'purchased'
p3064
ag34
aS'Nokia'
p3065
aS'6600'
p3066
aS'from'
p3067
aS'T-Mobile.'
p3068
ag57
tp3069
a((lp3070
S'Since'
p3071
ag12
aS'use'
p3072
aS'my'
p3073
aS'Palm'
p3074
aS'PDA'
p3075
aS'and'
p3076
aS'T-Mobile'
p3077
aS'offers'
p3078
aS'unlimited'
p3079
aS'Internet,'
p3080
ag12
aS'asked'
p3081
aS'the'
p3082
aS'sales'
p3083
aS'representative'
p3084
aS'if'
p3085
ag12
aS'could'
p3086
aS'use'
p3087
aS'this'
p3088
aS'phone'
p3089
aS'as'
p3090
ag34
aS'Bluetooth'
p3091
aS'modem'
p3092
aS'for'
p3093
aS'my'
p3094
aS'Palm,'
p3095
aS'and'
p3096
aS'he'
p3097
aS'said'
p3098
aS'yes.'
p3099
ag57
tp3100
a((lp3101
S'So'
p3102
ag12
aS'bought'
p3103
aS'the'
p3104
aS'phone'
p3105
aS'and'
p3106
aS'went'
p3107
aS'on'
p3108
aS'my'
p3109
aS'merry'
p3110
aS'way.'
p3111
ag57
tp3112
a((lp3113
S'BLUETOOTH'
p3114
aS'DOES'
p3115
aS'NOT'
p3116
aS'WORK'
p3117
aS'ON'
p3118
aS'THIS'
p3119
aS'PHONE.'
p3120
ag28
tp3121
a((lp3122
S'THE'
p3123
aS'ADVERTISING'
p3124
aS'IS'
p3125
ag1735
aS'LIE.'
p3126
ag57
tp3127
a((lp3128
S'Though'
p3129
aS'nearly'
p3130
ag34
aS'dozen'
p3131
aS'different'
p3132
aS'people'
p3133
aS'at'
p3134
aS'both'
p3135
aS'T-Mobile'
p3136
aS'and'
p3137
aS'Nokia'
p3138
aS'have'
p3139
aS'told'
p3140
aS'me'
p3141
aS'otherwise,'
p3142
aS'it'
p3143
aS'is'
p3144
aS'simply'
p3145
aS'not'
p3146
aS'possible'
p3147
aS'to'
p3148
aS'use'
p3149
aS'this'
p3150
aS'phone'
p3151
aS'as'
p3152
ag34
aS'Bluetooth'
p3153
aS'modem'
p3154
aS'for'
p3155
aS'the'
p3156
aS'vast'
p3157
aS'majority'
p3158
aS'of'
p3159
aS'PDAs'
p3160
aS'and'
p3161
aS'many'
p3162
aS'other'
p3163
aS'devices.'
p3164
ag28
tp3165
a((lp3166
S'While'
p3167
aS'the'
p3168
aS'two'
p3169
aS'devices'
p3170
aS'will'
p3171
aS'pair,'
p3172
aS'the'
p3173
aS'phone'
p3174
aS'will'
p3175
aS'immediately'
p3176
aS'drop'
p3177
aS'the'
p3178
aS'connection'
p3179
aS'if'
p3180
aS'any'
p3181
aS'data'
p3182
aS'is'
p3183
aS'transferred.'
p3184
ag57
tp3185
a((lp3186
S'With'
p3187
aS'the'
p3188
aS'recent'
p3189
aS'"bluejacking"'
p3190
aS'vunerability,'
p3191
aS'the'
p3192
aS'Bluetooth'
p3193
aS'overseers'
p3194
aS'have'
p3195
aS'created'
p3196
ag34
aS'new'
p3197
aS'security'
p3198
aS'system'
p3199
aS'called'
p3200
aS'Combination'
p3201
aS'Key.'
p3202
ag57
tp3203
a((lp3204
S'This'
p3205
aS'helps'
p3206
aS'prevent'
p3207
aS'people'
p3208
aS'from'
p3209
aS'sending'
p3210
aS'short'
p3211
aS'"obscene"'
p3212
aS'messages'
p3213
aS'to'
p3214
aS'your'
p3215
aS'phone.'
p3216
ag57
tp3217
a((lp3218
S'The'
p3219
aS'older'
p3220
aS'security'
p3221
aS'method'
p3222
aS'is'
p3223
aS'called'
p3224
aS'Unit'
p3225
aS'Key.'
p3226
ag57
tp3227
a((lp3228
S'Most'
p3229
aS'Bluetooth'
p3230
aS'devices'
p3231
aS'only'
p3232
aS'support'
p3233
aS'the'
p3234
aS'older'
p3235
aS'security'
p3236
aS'system,'
p3237
aS'Unit'
p3238
aS'Key.'
p3239
ag57
tp3240
a((lp3241
S'This'
p3242
aS'includes'
p3243
aS'ALL'
p3244
aS'Palm'
p3245
aS'PDAs!'
p3246
aS'Further,'
p3247
aS'due'
p3248
aS'to'
p3249
aS'an'
p3250
aS'unparalled'
p3251
aS'design'
p3252
aS'oversight,'
p3253
aS'Nokia'
p3254
aS'is'
p3255
aS'the'
p3256
aS'only'
p3257
aS'device'
p3258
aS'that'
p3259
aS'supports'
p3260
aS'Combination'
p3261
aS'Key'
p3262
aS'that'
p3263
aS'is'
p3264
aS'NOT'
p3265
aS'BACKWARDS'
p3266
aS'COMPATIBLE'
p3267
aS'with'
p3268
aS'the'
p3269
aS'older'
p3270
aS'devices'
p3271
aS'that'
p3272
aS'people'
p3273
aS'actually'
p3274
aS'own.'
p3275
ag57
tp3276
a((lp3277
S'Does'
p3278
aS'all'
p3279
aS'this'
p3280
aS'sound'
p3281
aS'technical?'
p3282
ag57
tp3283
a((lp3284
S"That's"
p3285
aS'because'
p3286
aS'it'
p3287
aS'is,'
p3288
aS'and'
p3289
aS'the'
p3290
aS'only'
p3291
aS'way'
p3292
ag12
aS'learned'
p3293
aS'it'
p3294
aS'was'
p3295
aS'by'
p3296
aS'spending'
p3297
aS'over'
p3298
aS'an'
p3299
aS'hour'
p3300
aS'talking'
p3301
aS'to'
p3302
aS"T-Mobile's"
p3303
aS'tier-3'
p3304
aS'technicians'
p3305
aS'in'
p3306
aS'South'
p3307
aS'Africa'
p3308
aS'(to'
p3309
aS'learn'
p3310
aS'that'
p3311
aS'the'
p3312
aS'problem'
p3313
aS"wasn't"
p3314
aS'about'
p3315
aS'T-Mobile)'
p3316
aS'and'
p3317
aS'three'
p3318
aS'hours'
p3319
aS'of'
p3320
aS'getting'
p3321
aS'nowhere'
p3322
aS'with'
p3323
aS'Nokia'
p3324
aS'support'
p3325
aS'technicians'
p3326
aS'reading'
p3327
aS'endlessly'
p3328
aS'from'
p3329
aS'scripts,'
p3330
aS'never'
p3331
aS'deviating,'
p3332
aS'until'
p3333
ag12
aS'started'
p3334
aS'cursing'
p3335
aS'and'
p3336
aS'got'
p3337
ag34
aS'tier-2'
p3338
aS'tech.'
p3339
ag57
tp3340
a((lp3341
S'Only'
p3342
aS'then'
p3343
aS'did'
p3344
ag12
aS'learn'
p3345
aS'the'
p3346
aS'truth'
p3347
aS'--'
p3348
aS'THIS'
p3349
aS'PHONE'
p3350
aS'DOES'
p3351
aS'NOT'
p3352
aS'WORK'
p3353
aS'WITH'
p3354
aS'PALM'
p3355
aS'PDAS!'
p3356
ag28
tp3357
a((lp3358
S'So,'
p3359
aS'after'
p3360
aS'all'
p3361
aS'this'
p3362
aS'frustration'
p3363
aS'of'
p3364
aS'adding'
p3365
aS'all'
p3366
aS'of'
p3367
aS'my'
p3368
aS'newest'
p3369
aS'contacts'
p3370
aS'to'
p3371
aS'the'
p3372
aS'6600,'
p3373
ag12
aS'asked'
p3374
aS'the'
p3375
aS'technician'
p3376
aS'if'
p3377
aS'it'
p3378
aS'were'
p3379
aS'possible'
p3380
aS'to'
p3381
aS'transfer'
p3382
aS'the'
p3383
aS'data'
p3384
aS'from'
p3385
aS'the'
p3386
aS'6600'
p3387
aS'to'
p3388
aS'the'
p3389
aS'3650.'
p3390
ag57
tp3391
a((lp3392
S'He'
p3393
aS'advised'
p3394
aS'me'
p3395
aS'to'
p3396
aS'back'
p3397
aS'up'
p3398
aS'the'
p3399
aS'6600'
p3400
aS'to'
p3401
ag34
aS'newly'
p3402
aS'formatted'
p3403
aS'Nokia'
p3404
aS'MMC'
p3405
aS'card,'
p3406
aS'and'
p3407
aS'restore'
p3408
aS'the'
p3409
aS'data'
p3410
aS'to'
p3411
aS'the'
p3412
aS'3650.'
p3413
ag57
tp3414
a((lp3415
g12
aS'followed'
p3416
aS'the'
p3417
aS"technician's"
p3418
aS'directions'
p3419
aS'to'
p3420
aS'the'
p3421
aS'letter'
p3422
aS'while'
p3423
aS'they'
p3424
aS'were'
p3425
aS'on'
p3426
aS'the'
p3427
aS'phone,'
p3428
aS'and'
p3429
aS'after'
p3430
ag12
aS'had'
p3431
aS'done'
p3432
aS'so,'
p3433
aS'the'
p3434
aS'phone'
p3435
aS'restarted'
p3436
aS'and'
p3437
aS'displayed'
p3438
aS'the'
p3439
aS'message'
p3440
aS'"Phone'
p3441
aS'startup'
p3442
aS'failed.'
p3443
aS'Contact'
p3444
aS'the'
p3445
aS'retailer."'
p3446
ag57
tp3447
a((lp3448
g12
aS'spent'
p3449
aS'over'
p3450
aS'an'
p3451
aS'hour'
p3452
aS'talking'
p3453
aS'to'
p3454
ag34
aS'tier-2'
p3455
aS'technician'
p3456
aS'who'
p3457
aS'told'
p3458
aS'me'
p3459
aS'that'
p3460
aS'their'
p3461
aS'tier-1'
p3462
aS'technician'
p3463
aS'should'
p3464
aS'have'
p3465
aS'known'
p3466
aS'that'
p3467
aS'it'
p3468
aS'was'
p3469
aS'not'
p3470
aS'possible'
p3471
aS'to'
p3472
aS'backup'
p3473
aS'the'
p3474
aS'6600'
p3475
aS'to'
p3476
aS'the'
p3477
aS'3650'
p3478
aS'safely'
p3479
aS'in'
p3480
aS'any'
p3481
aS'condition.'
p3482
ag57
tp3483
a((lp3484
g12
aS'could'
p3485
aS'not'
p3486
aS'get'
p3487
aS'the'
p3488
aS'3650'
p3489
aS'working'
p3490
aS'to'
p3491
aS'even'
p3492
aS'factory'
p3493
aS'defaults,'
p3494
aS'even'
p3495
aS'after'
p3496
aS'trying'
p3497
aS'every'
p3498
aS'reset'
p3499
aS'code'
p3500
aS'they'
p3501
aS'could'
p3502
aS'muster.'
p3503
ag57
tp3504
a((lp3505
S'Nokia'
p3506
aS'finally'
p3507
aS'determined'
p3508
aS'that'
p3509
aS'my'
p3510
aS'phone'
p3511
aS'was'
p3512
aS'in'
p3513
aS'need'
p3514
aS'of'
p3515
aS'repair,'
p3516
aS'but'
p3517
aS'since'
p3518
aS'it'
p3519
aS'was'
p3520
aS'out'
p3521
aS'of'
p3522
aS'warranty'
p3523
aS'(it'
p3524
aS'was'
p3525
aS'made'
p3526
aS'in'
p3527
aS'May'
p3528
aS"'03"
p3529
aS'and'
p3530
aS'they'
p3531
aS'would'
p3532
aS'not'
p3533
aS'take'
p3534
aS'an'
p3535
aS'eBay'
p3536
aS'purchase'
p3537
aS'as'
p3538
aS'proof)'
p3539
aS'they'
p3540
aS'refused'
p3541
aS'to'
p3542
aS'fix'
p3543
aS'the'
p3544
aS'phone'
p3545
aS'for'
p3546
aS'less'
p3547
aS'than'
p3548
aS'$120!'
p3549
ag57
tp3550
a((lp3551
S'After'
p3552
aS'over'
p3553
aS'two'
p3554
aS'hours'
p3555
aS'of'
p3556
aS'being'
p3557
aS'placed'
p3558
aS'on'
p3559
aS'hold'
p3560
aS'and'
p3561
aS'persuasion,'
p3562
ag34
aS'supervisor'
p3563
aS'finally'
p3564
aS'agreed'
p3565
aS'to'
p3566
aS'fix'
p3567
aS'the'
p3568
aS'phone'
p3569
aS'for'
p3570
aS'free.'
p3571
ag57
tp3572
a((lp3573
g12
aS'did'
p3574
ag34
aS'little'
p3575
aS'research'
p3576
aS'and'
p3577
aS'discovered'
p3578
aS'that'
p3579
aS'the'
p3580
aS'repair'
p3581
aS'could'
p3582
aS'be'
p3583
aS'done'
p3584
aS'by'
p3585
aS'any'
p3586
aS'basic'
p3587
aS'cell-phone'
p3588
aS'for'
p3589
aS'$30.'
p3590
ag57
tp3591
a((lp3592
S'All'
p3593
aS'that'
p3594
aS'had'
p3595
aS'to'
p3596
aS'be'
p3597
aS'done'
p3598
aS'was'
p3599
aS'restore'
p3600
aS'the'
p3601
aS'software'
p3602
aS'to'
p3603
aS'the'
p3604
aS'phone,'
p3605
aS'and'
p3606
aS'all'
p3607
aS'that'
p3608
aS'took'
p3609
aS'was'
p3610
ag34
aS'cable'
p3611
aS'and'
p3612
aS'some'
p3613
aS'Nokia'
p3614
aS'software.'
p3615
ag57
tp3616
a((lp3617
g12
aS'still'
p3618
aS'decided'
p3619
aS'to'
p3620
aS'send'
p3621
aS'in'
p3622
aS'the'
p3623
aS'phone,'
p3624
aS'since'
p3625
aS'insured'
p3626
aS'shipping'
p3627
aS'was'
p3628
aS'only'
p3629
aS'$10.'
p3630
ag57
tp3631
a((lp3632
S'Two'
p3633
aS'weeks'
p3634
aS'later'
p3635
ag12
aS'mailed'
p3636
aS'the'
p3637
aS'phone'
p3638
aS'in'
p3639
aS'for'
p3640
aS'repair.'
p3641
ag57
tp3642
a((lp3643
S'Two'
p3644
aS'days'
p3645
aS'after'
p3646
aS'they'
p3647
aS'received'
p3648
aS'the'
p3649
aS'phone,'
p3650
ag12
aS'received'
p3651
ag34
aS'letter'
p3652
aS'in'
p3653
aS'my'
p3654
aS'mailbox'
p3655
aS'stating'
p3656
aS'that'
p3657
aS'if'
p3658
ag12
aS'did'
p3659
aS'not'
p3660
aS'pay'
p3661
aS'$120'
p3662
aS'for'
p3663
aS'the'
p3664
aS'repair'
p3665
aS'of'
p3666
aS'my'
p3667
aS'phone,'
p3668
aS'it'
p3669
aS'would'
p3670
aS'be'
p3671
aS'returned'
p3672
aS'unrepaired.'
p3673
ag57
tp3674
a((lp3675
g12
aS'called'
p3676
aS'Nokia'
p3677
aS'to'
p3678
aS'try'
p3679
aS'to'
p3680
aS'get'
p3681
aS'it'
p3682
aS'sorted'
p3683
aS'out,'
p3684
aS'and'
p3685
aS'they'
p3686
aS'stated'
p3687
aS'that'
p3688
aS'they'
p3689
aS'had'
p3690
aS'no'
p3691
aS'recollection'
p3692
aS'of'
p3693
aS'ever'
p3694
aS'promising'
p3695
aS'to'
p3696
aS'repair'
p3697
aS'the'
p3698
aS'phone'
p3699
aS'for'
p3700
aS'free.'
p3701
ag57
tp3702
a((lp3703
S'They'
p3704
aS'stated'
p3705
aS'that'
p3706
aS'though'
p3707
aS'it'
p3708
aS'was'
p3709
ag34
aS'simple'
p3710
aS'repair'
p3711
aS'they'
p3712
aS'would'
p3713
aS'not'
p3714
aS'do'
p3715
aS'it'
p3716
aS'for'
p3717
aS'less'
p3718
aS'than'
p3719
aS'$120.'
p3720
ag57
tp3721
a((lp3722
g12
aS'suggested'
p3723
aS'that'
p3724
aS'it'
p3725
aS"didn't"
p3726
aS'make'
p3727
aS'sense'
p3728
aS'for'
p3729
aS'me'
p3730
aS'to'
p3731
aS'send'
p3732
aS'in'
p3733
aS'the'
p3734
aS'phone'
p3735
aS'for'
p3736
aS'repair'
p3737
aS'if'
p3738
ag12
aS'thought'
p3739
aS'Nokia'
p3740
aS'would'
p3741
aS'charge'
p3742
aS'me'
p3743
aS'$120'
p3744
aS'to'
p3745
aS'repair'
p3746
aS'it'
p3747
aS'since'
p3748
ag12
aS'could'
p3749
aS'get'
p3750
aS'it'
p3751
aS'done'
p3752
aS'locally'
p3753
aS'for'
p3754
aS'$30.'
p3755
ag57
tp3756
a((lp3757
S'This'
p3758
aS'simple'
p3759
aS'nuance'
p3760
aS'was'
p3761
aS'too'
p3762
aS'much'
p3763
aS'for'
p3764
aS'Nokia,'
p3765
aS'and'
p3766
aS'they'
p3767
aS'still'
p3768
aS'refuse'
p3769
aS'to'
p3770
aS'acknoledge'
p3771
aS'the'
p3772
aS'fact'
p3773
aS'that'
p3774
aS'their'
p3775
aS'technician'
p3776
aS'could'
p3777
aS'have'
p3778
aS'broken'
p3779
aS'the'
p3780
aS'phone'
p3781
aS'or'
p3782
aS'repair'
p3783
aS'the'
p3784
aS'phone'
p3785
aS'for'
p3786
aS'free.'
p3787
ag28
tp3788
a((lp3789
S'The'
p3790
aS'supervisor'
p3791
aS'stated'
p3792
aS'that'
p3793
aS'it'
p3794
aS'must'
p3795
aS'have'
p3796
aS'been'
p3797
aS'third-party'
p3798
aS'applications'
p3799
aS'on'
p3800
aS'the'
p3801
aS'6600'
p3802
aS'that'
p3803
aS'caused'
p3804
aS'the'
p3805
aS'3650'
p3806
aS'to'
p3807
aS'break,'
p3808
aS'and'
p3809
aS'would'
p3810
aS'not'
p3811
aS'take'
p3812
aS'the'
p3813
aS'suggestion'
p3814
aS'that'
p3815
aS'his'
p3816
aS'own'
p3817
aS'tier-2'
p3818
aS'technicians'
p3819
aS'stated'
p3820
aS'that'
p3821
aS'it'
p3822
aS'was'
p3823
aS'not'
p3824
aS'possible'
p3825
aS'to'
p3826
aS'back'
p3827
aS'up'
p3828
aS'the'
p3829
aS'6600'
p3830
aS'to'
p3831
aS'the'
p3832
aS'3650'
p3833
aS'without'
p3834
aS'damaging'
p3835
aS'the'
p3836
aS'3650,'
p3837
aS'regardless'
p3838
aS'of'
p3839
aS'what'
p3840
aS'was'
p3841
aS'or'
p3842
aS'was'
p3843
aS'not'
p3844
aS'on'
p3845
aS'the'
p3846
aS'6600.'
p3847
ag57
tp3848
a((lp3849
S'In'
p3850
aS'short'
p3851
ag952
aS'Nokia'
p3852
aS'themselves'
p3853
aS"don't"
p3854
aS'know'
p3855
aS'that'
p3856
aS'this'
p3857
aS'phone'
p3858
aS"doesn't"
p3859
aS'work'
p3860
aS'with'
p3861
aS'the'
p3862
aS'Palm,'
p3863
aS'and'
p3864
aS'if'
p3865
aS'you'
p3866
aS"don't"
p3867
aS'heed'
p3868
aS'my'
p3869
aS'advice'
p3870
aS'you'
p3871
aS'will'
p3872
aS'spend'
p3873
aS'hours'
p3874
aS'with'
p3875
aS'technicians'
p3876
aS'around'
p3877
aS'the'
p3878
aS'globe'
p3879
aS'reading'
p3880
aS'from'
p3881
aS'scripts,'
p3882
aS'chiding'
p3883
aS'you'
p3884
aS'in'
p3885
aS'broken'
p3886
aS'english'
p3887
aS'for'
p3888
aS'not'
p3889
aS'following'
p3890
aS'their'
p3891
aS'directions'
p3892
aS'exactly.'
p3893
ag28
tp3894
a((lp3895
S'You'
p3896
aS'will'
p3897
aS'also'
p3898
aS'hard-reset'
p3899
aS'both'
p3900
aS'your'
p3901
aS'Palm'
p3902
aS'and'
p3903
aS'your'
p3904
aS'Nokia'
p3905
aS'to'
p3906
aS'factory'
p3907
aS'defaults'
p3908
aS'in'
p3909
aS'their'
p3910
aS'lame'
p3911
aS'attempts'
p3912
aS'to'
p3913
aS'get'
p3914
aS'the'
p3915
aS'script'
p3916
aS'to'
p3917
aS'work,'
p3918
aS'though'
p3919
aS'it'
p3920
aS'will'
p3921
aS'not.'
p3922
ag57
tp3923
a((lp3924
S'Ultimately'
p3925
aS'you'
p3926
aS'will'
p3927
aS'learn'
p3928
aS'just'
p3929
aS'how'
p3930
aS'bad'
p3931
aS'Nokia'
p3932
aS'is,'
p3933
aS'and'
p3934
aS'why'
p3935
aS'their'
p3936
aS'recent'
p3937
aS'loss'
p3938
aS'of'
p3939
aS'market'
p3940
aS'share'
p3941
aS'is'
p3942
aS'so'
p3943
aS'utterly'
p3944
aS'deserved.'
p3945
ag28
tp3946
a((lp3947
S'The'
p3948
aS'title'
p3949
aS'pretty'
p3950
aS'much'
p3951
aS'says'
p3952
aS'it'
p3953
aS'all.'
p3954
ag57
tp3955
a((lp3956
S'The'
p3957
aS'photos'
p3958
aS'in'
p3959
aS'the'
p3960
aS'address'
p3961
aS'book'
p3962
aS'are'
p3963
aS'terribly'
p3964
aS'scaled'
p3965
aS'too;'
p3966
aS'they'
p3967
aS'look'
p3968
aS'as'
p3969
aS'though'
p3970
aS'they'
p3971
aS'were'
p3972
aS'built'
p3973
aS'out'
p3974
aS'of'
p3975
aS'legos.'
p3976
ag28
tp3977
a((lp3978
S'This'
p3979
aS'phone'
p3980
aS'is'
p3981
aS'one'
p3982
aS'of'
p3983
aS'the'
p3984
aS'best'
p3985
aS"I've"
p3986
aS'ever'
p3987
aS'used.'
p3988
ag16
tp3989
a((lp3990
S'It'
p3991
aS'has'
p3992
aS'everything'
p3993
ag12
aS'needed:'
p3994
aS'bluetooth,'
p3995
aS'infrared,'
p3996
aS'support'
p3997
aS'for'
p3998
aS'MMC,'
p3999
aS'camera,'
p4000
aS'and'
p4001
ag34
aS'good'
p4002
aS'operating'
p4003
aS'system'
p4004
aS'with'
p4005
aS'lots'
p4006
aS'of'
p4007
aS'supporting'
p4008
aS'software.'
p4009
ag16
tp4010
a((lp4011
g12
aS'would'
p4012
aS'have'
p4013
aS'given'
p4014
aS'this'
p4015
aS'phone'
p4016
aS'5'
p4017
aS'stars'
p4018
aS'if'
p4019
aS'it'
p4020
aS"wasn't"
p4021
aS'for'
p4022
aS'the'
p4023
aS'fact'
p4024
aS'that'
p4025
ag12
aS'would'
p4026
aS'rather'
p4027
aS'use'
p4028
aS'my'
p4029
aS'3330'
p4030
aS'to'
p4031
aS'do'
p4032
aS'all'
p4033
aS'the'
p4034
aS'most'
p4035
aS'common'
p4036
aS'things'
p4037
aS'you'
p4038
aS'do'
p4039
aS'with'
p4040
ag34
aS'phone.'
p4041
ag16
tp4042
a((lp4043
S"It's"
p4044
aS'important'
p4045
aS'that'
p4046
aS'people'
p4047
aS'know'
p4048
aS'the'
p4049
aS'following:'
p4050
aS'First,'
p4051
aS'the'
p4052
aS'interface'
p4053
aS'is'
p4054
aS'slow.'
p4055
ag28
tp4056
a((lp4057
S'You'
p4058
aS'hit'
p4059
aS'the'
p4060
aS'message'
p4061
aS'button'
p4062
aS'on'
p4063
aS'the'
p4064
aS'front'
p4065
aS'and'
p4066
aS'it'
p4067
aS'takes'
p4068
ag34
aS'matter'
p4069
aS'of'
p4070
aS'SECONDS'
p4071
aS'to'
p4072
aS'bring'
p4073
aS'up'
p4074
aS'the'
p4075
aS'menu.'
p4076
ag28
tp4077
a((lp4078
S'Same'
p4079
aS'with'
p4080
aS'the'
p4081
aS'contacts'
p4082
aS'list,'
p4083
aS'recent'
p4084
aS'call'
p4085
aS'list'
p4086
aS'and'
p4087
aS'everything'
p4088
aS'else.'
p4089
ag57
tp4090
a((lp4091
S'Secondly,'
p4092
aS'in'
p4093
aS'addition'
p4094
aS'to'
p4095
aS'the'
p4096
aS'lag'
p4097
aS'each'
p4098
aS'time'
p4099
aS'you'
p4100
aS'give'
p4101
ag34
aS'command,'
p4102
aS"it's"
p4103
aS'just'
p4104
aS'not'
p4105
aS'that'
p4106
aS'easily'
p4107
aS'useable'
p4108
aS'on'
p4109
aS'the'
p4110
aS'go.'
p4111
ag28
tp4112
a((lp4113
S'The'
p4114
aS'number'
p4115
aS'buttons'
p4116
aS'are'
p4117
aS'crammed'
p4118
aS'into'
p4119
ag34
aS'3x4cm'
p4120
aS'area,'
p4121
aS'the'
p4122
aS'fonts'
p4123
aS'are'
p4124
aS'small,'
p4125
aS'the'
p4126
aS'interface'
p4127
aS'is'
p4128
aS'too'
p4129
aS'convoluted'
p4130
aS'and'
p4131
aS'frustrating,'
p4132
aS"it's"
p4133
aS'not'
p4134
aS'that'
p4135
aS'customisable'
p4136
aS'as'
p4137
aS'well.'
p4138
ag28
tp4139
a((lp4140
S'The'
p4141
aS'plusses'
p4142
aS'are'
p4143
aS'the'
p4144
aS'features,'
p4145
aS'look,'
p4146
aS'good'
p4147
aS'signal'
p4148
aS'and'
p4149
aS'battery'
p4150
aS'life,'
p4151
aS'memory'
p4152
aS'size'
p4153
aS'and'
p4154
aS'robustness.'
p4155
ag16
tp4156
a((lp4157
S'The'
p4158
aS'camera'
p4159
aS'and'
p4160
aS'video'
p4161
aS'functionality'
p4162
aS'is'
p4163
aS'decent,'
p4164
ag12
aS"can't"
p4165
aS'see'
p4166
aS'myself'
p4167
aS'wasting'
p4168
aS'my'
p4169
aS'time'
p4170
aS'with'
p4171
aS'it,'
p4172
aS'but'
p4173
aS'some'
p4174
aS'people'
p4175
aS'will.'
p4176
ag16
tp4177
a((lp4178
S'All'
p4179
aS'in'
p4180
aS'all'
p4181
ag12
aS'would'
p4182
aS'say'
p4183
aS'wait'
p4184
aS'for'
p4185
aS'the'
p4186
aS'cell'
p4187
aS'phone'
p4188
aS'companies'
p4189
aS'to'
p4190
aS'create'
p4191
ag34
aS'PDA/cell'
p4192
aS'hybrid'
p4193
aS'that'
p4194
aS'is'
p4195
aS'efficient'
p4196
aS'and'
p4197
aS'easy'
p4198
aS'to'
p4199
aS'use'
p4200
aS'as'
p4201
ag34
aS'phone.'
p4202
ag57
tp4203
a((lp4204
S'this'
p4205
aS'is'
p4206
ag34
aS'great'
p4207
aS'phone'
p4208
ag1314
aS'have'
p4209
aS'this'
p4210
aS'phone'
p4211
aS'since'
p4212
aS'Feb'
p4213
aS'04'
p4214
aS'and'
p4215
ag1314
aS'never'
p4216
aS'have'
p4217
aS'any'
p4218
aS'problem'
p4219
aS'at'
p4220
aS'all.'
p4221
ag16
tp4222
a((lp4223
S'very'
p4224
aS'cool'
p4225
aS'features...'
p4226
aS'great'
p4227
aS'camera'
p4228
aS'with'
p4229
aS'zoom...cool'
p4230
aS'quality'
p4231
aS'pictures...'
p4232
aS'great'
p4233
aS'ringtones...'
p4234
aS'bluetooth'
p4235
aS'feature'
p4236
aS'is'
p4237
aS'great....'
p4238
ag16
tp4239
a((lp4240
g12
aS'have'
p4241
aS'purchased'
p4242
aS'two'
p4243
aS'of'
p4244
aS'these'
p4245
aS'phones'
p4246
aS'together'
p4247
aS'from'
p4248
aS'the'
p4249
aS'Amazon'
p4250
aS'market'
p4251
aS'place.'
p4252
ag57
tp4253
a((lp4254
S'If'
p4255
aS'you'
p4256
aS'are'
p4257
aS'purchasing'
p4258
aS'this'
p4259
aS'phone,'
p4260
aS'then'
p4261
aS'make'
p4262
aS'sure'
p4263
aS'you'
p4264
aS'can'
p4265
aS'handle'
p4266
aS'the'
p4267
aS'speed'
p4268
aS'of'
p4269
aS'this'
p4270
aS'phone.'
p4271
ag57
tp4272
a((lp4273
S'This'
p4274
aS'phone'
p4275
aS'is'
p4276
aS'not'
p4277
aS'suitable'
p4278
aS'for'
p4279
aS'fast'
p4280
aS'people,'
p4281
aS'maybe'
p4282
aS'only'
p4283
aS'for'
p4284
aS'old'
p4285
aS'people.'
p4286
ag28
tp4287
a((lp4288
S'The'
p4289
aS'menu'
p4290
aS'pops'
p4291
aS'up'
p4292
aS'after'
p4293
aS'3'
p4294
aS'seconds'
p4295
aS'The'
p4296
aS'picture'
p4297
aS'takes'
p4298
ag34
aS'while'
p4299
aS'to'
p4300
aS'load'
p4301
aS'from'
p4302
aS'its'
p4303
aS'slow'
p4304
aS'card'
p4305
aS'memory.'
p4306
ag28
tp4307
a((lp4308
S'The'
p4309
aS'navigation'
p4310
aS'takes'
p4311
aS'so'
p4312
aS'much'
p4313
aS'time'
p4314
aS'that'
p4315
aS'it'
p4316
aS'would'
p4317
aS'eventually'
p4318
aS'drive'
p4319
aS'you'
p4320
aS'crazy.'
p4321
ag28
tp4322
a((lp4323
S'Its'
p4324
aS'like'
p4325
aS'having'
p4326
ag34
aS'66Mhz'
p4327
aS'computer'
p4328
aS'with'
p4329
ag34
aS'webcam,'
p4330
aS'fax,'
p4331
aS'printer,'
p4332
aS'blue'
p4333
aS'tooth...etc...Just'
p4334
aS'an'
p4335
aS'example..'
p4336
ag57
tp4337
a((lp4338
g12
aS'bet'
p4339
aS'most'
p4340
aS'of'
p4341
aS'the'
p4342
aS'users'
p4343
aS'of'
p4344
aS'this'
p4345
aS'phone'
p4346
aS'would'
p4347
aS'agree.'
p4348
ag57
tp4349
a((lp4350
S'Sometimes,the'
p4351
aS'phone'
p4352
aS'gets'
p4353
aS'stuck'
p4354
aS'just'
p4355
aS'like'
p4356
ag34
aS'computer'
p4357
aS'and'
p4358
aS'it'
p4359
aS'doesnt'
p4360
aS'store'
p4361
aS'any'
p4362
aS'incoming'
p4363
aS'call'
p4364
aS'numbers..etc..'
p4365
ag57
tp4366
a((lp4367
S'If'
p4368
aS'you'
p4369
aS'find'
p4370
ag34
aS'better'
p4371
aS'phone,'
p4372
aS'then'
p4373
ag12
aS'suggest'
p4374
aS'you'
p4375
aS'go'
p4376
aS'for'
p4377
aS'it.'
p4378
ag57
tp4379
a((lp4380
S'At'
p4381
aS'first'
p4382
aS'glance,'
p4383
ag12
aS'thought'
p4384
aS'this'
p4385
aS'phone'
p4386
aS'was'
p4387
ag34
aS'little'
p4388
aS'too'
p4389
aS'big'
p4390
aS'for'
p4391
aS'me,'
p4392
aS'maybe'
p4393
ag34
aS'little'
p4394
aS'too'
p4395
aS'complicated.'
p4396
ag28
tp4397
a((lp4398
S'One'
p4399
aS'minute'
p4400
aS'with'
p4401
aS'the'
p4402
aS'salesman'
p4403
aS'and'
p4404
ag12
aS'was'
p4405
aS'sold.'
p4406
ag57
tp4407
a((lp4408
S'This'
p4409
aS'thing'
p4410
aS'does'
p4411
aS'everything'
p4412
aS'but'
p4413
aS'washes'
p4414
aS'your'
p4415
aS'dishes.'
p4416
ag16
tp4417
a((lp4418
g12
aS'can'
p4419
aS'use'
p4420
aS'it'
p4421
aS'as'
p4422
ag34
aS'modem'
p4423
aS'for'
p4424
aS'my'
p4425
aS'computer,'
p4426
aS'connect'
p4427
aS'with'
p4428
aS'clients'
p4429
aS'and'
p4430
aS'friends,'
p4431
aS'the'
p4432
aS'possibilities'
p4433
aS'are'
p4434
aS'endless.'
p4435
ag16
tp4436
a((lp4437
S'The'
p4438
aS'ringtones'
p4439
aS'are'
p4440
aS'beautiful,'
p4441
aS'the'
p4442
aS'screen'
p4443
aS'is'
p4444
aS'super'
p4445
aS'high'
p4446
aS'quality.'
p4447
ag16
tp4448
a((lp4449
g12
aS'could'
p4450
aS'go'
p4451
aS'on'
p4452
aS'and'
p4453
aS'on---but'
p4454
ag12
aS"won't!"
p4455
ag57
tp4456
a((lp4457
S'Go'
p4458
aS'see'
p4459
aS'for'
p4460
aS'yourself.'
p4461
ag57
tp4462
a((lp4463
S'The'
p4464
aS'ONLY'
p4465
aS'bad'
p4466
aS'thing?'
p4467
ag57
tp4468
a((lp4469
g12
aS'can'
p4470
aS'NOT'
p4471
aS'find'
p4472
ag34
aS'carrier'
p4473
aS'for'
p4474
aS'this'
p4475
aS'phone'
p4476
ag12
aS'like,'
p4477
aS'end'
p4478
aS'up'
p4479
aS'just'
p4480
aS'tossing'
p4481
aS'it'
p4482
aS'in'
p4483
aS'my'
p4484
aS'purse.'
p4485
ag28
tp4486
a((lp4487
g12
aS'do'
p4488
aS'not'
p4489
aS'need'
p4490
aS'to'
p4491
aS'repeat'
p4492
aS"what's"
p4493
aS'great'
p4494
aS'about'
p4495
aS'this'
p4496
aS'phone.'
p4497
ag16
tp4498
a((lp4499
g1735
aS'few'
p4500
aS'things'
p4501
aS'that'
p4502
ag12
aS'want'
p4503
aS'to'
p4504
aS'suggest'
p4505
aS'for'
p4506
aS'improvements:'
p4507
ag57
tp4508
a((lp4509
S'1)'
p4510
aS'phone'
p4511
aS'card'
p4512
aS'calling'
p4513
aS'feature.'
p4514
ag57
tp4515
a((lp4516
S'This'
p4517
aS'phone'
p4518
aS"doesn't"
p4519
aS'include'
p4520
aS'Phone'
p4521
aS'card'
p4522
aS'calling.'
p4523
ag28
tp4524
a((lp4525
S'So'
p4526
aS'you'
p4527
aS'have'
p4528
aS'to'
p4529
aS'dial'
p4530
aS'your'
p4531
aS'phone'
p4532
aS'card'
p4533
aS'access'
p4534
aS'number,'
p4535
aS'PIN'
p4536
aS'card,'
p4537
aS'and'
p4538
aS'choose'
p4539
aS'"send'
p4540
aS'touch'
p4541
aS'tone"'
p4542
aS'and'
p4543
aS'find'
p4544
aS'your'
p4545
aS'contact'
p4546
aS'from'
p4547
aS'the'
p4548
aS'address'
p4549
aS'book.'
p4550
ag57
tp4551
a((lp4552
S'This'
p4553
aS'process'
p4554
aS'can'
p4555
aS'be'
p4556
aS'very'
p4557
aS'annoying'
p4558
aS'and'
p4559
aS'unsafe'
p4560
aS'when'
p4561
aS'you'
p4562
aS'are'
p4563
aS'driving'
p4564
ag34
aS'stick'
p4565
aS'shift'
p4566
aS'on'
p4567
aS'the'
p4568
aS'highway.'
p4569
ag28
tp4570
a((lp4571
S'For'
p4572
aS'phone'
p4573
aS'card'
p4574
aS'with'
p4575
aS'PIN'
p4576
aS'Free'
p4577
aS'dialing'
p4578
aS'setup,'
p4579
aS'you'
p4580
aS'are'
p4581
ag34
aS'little'
p4582
aS'bit'
p4583
aS'lucky.'
p4584
ag57
tp4585
a((lp4586
S'All'
p4587
aS'you'
p4588
aS'need'
p4589
aS'to'
p4590
aS'do'
p4591
aS'is'
p4592
aS'to'
p4593
aS'choose'
p4594
aS'your'
p4595
aS'"phone'
p4596
aS'card"'
p4597
aS'contact'
p4598
aS'and'
p4599
aS'then'
p4600
aS'"send'
p4601
aS'touch'
p4602
aS'tone"'
p4603
aS'and'
p4604
aS'choose'
p4605
aS'the'
p4606
aS'contact.'
p4607
ag57
tp4608
a((lp4609
S'This'
p4610
aS'feature'
p4611
aS'is'
p4612
aS'very'
p4613
aS'important'
p4614
aS'to'
p4615
aS'me'
p4616
aS'as'
p4617
ag12
aS'make'
p4618
ag34
aS'lot'
p4619
aS'of'
p4620
aS'international'
p4621
aS'calls.'
p4622
ag57
tp4623
a((lp4624
S'My'
p4625
aS'old'
p4626
aS'Sony'
p4627
aS'Ericsson'
p4628
aS'T610'
p4629
aS'has'
p4630
aS'this'
p4631
aS'feature.'
p4632
ag28
tp4633
a((lp4634
S'All'
p4635
ag12
aS'need'
p4636
aS'to'
p4637
aS'do'
p4638
aS'is'
p4639
aS'to'
p4640
aS'choose'
p4641
aS'the'
p4642
aS'contact'
p4643
aS'and'
p4644
aS'in'
p4645
aS'option'
p4646
aS'select'
p4647
aS'"calling'
p4648
aS'card'
p4649
aS'call".'
p4650
ag57
tp4651
a((lp4652
S'2)'
p4653
aS'Low'
p4654
aS'volume'
p4655
aS'on'
p4656
aS'regular'
p4657
aS'answering.'
p4658
ag57
tp4659
a((lp4660
S'In'
p4661
aS'noisy'
p4662
aS'environment,'
p4663
aS"it's"
p4664
aS'hard'
p4665
aS'to'
p4666
aS'hear'
p4667
aS'from'
p4668
aS'the'
p4669
aS'earpiece.'
p4670
ag28
tp4671
a((lp4672
S'You'
p4673
aS'have'
p4674
aS'to'
p4675
aS'use'
p4676
aS'speaker'
p4677
aS'or'
p4678
aS'handsfree,'
p4679
aS'to'
p4680
aS'get'
p4681
aS'larger'
p4682
aS'volume.'
p4683
ag57
tp4684
a((lp4685
S'Speaker'
p4686
aS'volume'
p4687
aS'is'
p4688
aS'loud'
p4689
aS'and'
p4690
aS'clear'
p4691
aS'but'
p4692
aS'it'
p4693
aS'sacrifaces'
p4694
aS'the'
p4695
aS'battery'
p4696
aS'life.'
p4697
ag28
tp4698
a((lp4699
S'Most'
p4700
aS'of'
p4701
aS'thew'
p4702
aS'reviews'
p4703
aS'are'
p4704
aS'high'
p4705
aS'for'
p4706
aS'this'
p4707
aS'phone'
p4708
aS'......'
p4709
ag57
tp4710
a((lp4711
S'My'
p4712
aS'explanation'
p4713
aS'is'
p4714
aS'that'
p4715
aS'most'
p4716
aS'of'
p4717
aS'the'
p4718
aS'reviewers'
p4719
aS'are'
p4720
aS'americans'
p4721
aS'that'
p4722
aS'live'
p4723
aS'in'
p4724
aS'the'
p4725
aS'states'
p4726
aS'.....'
p4727
ag57
tp4728
a((lp4729
S'the'
p4730
aS'difference'
p4731
aS'is'
p4732
aS':'
p4733
aS'until'
p4734
aS'recently'
p4735
aS'there'
p4736
aS'have'
p4737
aS'been'
p4738
aS'no'
p4739
aS'GSM'
p4740
aS'networks'
p4741
aS'in'
p4742
ag34
aS'wide'
p4743
aS'scale'
p4744
ag379
aS'so'
p4745
aS'most'
p4746
aS'cell'
p4747
aS'network'
p4748
aS'companies'
p4749
aS'supplied'
p4750
aS'consumers'
p4751
aS'with'
p4752
aS'cells'
p4753
ag379
aS'we'
p4754
aS'in'
p4755
aS'the'
p4756
aS'middle'
p4757
aS'east'
p4758
aS'(for'
p4759
aS'example)'
p4760
aS'have'
p4761
aS'stopped'
p4762
aS'using'
p4763
aS'years'
p4764
aS'ago'
p4765
aS'....'
p4766
ag57
tp4767
a((lp4768
S'So'
p4769
aS'no'
p4770
aS'wonder'
p4771
ag34
aS'lot'
p4772
aS'of'
p4773
aS'people'
p4774
aS'find'
p4775
aS'the'
p4776
aS'6600'
p4777
aS'such'
p4778
ag34
aS'miracle'
p4779
aS'.'
p4780
ag57
tp4781
a((lp4782
g12
aS'have'
p4783
aS'purchased'
p4784
aS'the'
p4785
aS'6600'
p4786
aS'when'
p4787
aS'it'
p4788
aS'was'
p4789
aS'first'
p4790
aS'released'
p4791
aS'in'
p4792
aS'The'
p4793
aS'Middle'
p4794
aS'East'
p4795
ag379
aS'almost'
p4796
ag34
aS'month'
p4797
aS'before'
p4798
aS'Europe'
p4799
ag379
aS'and'
p4800
aS'reading'
p4801
aS'the'
p4802
aS'brochures'
p4803
aS'and'
p4804
aS'features'
p4805
ag379
aS'it'
p4806
aS'really'
p4807
aS'did'
p4808
aS'sound'
p4809
aS'like'
p4810
ag34
aS'true'
p4811
aS'all-in-one'
p4812
aS'functionality'
p4813
aS'monster'
p4814
ag4780
ag57
tp4815
a((lp4816
S'Unfortunately'
p4817
ag379
ag12
aS'sold'
p4818
aS'it'
p4819
aS'exactly'
p4820
ag34
aS'month'
p4821
aS'later'
p4822
ag4780
ag28
tp4823
a((lp4824
S'1-A'
p4825
aS'cell'
p4826
aS'phone'
p4827
aS'is'
p4828
aS'to'
p4829
aS'make'
p4830
aS'CALLS'
p4831
ag379
aS'in'
p4832
aS'other'
p4833
aS'words'
p4834
ag379
aS'quality'
p4835
aS'of'
p4836
aS'reception'
p4837
aS'and'
p4838
aS'mic/speaker'
p4839
aS'are'
p4840
aS'the'
p4841
aS'most'
p4842
aS'important'
p4843
ag379
aS'the'
p4844
aS'6600'
p4845
aS'has'
p4846
ag34
aS'relatively'
p4847
aS'low'
p4848
aS'volume'
p4849
aS'speaker'
p4850
ag379
aS"you'd"
p4851
aS'have'
p4852
aS'to'
p4853
aS'press'
p4854
aS'it'
p4855
aS'hard'
p4856
aS'against'
p4857
aS'your'
p4858
aS'ear'
p4859
aS'to'
p4860
aS'hear'
p4861
aS'anything'
p4862
aS'the'
p4863
aS'other'
p4864
aS'person'
p4865
aS'is'
p4866
aS'saying'
p4867
ag379
aS'unless'
p4868
aS'the'
p4869
aS'surroundings'
p4870
aS'were'
p4871
aS'completely'
p4872
aS'quiet'
p4873
ag4780
ag28
tp4874
a((lp4875
S'2-'
p4876
aS'It'
p4877
aS'is'
p4878
aS'bulky'
p4879
aS'and'
p4880
aS'the'
p4881
aS'small'
p4882
aS'buttons'
p4883
aS'on'
p4884
aS'the'
p4885
aS'sides'
p4886
aS'are'
p4887
aS'sloppy'
p4888
aS'to'
p4889
aS'use'
p4890
ag4780
ag28
tp4891
a((lp4892
S'3-'
p4893
aS'It'
p4894
aS'is'
p4895
aS'SLOW'
p4896
ag379
aS'if'
p4897
aS'you'
p4898
aS'keep'
p4899
aS'the'
p4900
aS'original'
p4901
aS'configuration'
p4902
aS'and'
p4903
aS'progs'
p4904
aS"(why'd"
p4905
aS'u'
p4906
aS'buy'
p4907
aS'it'
p4908
aS'then'
p4909
aS'?!)'
p4910
aS"it'll"
p4911
aS'run'
p4912
aS'smoothly'
p4913
ag379
aS'but'
p4914
aS'still'
p4915
aS'slower'
p4916
aS'than'
p4917
aS'most'
p4918
aS'other'
p4919
aS'coloured-screen'
p4920
aS'Nokias'
p4921
ag4780
ag28
tp4922
a((lp4923
S'As'
p4924
aS'soon'
p4925
aS'as'
p4926
aS'you'
p4927
aS'copy'
p4928
aS'video/audio'
p4929
aS'files'
p4930
aS'and'
p4931
aS'add'
p4932
aS'some'
p4933
aS'programs'
p4934
aS'and'
p4935
aS'games'
p4936
ag379
aS'it'
p4937
aS'WILL'
p4938
aS'hang'
p4939
aS'at'
p4940
aS'least'
p4941
aS'5-10'
p4942
aS'times'
p4943
ag34
aS'day.'
p4944
ag57
tp4945
a((lp4946
g1735
aS'firmware'
p4947
aS'upgrade'
p4948
aS'is'
p4949
aS'irrelevant'
p4950
ag4780
ag57
tp4951
a((lp4952
S'4-'
p4953
aS'My'
p4954
aS'idea'
p4955
aS'was'
p4956
aS'that'
p4957
aS'it'
p4958
aS'was'
p4959
aS'an'
p4960
aS'all-in-one'
p4961
ag379
aS'and'
p4962
aS'that'
p4963
aS'theory'
p4964
aS'-once'
p4965
aS'again-'
p4966
aS'proves'
p4967
aS'wrong'
p4968
ag379
aS'this'
p4969
aS'phone'
p4970
aS'excells'
p4971
aS'at'
p4972
aS'nothing'
p4973
ag379
aS'less'
p4974
aS'than'
p4975
aS'average'
p4976
aS'in'
p4977
aS'everything'
p4978
ag379
aS'if'
p4979
aS'you'
p4980
aS'seriously'
p4981
aS'need'
p4982
aS'any'
p4983
aS'of'
p4984
aS'the'
p4985
aS'"other'
p4986
aS'than'
p4987
aS'phone"'
p4988
aS'functionalities'
p4989
ag379
aS"you'll"
p4990
aS'be'
p4991
aS'disappointed'
p4992
aS'....'
p4993
aS'if'
p4994
aS'you'
p4995
aS'have'
p4996
aS'lots'
p4997
aS'of'
p4998
aS'money'
p4999
aS'and'
p5000
aS'bought'
p5001
aS'it'
p5002
aS'for'
p5003
aS'the'
p5004
aS'love'
p5005
aS'of'
p5006
aS'gadgets'
p5007
aS'then'
p5008
aS'fine'
p5009
aS'....'
p5010
aS'but'
p5011
aS"don't"
p5012
aS'expect'
p5013
aS'to'
p5014
aS'get'
p5015
aS'much'
p5016
aS'done'
p5017
ag4780
ag28
tp5018
a((lp5019
S'5-'
p5020
aS'If'
p5021
aS'you'
p5022
aS'already'
p5023
aS'have'
p5024
ag34
aS'girlfriend'
p5025
aS'and/or'
p5026
aS'wife'
p5027
ag379
aS'you'
p5028
aS"won't"
p5029
aS'need'
p5030
aS'Bluetooth'
p5031
aS'lol'
p5032
ag4780
ag57
tp5033
a((lp5034
S'Basically'
p5035
aS'the'
p5036
aS'6600'
p5037
aS'is'
p5038
ag34
aS'bundle'
p5039
aS'of'
p5040
aS'over-hyped'
p5041
aS'features'
p5042
aS'you'
p5043
aS"don't"
p5044
aS'and'
p5045
aS"won't"
p5046
aS'need'
p5047
aS'(if'
p5048
aS'you'
p5049
aS'do'
p5050
aS'get'
p5051
aS'yourself'
p5052
ag34
aS'PDA'
p5053
aS'or'
p5054
aS'pocket'
p5055
aS'PC)'
p5056
ag379
aS'none'
p5057
aS'of'
p5058
aS'them'
p5059
aS'work'
p5060
aS'as'
p5061
aS'they'
p5062
aS'should'
p5063
ag379
aS'and'
p5064
aS'the'
p5065
aS'basic'
p5066
aS'phone'
p5067
aS'functions'
p5068
aS'and'
p5069
aS'ergonomics'
p5070
aS'are'
p5071
aS'less'
p5072
aS'than'
p5073
aS'average'
p5074
ag4780
ag28
tp5075
a((lp5076
S"I'm"
p5077
aS'an'
p5078
aS'advocate'
p5079
aS'of'
p5080
aS'Nokia'
p5081
ag379
aS'but'
p5082
aS'this'
p5083
aS'phone'
p5084
aS'and'
p5085
aS'the'
p5086
aS'following'
p5087
aS'models'
p5088
aS'(7610)'
p5089
ag379
aS'are'
p5090
aS'seemingly'
p5091
ag34
aS'desperate'
p5092
aS'trial'
p5093
aS'at'
p5094
aS'squeezing'
p5095
aS'as'
p5096
aS'much'
p5097
aS'under-engineered'
p5098
aS'and'
p5099
aS'experimental'
p5100
aS'technologies'
p5101
aS'in'
p5102
aS'one'
p5103
aS'sloppy'
p5104
aS'phone'
p5105
ag4780
ag28
tp5106
a((lp5107
S"I'm"
p5108
aS'giving'
p5109
aS'it'
p5110
aS'1'
p5111
aS'star'
p5112
aS'because'
p5113
aS'as'
p5114
aS'compared'
p5115
aS'to'
p5116
aS'other'
p5117
aS'Nokia'
p5118
aS'phones'
p5119
ag379
aS'its'
p5120
ag34
ag5111
ag379
aS'compared'
p5121
aS'to'
p5122
aS'other'
p5123
aS'blunders'
p5124
aS'by'
p5125
aS'other'
p5126
aS'companies'
p5127
aS'(such'
p5128
ag34
aS'samsung'
p5129
aS'and'
p5130
aS'motorrola)'
p5131
aS'it'
p5132
aS'might'
p5133
aS'be'
p5134
aS'good'
p5135
aS'....'
p5136
aS'but'
p5137
aS'if'
p5138
aS"you're"
p5139
aS'getting'
p5140
ag34
aS'Nokia'
p5141
ag379
aS"don't"
p5142
aS'get'
p5143
aS'this'
p5144
aS'one'
p5145
ag4780
ag28
tp5146
a((lp5147
g12
aS'bought'
p5148
aS'this'
p5149
aS'phone'
p5150
ag34
aS'few'
p5151
aS'months'
p5152
aS'ago'
p5153
aS'and'
p5154
ag12
aS'have'
p5155
aS'been'
p5156
aS'using'
p5157
aS'it'
p5158
aS'since'
p5159
aS'then.'
p5160
ag57
tp5161
a((lp5162
g12
aS'never'
p5163
aS'had'
p5164
ag34
aS'single'
p5165
aS'problem.'
p5166
ag16
tp5167
a((lp5168
S'It'
p5169
aS'is'
p5170
aS'Nokia'
p5171
aS'and'
p5172
aS'thus'
p5173
aS'easy'
p5174
aS'to'
p5175
aS'acces'
p5176
aS'the'
p5177
aS'menu'
p5178
aS'options.'
p5179
ag16
tp5180
a((lp5181
S'High'
p5182
aS'quality'
p5183
aS'video'
p5184
aS'and'
p5185
aS'pictures'
p5186
aS'rock!'
p5187
ag16
tp5188
a((lp5189
g4294
aS'band'
p5190
aS'and'
p5191
aS'you'
p5192
aS'can'
p5193
aS'just'
p5194
aS'change'
p5195
aS'the'
p5196
aS'SIM'
p5197
aS'card'
p5198
aS'in'
p5199
aS'it'
p5200
aS'to'
p5201
aS'be'
p5202
aS'able'
p5203
aS'to'
p5204
aS'use'
p5205
aS'it'
p5206
aS'in'
p5207
aS'Europe'
p5208
aS'with'
p5209
aS'another'
p5210
aS'service'
p5211
aS'provider.'
p5212
ag16
tp5213
a((lp5214
S'Bottom'
p5215
aS'line'
p5216
aS'great'
p5217
aS'phone'
p5218
aS'for'
p5219
aS'the'
p5220
aS'time'
p5221
aS'being.'
p5222
ag16
tp5223
a((lp5224
g12
aS'use'
p5225
ag34
aS'Nokia'
p5226
aS'6600,'
p5227
aS'it'
p5228
aS'has'
p5229
ag34
aS'great'
p5230
aS'color'
p5231
aS'TFT'
p5232
aS'display'
p5233
aS'and'
p5234
aS'camera'
p5235
aS'equipped'
p5236
aS'with'
p5237
aS'zoom,'
p5238
aS'which'
p5239
aS'complement'
p5240
ag34
aS'built-in'
p5241
aS'video'
p5242
aS'recorder'
p5243
aS'with'
p5244
aS'audio'
p5245
aS'and'
p5246
ag34
aS'RealOne'
p5247
aS'player'
p5248
aS'for'
p5249
aS'playback'
p5250
aS'and'
p5251
aS'streaming'
p5252
aS'of'
p5253
aS'3GPP-compatible'
p5254
aS'and'
p5255
aS'RealMedia'
p5256
aS'video'
p5257
aS'clips.'
p5258
ag16
tp5259
a((lp5260
S'Multimedia'
p5261
aS'functions'
p5262
aS'are'
p5263
aS'enhanced'
p5264
aS'by'
p5265
aS'multi-slide'
p5266
aS'MMS'
p5267
aS'messages'
p5268
aS'and'
p5269
ag34
aS'Gallery'
p5270
aS'for'
p5271
aS'organizing'
p5272
aS'digital'
p5273
aS'content'
p5274
aS'captured'
p5275
aS'or'
p5276
aS'downloaded'
p5277
aS'with'
p5278
aS'the'
p5279
aS'phone.'
p5280
ag16
tp5281
a((lp5282
S'So,'
p5283
aS'do'
p5284
ag12
aS'recommend'
p5285
aS'the'
p5286
aS'6600?'
p5287
ag57
tp5288
a((lp5289
S'Yes,'
p5290
aS'certainly.'
p5291
ag57
tp5292
a((lp5293
S'But'
p5294
aS'if'
p5295
aS'you'
p5296
aS'are'
p5297
aS'in'
p5298
aS'the'
p5299
aS'market'
p5300
aS'for'
p5301
ag34
aS'new'
p5302
aS'business'
p5303
aS'capable'
p5304
aS'phone,'
p5305
aS'and'
p5306
aS"don't"
p5307
aS'want'
p5308
aS'to'
p5309
aS'deal'
p5310
aS'with'
p5311
ag34
aS'stylus'
p5312
aS'equipped'
p5313
aS'PDA'
p5314
aS'like'
p5315
aS'device'
p5316
aS'such'
p5317
aS'as'
p5318
aS'the'
p5319
aS'P900,'
p5320
aS'then'
p5321
aS'the'
p5322
aS'6600'
p5323
aS'will'
p5324
aS'probably'
p5325
aS'suit'
p5326
aS'you'
p5327
aS'just'
p5328
aS'fine.'
p5329
ag57
tp5330
a((lp5331
S'The'
p5332
aS'Nokia'
p5333
aS'6600'
p5334
aS'is'
p5335
ag34
aS'decent'
p5336
aS'extension'
p5337
aS'of'
p5338
aS'the'
p5339
aS'smartphone'
p5340
aS'line.'
p5341
ag16
tp5342
a((lp5343
S'The'
p5344
aS'phone'
p5345
aS'has'
p5346
aS'such'
p5347
aS'advantages'
p5348
aS'as'
p5349
aS'the'
p5350
aS'excellent'
p5351
aS'keypad'
p5352
aS'and'
p5353
aS'display,'
p5354
aS'long'
p5355
aS'rundown'
p5356
aS'time'
p5357
aS'and'
p5358
ag34
aS'good'
p5359
aS'software'
p5360
aS'suite.'
p5361
ag16
tp5362
a((lp5363
S'Among'
p5364
aS'its'
p5365
aS'weak'
p5366
aS'points'
p5367
aS'is'
p5368
aS'the'
p5369
aS'MMC'
p5370
aS'slot'
p5371
aS'location'
p5372
aS'and'
p5373
ag34
aS'bit'
p5374
aS'vague'
p5375
aS'design.'
p5376
ag28
tp5377
a((lp5378
S'In'
p5379
aS'short,'
p5380
aS'the'
p5381
aS'Nokia'
p5382
aS'6600'
p5383
aS'is'
p5384
aS'an'
p5385
aS'evolution'
p5386
aS'but'
p5387
aS'not'
p5388
ag34
aS'revolution.'
p5389
ag16
tp5390
a((lp5391
S"I'm"
p5392
aS'sure'
p5393
aS'you'
p5394
aS'can'
p5395
aS'read'
p5396
aS'the'
p5397
aS'specs'
p5398
aS'above'
p5399
aS'to'
p5400
aS'see'
p5401
aS'everything'
p5402
aS'it'
p5403
aS'does,'
p5404
aS'but'
p5405
aS'for'
p5406
aS'me'
p5407
aS'the'
p5408
aS'best'
p5409
aS'thing'
p5410
aS'is'
p5411
aS'that'
p5412
ag12
aS'can'
p5413
aS'easily'
p5414
aS'check'
p5415
aS'my'
p5416
aS'email,'
p5417
aS'movie'
p5418
aS'times,'
p5419
aS'news,'
p5420
aS'or'
p5421
aS'any'
p5422
aS'website'
p5423
aS'with'
p5424
aS'this'
p5425
aS'phone.'
p5426
ag16
tp5427
a((lp5428
S'You'
p5429
aS'can'
p5430
aS'take'
p5431
aS'pic'
p5432
aS'of'
p5433
aS'your'
p5434
aS'friends'
p5435
aS'and'
p5436
aS'the'
p5437
aS'picture'
p5438
aS'will'
p5439
aS'pop'
p5440
aS'up'
p5441
aS'when'
p5442
aS'they'
p5443
aS'call.'
p5444
ag16
tp5445
a((lp5446
S'Give'
p5447
aS'each'
p5448
aS'friend'
p5449
ag34
aS'different'
p5450
aS'ringtone.'
p5451
ag16
tp5452
a((lp5453
S'Get'
p5454
aS'great'
p5455
aS'themes'
p5456
aS'and'
p5457
aS'wallpapers'
p5458
aS'for'
p5459
aS'this'
p5460
aS'phone'
p5461
aS'and'
p5462
aS'many'
p5463
aS'many'
p5464
aS'polyphonic'
p5465
aS'rings.'
p5466
ag16
tp5467
a((lp5468
g1735
aS'huge'
p5469
aS'beautiful'
p5470
aS'color'
p5471
aS'screen'
p5472
aS'which'
p5473
aS'can'
p5474
aS'not'
p5475
aS'been'
p5476
aS'scratched'
p5477
aS'at'
p5478
aS'all'
p5479
aS'even'
p5480
aS'with'
p5481
aS'the'
p5482
aS'rough'
p5483
aS'handling'
p5484
ag1314
aS'give'
p5485
aS'it.'
p5486
ag16
tp5487
a((lp5488
S'Nokia'
p5489
aS'makes'
p5490
aS'great'
p5491
aS'phones,'
p5492
aS'and'
p5493
aS'this'
p5494
aS'one'
p5495
aS'is'
p5496
aS'the'
p5497
aS'cream'
p5498
aS'of'
p5499
aS'the'
p5500
aS'crop.'
p5501
ag16
tp5502
a((lp5503
S'Best'
p5504
aS'phone'
p5505
aS"i've"
p5506
aS'ever'
p5507
aS'owned,'
p5508
aS'period.'
p5509
ag16
tp5510
a((lp5511
S"I've"
p5512
aS'been'
p5513
aS'using'
p5514
aS'this'
p5515
aS'phone'
p5516
aS'for'
p5517
ag4294
aS'days'
p5518
aS'now,'
p5519
aS'and'
p5520
aS'while'
p5521
ag12
aS'admit'
p5522
aS'that'
p5523
aS'seems'
p5524
aS"doesn't"
p5525
aS'seem'
p5526
aS'like'
p5527
aS'very'
p5528
aS'long'
p5529
aS'--'
p5530
ag12
aS'should'
p5531
aS'also'
p5532
aS'point'
p5533
aS'out'
p5534
aS'that'
p5535
aS"I've"
p5536
aS'been'
p5537
aS'using'
p5538
aS'it'
p5539
aS'almost'
p5540
aS'non-stop.'
p5541
ag57
tp5542
a((lp5543
S'Frankly,'
p5544
ag12
aS'think'
p5545
aS'this'
p5546
aS'is'
p5547
aS'one'
p5548
aS'of'
p5549
aS'the'
p5550
aS'niftiest'
p5551
aS'pieces'
p5552
aS'of'
p5553
aS'hardware'
p5554
aS"I've"
p5555
aS'ever'
p5556
aS'used.'
p5557
ag16
tp5558
a((lp5559
S'It'
p5560
aS'is'
p5561
aS'slow'
p5562
aS'to'
p5563
aS'initially'
p5564
aS'start'
p5565
aS'up,'
p5566
aS'but'
p5567
aS'once'
p5568
aS"it's"
p5569
aS'turned'
p5570
aS'on,'
p5571
aS"I've"
p5572
aS'never'
p5573
aS'had'
p5574
aS'any'
p5575
aS'complaints'
p5576
aS'about'
p5577
aS'the'
p5578
aS'speed.'
p5579
ag16
tp5580
a((lp5581
S'Over'
p5582
aS'the'
p5583
aS'past'
p5584
aS'three'
p5585
aS'days,'
p5586
aS"I've"
p5587
aS'only'
p5588
aS'had'
p5589
aS'to'
p5590
aS'turn'
p5591
aS'the'
p5592
aS'phone'
p5593
aS'off'
p5594
aS'twice,'
p5595
aS'so'
p5596
ag12
aS'rarely'
p5597
aS'have'
p5598
aS'to'
p5599
aS'deal'
p5600
aS'with'
p5601
aS'the'
p5602
aS'delay'
p5603
aS'in'
p5604
aS'initially'
p5605
aS'booting'
p5606
aS'the'
p5607
aS'phone.'
p5608
ag57
tp5609
a((lp5610
S'Everything,'
p5611
aS'so'
p5612
aS'far,'
p5613
aS'has'
p5614
aS'worked'
p5615
aS'flawlessly.'
p5616
ag16
tp5617
a((lp5618
S"I've"
p5619
aS'synched'
p5620
aS'it'
p5621
aS'with'
p5622
aS'my'
p5623
aS'PC'
p5624
aS'over'
p5625
aS'bluetooth.'
p5626
ag57
tp5627
a((lp5628
S"I've"
p5629
aS'synched'
p5630
aS'it'
p5631
aS'with'
p5632
aS'my'
p5633
aS'Jabra'
p5634
aS'250'
p5635
aS'bluetooth'
p5636
aS'headset.'
p5637
ag57
tp5638
a((lp5639
S"I've"
p5640
aS'been'
p5641
aS'on'
p5642
aS'the'
p5643
aS'phone,'
p5644
aS'while'
p5645
aS'browsing'
p5646
aS'the'
p5647
aS'net'
p5648
aS'over'
p5649
ag34
aS'GPRS'
p5650
aS'connection,'
p5651
aS'while'
p5652
aS'sending'
p5653
ag34
aS'text'
p5654
aS'message.'
p5655
ag57
tp5656
a((lp5657
S'All'
p5658
aS'at'
p5659
aS'the'
p5660
aS'same'
p5661
aS'time,'
p5662
aS'and'
p5663
aS'all'
p5664
aS'without'
p5665
ag34
aS'hitch.'
p5666
ag16
tp5667
a((lp5668
g12
aS'think'
p5669
aS'the'
p5670
aS'interface'
p5671
aS'is'
p5672
aS'great.'
p5673
ag16
tp5674
a((lp5675
g12
aS'actually'
p5676
aS'purchased'
p5677
aS'two'
p5678
aS'phones'
p5679
aS'recently'
p5680
aS'(this'
p5681
aS'one'
p5682
aS'at'
p5683
aS'the'
p5684
aS'new'
p5685
aS'Blackberry'
p5686
aS'phone),'
p5687
aS'and'
p5688
aS'this'
p5689
aS'one'
p5690
aS'is'
p5691
aS'far'
p5692
aS'superior'
p5693
aS'(IMHO).'
p5694
ag16
tp5695
a((lp5696
S'In'
p5697
aS'short,'
p5698
ag12
aS"don't"
p5699
aS'have'
p5700
ag34
aS'single'
p5701
aS'negative'
p5702
aS'thing'
p5703
aS'to'
p5704
aS'say.'
p5705
ag57
tp5706
a((lp5707
g12
aS'love'
p5708
aS'the'
p5709
aS'features,'
p5710
aS'the'
p5711
aS'interface,'
p5712
aS'the'
p5713
aS'size'
p5714
aS'(the'
p5715
aS'screen'
p5716
aS'is'
p5717
ag34
aS'delight),'
p5718
aS'the'
p5719
aS'camera'
p5720
aS'(though'
p5721
ag12
aS'admit'
p5722
aS"I'm"
p5723
aS'not'
p5724
aS'much'
p5725
aS'of'
p5726
ag34
aS'camera'
p5727
aS'user'
p5728
aS'--'
p5729
aS'so'
p5730
aS'just'
p5731
ag34
aS'toy'
p5732
aS'for'
p5733
aS'me),'
p5734
aS'the'
p5735
aS'internet'
p5736
aS'connectivity,'
p5737
aS'the'
p5738
aS'quality,'
p5739
aS'etc.'
p5740
ag16
tp5741
a((lp5742
S'If'
p5743
ag12
aS'had'
p5744
aS'to'
p5745
aS'do'
p5746
aS'it'
p5747
aS'over,'
p5748
ag12
aS"wouldn't"
p5749
aS'buy'
p5750
aS'anything'
p5751
aS'else.'
p5752
ag16
tp5753
a((lp5754
g12
aS'bought'
p5755
aS'this'
p5756
aS'phone'
p5757
aS'after'
p5758
aS'having'
p5759
aS'other'
p5760
aS'phones'
p5761
aS'that'
p5762
aS'had'
p5763
aS'less-than-consistant'
p5764
aS'reception.'
p5765
ag57
tp5766
a((lp5767
S'UPSIDE:'
p5768
aS'This'
p5769
aS'one,'
p5770
aS'like'
p5771
aS'most'
p5772
aS'Nokias,'
p5773
aS'receives'
p5774
ag34
aS'consistently'
p5775
aS'strong'
p5776
aS'signal'
p5777
aS"(I've"
p5778
aS'tried'
p5779
aS'some'
p5780
aS'Samsung'
p5781
aS'and'
p5782
aS'Sony'
p5783
aS'Ericsson'
p5784
aS'models'
p5785
aS'which'
p5786
aS'were'
p5787
aS'very'
p5788
aS'weak'
p5789
aS'on'
p5790
aS'the'
p5791
aS'reception'
p5792
aS'front).'
p5793
ag16
tp5794
a((lp5795
g12
aS'love'
p5796
aS'the'
p5797
aS'Bluetooth;'
p5798
aS'easy'
p5799
aS'to'
p5800
aS'use'
p5801
aS'with'
p5802
ag34
aS'wireless'
p5803
aS'Jabra'
p5804
aS'headset.'
p5805
ag16
tp5806
a((lp5807
S'Photos'
p5808
aS'are'
p5809
aS'pretty'
p5810
aS'darned'
p5811
aS'good!'
p5812
ag16
tp5813
a((lp5814
S'DOWNSIDE:'
p5815
aS'It'
p5816
aS'takes'
p5817
ag34
aS'long'
p5818
aS'time'
p5819
aS'to'
p5820
aS'start'
p5821
aS'up.'
p5822
ag28
tp5823
a((lp5824
S'My'
p5825
aS'last'
p5826
aS'simpler'
p5827
aS'Nokia'
p5828
aS'started'
p5829
aS'right'
p5830
aS'up'
p5831
aS'and'
p5832
aS'was'
p5833
aS'immediately'
p5834
aS'ready'
p5835
aS'for'
p5836
aS'use.'
p5837
ag28
tp5838
a((lp5839
S'The'
p5840
aS'"movies"'
p5841
aS'last'
p5842
aS'about'
p5843
ag4017
aS'seconds.'
p5844
ag28
tp5845
a((lp5846
g12
aS'mean,'
p5847
aS"they're"
p5848
aS'short!'
p5849
ag28
tp5850
a((lp5851
S'Why'
p5852
aS'have'
p5853
aS'the'
p5854
aS'function'
p5855
aS'if'
p5856
aS'you'
p5857
aS"can't"
p5858
aS'film'
p5859
aS'anything'
p5860
aS'longer'
p5861
aS'than'
p5862
aS'e'
p5863
aS'few'
p5864
aS'seconds?'
p5865
ag57
tp5866
a((lp5867
g12
aS'find'
p5868
aS'this'
p5869
aS'feature'
p5870
aS'on'
p5871
aS'this'
p5872
aS'phone'
p5873
aS'useless,'
p5874
aS'but,'
p5875
aS'since'
p5876
ag12
aS"don't"
p5877
aS'really'
p5878
aS'need'
p5879
aS'this'
p5880
aS'function'
p5881
aS'anyway,'
p5882
ag12
aS"don't"
p5883
aS'really'
p5884
aS'use'
p5885
aS'it.'
p5886
ag28
tp5887
a((lp5888
S'Also,'
p5889
aS'when'
p5890
ag12
aS'dial'
p5891
aS'an'
p5892
aS'"800"'
p5893
aS'number'
p5894
aS'like'
p5895
aS'an'
p5896
aS'airline,'
p5897
aS'it'
p5898
aS'will'
p5899
aS'not'
p5900
aS'allow'
p5901
aS'me'
p5902
aS'to'
p5903
aS'use'
p5904
aS'number'
p5905
aS'keys'
p5906
aS'to'
p5907
aS'navigatee'
p5908
aS'the'
p5909
aS'prerecorded'
p5910
aS'menu.'
p5911
ag28
tp5912
a((lp5913
S'This'
p5914
aS'is'
p5915
ag34
aS'MUST'
p5916
aS'when'
p5917
aS'you'
p5918
aS'need'
p5919
aS'to'
p5920
aS'get'
p5921
aS'flight'
p5922
aS'times,'
p5923
aS'connect'
p5924
aS'to'
p5925
aS'reservations,'
p5926
aS'etc.'
p5927
ag57
tp5928
a((lp5929
S'Finally,'
p5930
aS'after'
p5931
aS'about'
p5932
ag34
aS"week's"
p5933
aS'use,'
p5934
aS'the'
p5935
aS'screen'
p5936
aS'started'
p5937
aS'to'
p5938
aS'freeze'
p5939
aS'on'
p5940
aS'me.'
p5941
ag28
tp5942
a((lp5943
S'It'
p5944
aS'would'
p5945
aS'not'
p5946
aS'hang'
p5947
aS'up'
p5948
aS'on'
p5949
aS'calls.'
p5950
ag28
tp5951
a((lp5952
S'Once'
p5953
aS'it'
p5954
aS'froze'
p5955
aS'so'
p5956
aS'bad'
p5957
ag12
aS"couldn't"
p5958
aS'even'
p5959
aS'use'
p5960
aS'the'
p5961
aS'power'
p5962
aS'button'
p5963
aS'to'
p5964
aS'turn'
p5965
aS'it'
p5966
aS'off,'
p5967
aS'and'
p5968
aS'had'
p5969
aS'to'
p5970
aS'open'
p5971
aS'and'
p5972
aS'take'
p5973
aS'out'
p5974
aS'the'
p5975
aS'battery.'
p5976
ag28
tp5977
a((lp5978
S'Probably'
p5979
ag34
aS'great'
p5980
aS'phone'
p5981
aS'overall,'
p5982
aS'and'
p5983
aS'perhaps'
p5984
aS'mine'
p5985
aS'just'
p5986
aS'has'
p5987
aS'bugs.'
p5988
ag16
tp5989
a((lp5990
S'But'
p5991
aS'beware'
p5992
aS'of'
p5993
aS'the'
p5994
aS'bugs;'
p5995
aS'they'
p5996
aS'are'
p5997
aS'major!'
p5998
ag57
tp5999
a((lp6000
S'What'
p6001
ag12
aS'have'
p6002
aS'found'
p6003
aS'useful'
p6004
aS'to'
p6005
aS'consider'
p6006
aS'before'
p6007
aS'purchasing'
p6008
ag34
aS'phone:'
p6009
ag952
aS'decent'
p6010
aS'battery'
p6011
aS'life'
p6012
ag952
aS'good'
p6013
aS'call'
p6014
aS'quality'
p6015
ag952
aS'user-friendly'
p6016
aS'interface'
p6017
ag952
aS'camera/video'
p6018
aS'functions'
p6019
ag952
aS'bluetooth'
p6020
ag952
aS'ability'
p6021
aS'to'
p6022
aS'sync'
p6023
aS'contacts'
p6024
aS'stored'
p6025
aS'in'
p6026
aS'the'
p6027
aS'PC'
p6028
aS'with'
p6029
aS'the'
p6030
aS'phone'
p6031
aS'(no'
p6032
aS'more'
p6033
aS'manual'
p6034
aS'entries!)'
p6035
ag57
tp6036
a((lp6037
S'With'
p6038
aS'one'
p6039
aS'of'
p6040
aS'the'
p6041
aS'most'
p6042
aS'intuitive'
p6043
aS'user-interfaces'
p6044
aS'around,'
p6045
aS'seamless'
p6046
aS'bluetooth'
p6047
aS'sync'
p6048
aS'with'
p6049
aS'Microsoft'
p6050
aS'Outlook,'
p6051
aS'support'
p6052
aS'for'
p6053
aS'thousands'
p6054
aS'of'
p6055
aS'applications'
p6056
aS'for'
p6057
aS'the'
p6058
aS'Symbian'
p6059
aS'platform'
p6060
aS'which'
p6061
aS'this'
p6062
aS'phone'
p6063
aS'runs'
p6064
aS'on'
p6065
aS'(I'
p6066
aS'own'
p6067
aS'the'
p6068
aS'IR'
p6069
aS'Remote,'
p6070
aS'ICQ'
p6071
aS'and'
p6072
ag34
aS'few'
p6073
aS'others),'
p6074
aS'the'
p6075
aS'Nokia'
p6076
aS'6600'
p6077
aS'is'
p6078
aS'all'
p6079
aS'of'
p6080
aS'the'
p6081
aS'above'
p6082
ag952
aS'one'
p6083
aS'of'
p6084
aS'the'
p6085
aS'few'
p6086
aS'phones'
p6087
aS'from'
p6088
aS'T-Mobile'
p6089
aS'that'
p6090
aS'can'
p6091
aS'claim'
p6092
aS'such'
p6093
ag34
aS'distinction.'
p6094
ag16
tp6095
a((lp6096
S'Ive'
p6097
aS'had'
p6098
aS'this'
p6099
aS'phone'
p6100
aS'for'
p6101
ag34
aS'year'
p6102
aS'now'
p6103
ag952
aS'and'
p6104
aS'its'
p6105
aS'the'
p6106
aS'best'
p6107
aS'phone'
p6108
ag12
aS'have'
p6109
aS'owned.'
p6110
ag16
tp6111
a((lp6112
S'The'
p6113
aS'only'
p6114
aS'con'
p6115
ag12
aS'can'
p6116
aS'think'
p6117
aS'of'
p6118
aS'is'
p6119
aS'the'
p6120
aS'lack'
p6121
aS'of'
p6122
ag34
aS'mega-pixel'
p6123
aS'camera.'
p6124
ag28
tp6125
a((lp6126
S"Motorola's"
p6127
aS'phones'
p6128
aS'are'
p6129
aS'well'
p6130
aS'engineered'
p6131
aS'but'
p6132
aS'have'
p6133
aS'an'
p6134
aS'user'
p6135
aS'interface'
p6136
aS'that'
p6137
aS'reflects'
p6138
aS'very'
p6139
aS'poorly'
p6140
aS'on'
p6141
aS'what'
p6142
aS'is'
p6143
aS'otherwise'
p6144
aS'an'
p6145
aS'excellent'
p6146
aS'engineering'
p6147
aS'company.'
p6148
ag57
tp6149
a((lp6150
S'Its'
p6151
ag34
aS'real'
p6152
aS'shame'
p6153
aS'that'
p6154
aS'T-Mo'
p6155
aS'does'
p6156
aS'not'
p6157
aS'offer'
p6158
aS'the'
p6159
aS'newer'
p6160
aS'Nokia'
p6161
aS'models.'
p6162
ag57
tp6163
a((lp6164
S'According'
p6165
aS'to'
p6166
ag34
aS'survey,'
p6167
aS'more'
p6168
aS'customers'
p6169
aS'are'
p6170
aS'ordering'
p6171
aS'their'
p6172
aS'cell'
p6173
aS'phone'
p6174
aS'and'
p6175
aS'service'
p6176
aS'from'
p6177
aS'AMAZON.COM'
p6178
ag57
tp6179
a((lp6180
S'But'
p6181
aS'if'
p6182
aS'you'
p6183
aS'are'
p6184
aS'one'
p6185
aS'of'
p6186
aS'the'
p6187
aS'customers'
p6188
aS'contributing'
p6189
aS'to'
p6190
aS'this,'
p6191
aS'its'
p6192
ag34
aS'big'
p6193
aS'mistake.'
p6194
ag57
tp6195
a((lp6196
g12
aS'have'
p6197
aS'ordered'
p6198
ag8
aS'"cell'
p6199
aS'phone'
p6200
aS'+'
p6201
aS'service"s'
p6202
aS'from'
p6203
aS'Amazon.'
p6204
ag57
tp6205
a((lp6206
S'The'
p6207
aS'first'
p6208
aS'shipment'
p6209
aS'took'
p6210
aS'such'
p6211
ag34
aS'long'
p6212
aS'time,'
p6213
ag12
aS'had'
p6214
aS'to'
p6215
aS'cancel'
p6216
aS'it.'
p6217
ag57
tp6218
a((lp6219
S'The'
p6220
aS'second'
p6221
aS'one'
p6222
aS'is'
p6223
aS'on'
p6224
aS'hold'
p6225
aS'for'
p6226
aS'almost'
p6227
ag8
aS'weeks'
p6228
aS'with'
p6229
ag34
aS'message'
p6230
aS'that'
p6231
aS'"Can'
p6232
aS'be'
p6233
aS'delayed'
p6234
aS'further".'
p6235
ag57
tp6236
a((lp6237
S'So'
p6238
aS'if'
p6239
aS'you'
p6240
aS'order'
p6241
aS'one'
p6242
aS'of'
p6243
aS'the'
p6244
aS'top'
p6245
aS'10'
p6246
aS'bestselling'
p6247
aS'phones'
p6248
aS'from'
p6249
aS'Amazon'
p6250
aS'now,'
p6251
aS'it'
p6252
aS'will'
p6253
aS'take'
p6254
aS'at'
p6255
aS'least'
p6256
ag4294
aS'weeks'
p6257
aS'for'
p6258
aS'your'
p6259
aS'shipment'
p6260
aS'to'
p6261
aS'be'
p6262
aS'delivered...guess'
p6263
aS'Amazon'
p6264
aS'is'
p6265
aS'waiting'
p6266
aS'for'
p6267
aS'seconds'
p6268
aS'to'
p6269
aS're-package,'
p6270
ag57
tp6271
a((lp6272
S'This'
p6273
aS'may'
p6274
aS'be'
p6275
ag34
aS'really'
p6276
aS'cool'
p6277
aS'phone,'
p6278
aS'but'
p6279
aS"it's"
p6280
aS'not'
p6281
aS'worth'
p6282
aS'it'
p6283
aS'with'
p6284
aS'T-Mobile.'
p6285
ag16
tp6286
a((lp6287
S'They'
p6288
aS'have'
p6289
aS'the'
p6290
aS'worst'
p6291
aS'service'
p6292
aS'of'
p6293
aS'any'
p6294
aS'of'
p6295
aS'the'
p6296
aS'major'
p6297
aS'companies.'
p6298
ag28
tp6299
a((lp6300
g12
aS'really'
p6301
aS'regret'
p6302
aS'signing'
p6303
aS'up'
p6304
aS'with'
p6305
aS'T-Mobile,'
p6306
aS'but'
p6307
aS"I'm"
p6308
aS'stuck'
p6309
aS'with'
p6310
aS'them'
p6311
aS'for'
p6312
aS'the'
p6313
aS'next'
p6314
ag1393
aS'months'
p6315
aS'of'
p6316
aS'the'
p6317
aS'contract.'
p6318
ag28
tp6319
a((lp6320
S'If'
p6321
aS"you're"
p6322
aS'looking'
p6323
aS'for'
p6324
ag34
aS'new'
p6325
aS'company,'
p6326
aS"don't"
p6327
aS'be'
p6328
aS'fooled'
p6329
aS'by'
p6330
aS'the'
p6331
aS'service'
p6332
aS'plans.'
p6333
ag57
tp6334
a((lp6335
S"T-Mobile's"
p6336
aS'minute'
p6337
aS'plans'
p6338
aS'are'
p6339
aS'cheaper'
p6340
aS'for'
p6341
ag34
aS'reason.'
p6342
ag57
tp6343
a((lp6344
S'This'
p6345
aS'phone'
p6346
aS'is'
p6347
aS'fantastic.'
p6348
ag16
tp6349
a((lp6350
S'Great'
p6351
aS'reception,'
p6352
aS'visibility'
p6353
aS'and'
p6354
aS'interface'
p6355
aS'(may'
p6356
aS'be'
p6357
aS'complicated'
p6358
aS'by'
p6359
aS'others).'
p6360
ag16
tp6361
a((lp6362
S'Just'
p6363
aS"don't"
p6364
aS'get'
p6365
aS'drawn'
p6366
aS'into'
p6367
aS"T-Mobile's"
p6368
aS'catchy'
p6369
aS'rebate.'
p6370
ag28
tp6371
a((lp6372
S'T-Mobile'
p6373
aS"wasn't"
p6374
aS'upfront'
p6375
aS'about'
p6376
aS'some'
p6377
aS'of'
p6378
aS'the'
p6379
aS'terms'
p6380
aS'to'
p6381
aS'qualify'
p6382
aS'for'
p6383
aS'the'
p6384
aS'rebate.'
p6385
ag28
tp6386
a((lp6387
g12
aS'highly'
p6388
aS'recommend'
p6389
aS'this'
p6390
aS'phone.'
p6391
ag16
tp6392
a((lp6393
g12
aS'had'
p6394
ag34
aS'Sony'
p6395
aS'ericsson'
p6396
aS'T610'
p6397
aS'before'
p6398
aS'this'
p6399
aS'and'
p6400
aS'the'
p6401
aS'T610'
p6402
aS'is'
p6403
aS'far'
p6404
aS'inferior.'
p6405
ag16
tp6406
a((lp6407
g12
aS'find'
p6408
aS'it'
p6409
aS'difficult'
p6410
aS'to'
p6411
aS'remove'
p6412
aS'back'
p6413
aS'cover'
p6414
aS'so'
p6415
aS'is'
p6416
aS'you'
p6417
aS'plan'
p6418
aS'to'
p6419
aS'have'
p6420
ag34
aS'spare'
p6421
aS'battery'
p6422
aS'and'
p6423
aS'replace'
p6424
aS'it'
p6425
ag12
aS'suggest'
p6426
aS'you'
p6427
aS"don't"
p6428
aS',besides'
p6429
aS'it'
p6430
aS'has'
p6431
ag34
aS'long'
p6432
aS'battery'
p6433
aS'life.'
p6434
ag57
tp6435
a((lp6436
S'Im'
p6437
aS'able'
p6438
aS'to'
p6439
aS'keep'
p6440
aS'my'
p6441
aS'phone'
p6442
aS'on'
p6443
aS'for'
p6444
aS'about'
p6445
ag34
aS'week'
p6446
aS'(mostly'
p6447
aS'stand'
p6448
aS'by)'
p6449
aS'to'
p6450
aS'three'
p6451
aS'days'
p6452
aS'(regular'
p6453
aS'use)'
p6454
ag16
tp6455
a((lp6456
g12
aS'used'
p6457
aS'to'
p6458
aS'work'
p6459
aS'with'
p6460
aS't-mobile..'
p6461
ag57
tp6462
a((lp6463
g1314
aS'have'
p6464
aS'owned'
p6465
aS'many'
p6466
aS'phones'
p6467
aS'with'
p6468
aS'them'
p6469
aS'such'
p6470
aS'as'
p6471
aS'v60,'
p6472
aS'6190,'
p6473
aS'e715,'
p6474
aS'6610,'
p6475
aS'v66,'
p6476
aS'v205....'
p6477
aS'and'
p6478
aS'the'
p6479
aS'list'
p6480
aS'can'
p6481
aS'go'
p6482
aS'on!'
p6483
ag57
tp6484
a((lp6485
S'but'
p6486
aS'this'
p6487
aS'by'
p6488
aS'far'
p6489
aS'is'
p6490
aS'the'
p6491
aS'best'
p6492
aS'phone'
p6493
aS'out'
p6494
aS'there'
p6495
aS'right'
p6496
aS'now!'
p6497
ag16
tp6498
a((lp6499
S'yes'
p6500
aS'it'
p6501
aS'is'
p6502
ag34
aS'bit'
p6503
aS'large,'
p6504
aS'but'
p6505
aS'the'
p6506
aS'realestate'
p6507
aS'on'
p6508
aS'the'
p6509
aS'screen'
p6510
aS'will'
p6511
aS'spoil'
p6512
aS'you!'
p6513
ag57
tp6514
a((lp6515
g1314
aS'have'
p6516
ag34
aS'hard'
p6517
aS'time'
p6518
aS'using'
p6519
aS'other'
p6520
aS'phones'
p6521
aS'with'
p6522
aS'smaller'
p6523
aS'screens!!!'
p6524
ag16
tp6525
a((lp6526
S'the'
p6527
aS'OS'
p6528
aS'is'
p6529
aS'abit'
p6530
aS'confusing'
p6531
aS'at'
p6532
aS'1st,'
p6533
aS'but'
p6534
aS'within'
p6535
ag34
aS'few'
p6536
aS'days'
p6537
aS'you'
p6538
aS'will'
p6539
aS'pass'
p6540
aS'this'
p6541
aS'learning'
p6542
aS'curve!'
p6543
ag28
tp6544
a((lp6545
g12
aS'use'
p6546
aS'this'
p6547
aS'phone'
p6548
aS'as'
p6549
aS'my'
p6550
aS'quick'
p6551
aS'and'
p6552
aS'dirty'
p6553
aS'digital'
p6554
aS'camera!'
p6555
ag57
tp6556
a((lp6557
S'the'
p6558
aS'pics'
p6559
aS'can'
p6560
aS'be'
p6561
aS'touched'
p6562
aS'up'
p6563
aS'in'
p6564
aS'photoshop,'
p6565
aS'and'
p6566
aS'be'
p6567
aS'printed'
p6568
aS'at'
p6569
aS'4x6'
p6570
aS'and'
p6571
aS'they'
p6572
aS'look'
p6573
aS'great!'
p6574
ag16
tp6575
a((lp6576
g1314
aS'also'
p6577
aS'use'
p6578
aS'the'
p6579
aS'phone'
p6580
aS'as'
p6581
aS'my'
p6582
aS'modem'
p6583
aS'via'
p6584
aS'bluetooth'
p6585
aS'to'
p6586
aS'my'
p6587
aS'Apple'
p6588
aS'powerbook!'
p6589
ag16
tp6590
a((lp6591
S'The'
p6592
aS'speed'
p6593
aS'is'
p6594
aS'the'
p6595
aS'same'
p6596
aS'as'
p6597
aS'dail'
p6598
aS'up,'
p6599
aS'where'
p6600
ag1314
aS'live'
p6601
aS'we'
p6602
aS'do'
p6603
aS'not'
p6604
aS'have'
p6605
aS'wifi'
p6606
aS'everywhere'
p6607
aS'so'
p6608
aS'this'
p6609
aS'is'
p6610
aS'my'
p6611
aS'version'
p6612
aS'of'
p6613
aS'it'
p6614
aS'until'
p6615
aS'we'
p6616
aS'catch'
p6617
aS'up.'
p6618
ag16
tp6619
a((lp6620
g12
aS'have'
p6621
aS'used'
p6622
aS'this'
p6623
aS'wireless'
p6624
aS'internet'
p6625
aS'almost'
p6626
aS'everywhere'
p6627
ag1314
aS'travel'
p6628
aS'and'
p6629
aS'it'
p6630
aS'works'
p6631
aS'great.'
p6632
ag57
tp6633
a((lp6634
S'If'
p6635
aS'you'
p6636
aS'own'
p6637
aS'an'
p6638
aS'apple'
p6639
aS'you'
p6640
aS'can'
p6641
aS'isync'
p6642
aS'it'
p6643
aS'to'
p6644
aS'your'
p6645
aS'address'
p6646
aS'book'
p6647
aS'so'
p6648
aS'that'
p6649
aS'you'
p6650
aS'have'
p6651
aS'all'
p6652
aS'of'
p6653
aS'you'
p6654
aS'numbers'
p6655
aS'in'
p6656
aS'two'
p6657
aS'places.....'
p6658
aS'in'
p6659
aS'case'
p6660
aS'you'
p6661
aS'lose'
p6662
aS'your'
p6663
aS'phone'
p6664
aS'(get'
p6665
aS'INSURACE)'
p6666
ag57
tp6667
a((lp6668
S'the'
p6669
aS'stand'
p6670
aS'by'
p6671
aS'is'
p6672
aS'really'
p6673
aS'good'
p6674
aS'considering'
p6675
aS'all'
p6676
aS'the'
p6677
aS'toys'
p6678
aS'this'
p6679
aS'phone'
p6680
aS'has'
p6681
aS'and'
p6682
aS'the'
p6683
aS'screen'
p6684
aS'size!'
p6685
ag57
tp6686
a((lp6687
g1314
aS'would'
p6688
aS'highly'
p6689
aS'recommmend......'
p6690
aS'oh'
p6691
aS'and'
p6692
ag1314
aS'have'
p6693
aS'owned'
p6694
aS'this'
p6695
aS'baby'
p6696
aS'for'
p6697
aS'like'
p6698
ag1393
aS'months'
p6699
aS'now'
p6700
ag57
tp6701
a((lp6702
S'The'
p6703
aS'phone'
p6704
aS'itself'
p6705
aS'is'
p6706
aS'pretty'
p6707
aS'nice.'
p6708
ag16
tp6709
a((lp6710
S'Camera'
p6711
aS'quality'
p6712
aS"isn't"
p6713
aS'bad'
p6714
aS'for'
p6715
aS'the'
p6716
aS'low'
p6717
aS'resolution.'
p6718
ag16
tp6719
a((lp6720
S'Menu'
p6721
aS'is'
p6722
ag34
aS'bit'
p6723
aS'slow,'
p6724
aS'but'
p6725
aS'overall,'
p6726
aS'phone'
p6727
aS'is'
p6728
aS'very'
p6729
aS'functional.'
p6730
ag57
tp6731
a((lp6732
S'But'
p6733
aS'watch'
p6734
aS'the'
p6735
aS'Amazon'
p6736
aS'rebates'
p6737
aS'on'
p6738
aS'these'
p6739
aS'(T-Mobile'
p6740
aS'rebate'
p6741
aS'is'
p6742
aS'fine).'
p6743
ag57
tp6744
a((lp6745
S'You'
p6746
aS'have'
p6747
aS'to'
p6748
aS'wait'
p6749
aS'to'
p6750
aS'get'
p6751
aS'your'
p6752
aS'second'
p6753
aS'bill'
p6754
aS'before'
p6755
aS'you'
p6756
aS'can'
p6757
aS'send'
p6758
aS'the'
p6759
aS'rebate'
p6760
aS'form'
p6761
aS'in.'
p6762
aS'\\'
p6763
ag57
tp6764
a((lp6765
S'Depending'
p6766
aS'on'
p6767
aS'the'
p6768
aS'timing'
p6769
aS'of'
p6770
aS'the'
p6771
aS'postmark'
p6772
aS'date,'
p6773
aS'you'
p6774
aS"don't"
p6775
aS'get'
p6776
aS'your'
p6777
aS'second'
p6778
aS'bill'
p6779
aS'until'
p6780
aS'the'
p6781
aS'postmark'
p6782
aS'date'
p6783
aS'passes,'
p6784
aS'so'
p6785
aS"it's"
p6786
aS'impossible'
p6787
aS'to'
p6788
aS'qualify'
p6789
aS'for'
p6790
aS'the'
p6791
aS'rebate.'
p6792
ag57
tp6793
a((lp6794
S'This'
p6795
aS'phone'
p6796
aS'has'
p6797
ag34
aS'nice'
p6798
aS'blend'
p6799
aS'of'
p6800
aS'features'
p6801
aS'without'
p6802
aS'going'
p6803
aS'overboard.'
p6804
ag16
tp6805
a((lp6806
g12
aS'was'
p6807
aS'using'
p6808
ag34
aS'Motorola'
p6809
aS'T720i'
p6810
aS'with'
p6811
aS'Verizon'
p6812
aS'and'
p6813
ag12
aS'had'
p6814
aS'alot'
p6815
aS'of'
p6816
aS'dropped'
p6817
aS'calls'
p6818
aS'and'
p6819
ag12
aS'had'
p6820
aS'troubles'
p6821
aS'syncing'
p6822
aS'data.'
p6823
ag28
tp6824
a((lp6825
g12
aS'was'
p6826
aS'looking'
p6827
aS'for'
p6828
ag34
aS'phone'
p6829
aS'which'
p6830
aS'synced'
p6831
aS'with'
p6832
aS'Mac'
p6833
aS'OSX'
p6834
aS'using'
p6835
aS'Bluetooth,'
p6836
aS'had'
p6837
aS'decent'
p6838
aS'battery'
p6839
aS'life,'
p6840
aS'could'
p6841
aS'check'
p6842
aS'email,'
p6843
aS'had'
p6844
aS'good'
p6845
aS'reception,'
p6846
aS'nice'
p6847
aS'screen'
p6848
aS'size'
p6849
aS'and'
p6850
aS'was'
p6851
aS'durable'
p6852
aS'(I'
p6853
aS'break'
p6854
aS'often'
p6855
aS'break'
p6856
aS'small'
p6857
aS'gadgets)'
p6858
ag16
tp6859
a((lp6860
S'The'
p6861
aS'interface'
p6862
aS'is'
p6863
aS'simple'
p6864
aS'to'
p6865
aS'use.'
p6866
ag16
tp6867
a((lp6868
g12
aS'saw'
p6869
ag34
aS'few'
p6870
aS'complaints'
p6871
aS'on'
p6872
aS'the'
p6873
aS'load'
p6874
aS'time'
p6875
aS'of'
p6876
aS'menus'
p6877
aS'and'
p6878
ag12
aS'feel'
p6879
aS'people'
p6880
aS'are'
p6881
aS'over-exaggerating'
p6882
aS'the'
p6883
aS'menu'
p6884
aS'load'
p6885
aS'time.'
p6886
ag28
tp6887
a((lp6888
g12
aS'have'
p6889
ag34
aS'couple'
p6890
aS'hundred'
p6891
aS'contacts'
p6892
aS'and'
p6893
aS'the'
p6894
aS'menu'
p6895
aS'loads'
p6896
aS'within'
p6897
ag34
aS'few'
p6898
aS'seconds,'
p6899
aS'no'
p6900
aS'big'
p6901
aS'deal.'
p6902
ag16
tp6903
a((lp6904
g12
aS'did'
p6905
aS'notice'
p6906
aS'if'
p6907
aS'you'
p6908
aS'turn'
p6909
aS'the'
p6910
aS'phone'
p6911
aS'on'
p6912
aS'and'
p6913
aS'off'
p6914
aS'the'
p6915
aS'OS'
p6916
aS'takes'
p6917
ag34
aS'bit'
p6918
aS'to'
p6919
aS'load'
p6920
aS'up'
p6921
aS'and'
p6922
aS'initially'
p6923
aS'the'
p6924
aS'menus'
p6925
aS'are'
p6926
aS'slower'
p6927
aS'but'
p6928
aS'once'
p6929
aS'the'
p6930
aS'phone'
p6931
aS'has'
p6932
aS'been'
p6933
aS'on'
p6934
aS'and'
p6935
aS'booted'
p6936
aS'up'
p6937
aS'the'
p6938
aS'menus'
p6939
aS'are'
p6940
aS'reasonably'
p6941
aS'quicker.'
p6942
ag16
tp6943
a((lp6944
S'The'
p6945
aS'camera'
p6946
aS'is'
p6947
aS'adequate'
p6948
aS'and'
p6949
aS'if'
p6950
ag12
aS'want'
p6951
aS'high-res'
p6952
aS'photos'
p6953
aS"I'll"
p6954
aS'use'
p6955
aS'my'
p6956
aS'digital'
p6957
aS'camera'
p6958
aS'instead.'
p6959
ag16
tp6960
a((lp6961
S'On'
p6962
aS'the'
p6963
aS'T-Mobile'
p6964
aS'service'
p6965
ag12
aS'was'
p6966
aS'able'
p6967
aS'to'
p6968
aS'take'
p6969
aS'pics'
p6970
aS'as'
p6971
aS'we'
p6972
aS'drove'
p6973
aS'across'
p6974
aS'I-70'
p6975
aS'and'
p6976
aS'email'
p6977
aS'them'
p6978
aS'to'
p6979
aS'family'
p6980
ag2089
aS'friends'
p6981
aS'once'
p6982
aS'we'
p6983
aS'reached'
p6984
ag34
aS'T-Mobile'
p6985
aS'tzone'
p6986
aS'(usually'
p6987
ag34
aS'major'
p6988
aS'city).'
p6989
ag16
tp6990
a((lp6991
S'Outside'
p6992
aS'of'
p6993
aS'the'
p6994
aS'T-Mobile'
p6995
aS'service'
p6996
aS'area'
p6997
aS'the'
p6998
aS'phone'
p6999
aS'seamlessly'
p7000
aS'jumped'
p7001
aS'onto'
p7002
aS'AT&T'
p7003
aS'Wireless'
p7004
aS'and'
p7005
aS'various'
p7006
aS'other'
p7007
aS'services'
p7008
aS'where'
p7009
aS'the'
p7010
aS'T-Mobile'
p7011
aS'service'
p7012
aS'was'
p7013
aS'unavailable.'
p7014
ag16
tp7015
a((lp7016
S'As'
p7017
ag12
aS'drove'
p7018
aS'across'
p7019
aS'the'
p7020
aS'country'
p7021
ag12
aS'lost'
p7022
aS'reception'
p7023
aS'only'
p7024
aS'in'
p7025
aS'eastern'
p7026
aS"Kentucky's"
p7027
aS'mountains.'
p7028
ag16
tp7029
a((lp7030
S'Along'
p7031
aS'the'
p7032
aS'way'
p7033
aS'we'
p7034
aS'compared'
p7035
aS'it'
p7036
aS'to'
p7037
aS'my'
p7038
aS"wife's"
p7039
aS'T720i'
p7040
aS'and'
p7041
aS'the'
p7042
aS'6600'
p7043
aS'was'
p7044
aS'superior'
p7045
aS'in'
p7046
aS'terms'
p7047
aS'of'
p7048
aS'battery'
p7049
aS'life,'
p7050
aS'connectivity'
p7051
aS'bars'
p7052
aS'and'
p7053
aS'features.'
p7054
ag16
tp7055
a((lp7056
S'For'
p7057
aS'those'
p7058
aS'Mac'
p7059
aS'OSX'
p7060
aS'users'
p7061
aS'out'
p7062
aS'there,'
p7063
aS'iSync'
p7064
aS'works'
p7065
aS'fairly'
p7066
aS'well.'
p7067
ag16
tp7068
a((lp7069
S'On'
p7070
aS'occasion'
p7071
aS"I'm"
p7072
aS'not'
p7073
aS'able'
p7074
aS'to'
p7075
aS'connect'
p7076
aS'to'
p7077
aS'the'
p7078
aS'phone'
p7079
aS'with'
p7080
aS'iSync'
p7081
aS'via'
p7082
aS'Bluetooth'
p7083
aS'but'
p7084
ag12
aS'found'
p7085
aS'that'
p7086
aS'rebooting'
p7087
aS'the'
p7088
aS'phone'
p7089
aS'seems'
p7090
aS'to'
p7091
aS'solve'
p7092
aS'this'
p7093
aS'problem.'
p7094
ag28
tp7095
a((lp7096
S'And'
p7097
aS'Bluetooth'
p7098
aS'does'
p7099
aS'not'
p7100
aS'drain'
p7101
aS'the'
p7102
aS'battery'
p7103
aS'as'
p7104
aS'quick'
p7105
aS'as'
p7106
ag12
aS'thought'
p7107
aS'it'
p7108
aS'would,'
p7109
ag12
aS'usually'
p7110
aS'can'
p7111
aS'go'
p7112
aS'1.5'
p7113
aS'days'
p7114
aS'with'
p7115
aS'Bluetooth'
p7116
aS'on'
p7117
aS'along'
p7118
aS'with'
p7119
aS'making'
p7120
aS'calls'
p7121
aS'before'
p7122
ag12
aS'need'
p7123
ag34
aS'full'
p7124
aS'recharge.'
p7125
ag16
tp7126
a((lp7127
S'With'
p7128
aS'Bluetooth'
p7129
aS'off'
p7130
aS'the'
p7131
aS'phone'
p7132
aS'last'
p7133
aS'almost'
p7134
aS'twice'
p7135
aS'as'
p7136
aS'long.'
p7137
ag16
tp7138
a((lp7139
S'The'
p7140
aS'nokia'
p7141
aS'6600'
p7142
aS'is'
p7143
ag34
aS'great'
p7144
aS'phone,'
p7145
aS'good'
p7146
aS'games,'
p7147
aS'good'
p7148
aS'camera.'
p7149
ag16
tp7150
a((lp7151
S'The'
p7152
aS'video'
p7153
aS'recorders'
p7154
ag34
aS'bit'
p7155
aS'odd,'
p7156
aS'sometimes'
p7157
ag12
aS'get'
p7158
ag830
aS'secs'
p7159
aS'on'
p7160
aS'my'
p7161
aS'recordings,'
p7162
aS'sometimes'
p7163
ag12
aS'get'
p7164
aS'17.'
p7165
ag28
tp7166
a((lp7167
S'The'
p7168
aS'voice'
p7169
aS'recorders'
p7170
aS'good,'
p7171
aS'but'
p7172
aS'you'
p7173
aS"can't"
p7174
aS'record'
p7175
aS'songs'
p7176
aS'off'
p7177
aS'the'
p7178
aS'radio'
p7179
aS'for'
p7180
aS'ring'
p7181
aS'tones.'
p7182
ag16
tp7183
a((lp7184
S'The'
p7185
aS'games'
p7186
aS'are'
p7187
aS'decent,'
p7188
aS'but'
p7189
ag4906
aS'only'
p7190
aS'get'
p7191
ag8
aS'to'
p7192
aS'start'
p7193
aS'off'
p7194
aS'with.'
p7195
ag16
tp7196
a((lp7197
S'But'
p7198
aS'you'
p7199
aS'can'
p7200
aS'download'
p7201
aS'some'
p7202
aS'really'
p7203
aS'good'
p7204
aS'ones'
p7205
aS'like'
p7206
aS'pac-man'
p7207
aS'or'
p7208
aS'mafia'
p7209
aS'wars.'
p7210
ag16
tp7211
a((lp7212
S'Overall'
p7213
aS'the'
p7214
aS'phones'
p7215
aS'fantastic,'
p7216
aS'and'
p7217
ag12
aS'would'
p7218
aS'have'
p7219
aS'given'
p7220
aS'it'
p7221
ag4017
aS'stars,'
p7222
aS'but'
p7223
aS'its'
p7224
aS'not'
p7225
aS'perfect.'
p7226
ag16
tp7227
a((lp7228
S'If'
p7229
aS'your'
p7230
aS'looking'
p7231
aS'for'
p7232
ag34
aS'phone'
p7233
aS'thats'
p7234
aS'mainly'
p7235
aS'for'
p7236
aS'calls'
p7237
aS'and'
p7238
aS'killing'
p7239
aS'time'
p7240
aS'this'
p7241
aS'is'
p7242
aS'the'
p7243
aS'one'
p7244
aS'you'
p7245
aS'want.'
p7246
ag57
tp7247
a((lp7248
S'The'
p7249
aS'battery'
p7250
aS'on'
p7251
aS'mine'
p7252
aS'lasts'
p7253
ag8
aS'days'
p7254
aS'if'
p7255
ag12
aS"don't"
p7256
aS'play'
p7257
aS'games'
p7258
aS'that'
p7259
aS'much,'
p7260
aS'and'
p7261
aS'it'
p7262
aS'only'
p7263
aS'takes'
p7264
aS'90'
p7265
aS'mins'
p7266
aS'to'
p7267
aS'charge'
p7268
aS'from'
p7269
aS'flat.'
p7270
ag16
tp7271
a((lp7272
S'This'
p7273
aS'phone'
p7274
aS'has'
p7275
aS'the'
p7276
aS'best'
p7277
aS'battery,'
p7278
aS'it'
p7279
aS'lasts'
p7280
aS'longer'
p7281
aS'then'
p7282
aS'my'
p7283
aS'old'
p7284
aS'3210'
p7285
ag16
tp7286
a((lp7287
g12
aS'got'
p7288
ag34
aS'1GB'
p7289
aS'MMC'
p7290
aS'upgrade'
p7291
aS'for'
p7292
aS'this'
p7293
aS'phone'
p7294
aS'and'
p7295
aS'now'
p7296
ag12
aS'can:'
p7297
ag16
tp7298
a((lp7299
S'1.'
p7300
aS'Record'
p7301
aS'around'
p7302
ag5111
aS'hour'
p7303
aS'of'
p7304
aS'video'
p7305
aS'with'
p7306
aS'Phillips'
p7307
aS'Camcorder'
p7308
aS'Pro.'
p7309
ag16
tp7310
a((lp7311
S'2.'
p7312
aS'Take'
p7313
aS'around'
p7314
aS'10,000'
p7315
aS'640x480'
p7316
aS'pictures.'
p7317
ag16
tp7318
a((lp7319
S'3.'
p7320
aS'Play'
p7321
aS'Java'
p7322
aS'games'
p7323
aS'on'
p7324
aS'it.'
p7325
ag16
tp7326
a((lp7327
S'4.'
p7328
aS'Play'
p7329
aS'N-Gage'
p7330
aS'games'
p7331
aS'on'
p7332
aS'it.'
p7333
ag16
tp7334
a((lp7335
S'5.'
p7336
aS'Check'
p7337
aS'traffic411.com'
p7338
aS'for'
p7339
aS'LA'
p7340
aS'traffic'
p7341
aS'on'
p7342
aS'the'
p7343
aS'405.'
p7344
ag16
tp7345
a((lp7346
S'6.'
p7347
aS'Play'
p7348
aS'Gameboy'
p7349
aS'Color'
p7350
aS'games'
p7351
aS'on'
p7352
aS'it'
p7353
aS'with'
p7354
aS'GoBoy.'
p7355
ag16
tp7356
a((lp7357
S'7.'
p7358
aS'Have'
p7359
ag34
aS'good'
p7360
aS'chunk'
p7361
aS'of'
p7362
aS'my'
p7363
aS'small'
p7364
aS'MP3'
p7365
aS'to'
p7366
aS'listen'
p7367
aS'through'
p7368
aS'the'
p7369
aS'speaker'
p7370
aS'phone.'
p7371
ag16
tp7372
a((lp7373
S'8.'
p7374
aS'Connected'
p7375
aS'the'
p7376
aS'phone'
p7377
aS'to'
p7378
aS'my'
p7379
aS'tablet'
p7380
aS'pc'
p7381
aS'and'
p7382
aS'now'
p7383
aS'can'
p7384
aS'access'
p7385
aS'company'
p7386
aS'VPN'
p7387
aS'at'
p7388
aS'56k'
p7389
aS'speed'
p7390
aS'via'
p7391
aS'bluetooth.'
p7392
ag16
tp7393
a((lp7394
S'Clear'
p7395
aS'the'
p7396
aS'call'
p7397
aS'logs'
p7398
aS'once'
p7399
aS'in'
p7400
ag34
aS'while'
p7401
aS'to'
p7402
aS'speed'
p7403
aS'up'
p7404
aS'the'
p7405
aS'phone'
p7406
aS'people!!!'
p7407
ag16
tp7408
a((lp7409
S'As'
p7410
aS'for'
p7411
aS'bluetooth,'
p7412
aS'no'
p7413
aS'problems'
p7414
aS'at'
p7415
aS'all.'
p7416
ag16
tp7417
a((lp7418
S"I've"
p7419
aS'connected'
p7420
aS'the'
p7421
aS'phone'
p7422
aS'with'
p7423
aS'two'
p7424
aS'laptops'
p7425
aS'and'
p7426
ag34
aS'iPaq'
p7427
aS'4155.'
p7428
ag16
tp7429
a((lp7430
S'Very'
p7431
aS'simple'
p7432
aS'and'
p7433
aS'painless.'
p7434
ag16
tp7435
a((lp7436
S'This'
p7437
aS'is'
p7438
aS'the'
p7439
aS'first'
p7440
aS'cell'
p7441
aS'phone'
p7442
aS"I've"
p7443
aS'owned,'
p7444
aS'and'
p7445
aS'overall,'
p7446
ag12
aS'am'
p7447
aS'quite'
p7448
aS'pleased'
p7449
aS'with'
p7450
aS'it.'
p7451
ag16
tp7452
a((lp7453
g12
aS'purchased'
p7454
aS'this'
p7455
aS'phone'
p7456
aS'after'
p7457
aS'researching'
p7458
aS'many'
p7459
aS'different'
p7460
aS'phones,'
p7461
aS'mostly'
p7462
aS"Nokia's"
p7463
aS'that'
p7464
aS'were'
p7465
aS'T-Mobile'
p7466
aS'compatiable.'
p7467
ag57
tp7468
a((lp7469
S'Among'
p7470
aS'my'
p7471
aS'requirments'
p7472
aS'for'
p7473
ag34
aS'phone'
p7474
aS'were:'
p7475
aS'good'
p7476
aS'screen,'
p7477
aS'decent'
p7478
aS'camera,'
p7479
aS'bluetooth,'
p7480
aS'and'
p7481
aS'GPRS'
p7482
aS'support.'
p7483
ag16
tp7484
a((lp7485
S'The'
p7486
aS'6600'
p7487
aS'was'
p7488
aS'the'
p7489
aS'best'
p7490
aS'phone'
p7491
ag12
aS'could'
p7492
aS'find'
p7493
aS'with'
p7494
aS'these'
p7495
aS'options'
p7496
aS'that'
p7497
ag12
aS'could'
p7498
aS'get'
p7499
aS'with'
p7500
aS't-mobile.'
p7501
ag16
tp7502
a((lp7503
S'One'
p7504
aS'primary'
p7505
aS'reason'
p7506
aS'for'
p7507
aS'getting'
p7508
ag34
aS'cell'
p7509
aS'phone'
p7510
aS'was'
p7511
aS'so'
p7512
aS'that'
p7513
ag12
aS'could'
p7514
aS'use'
p7515
aS'it'
p7516
aS'as'
p7517
aS'an'
p7518
aS'internet'
p7519
aS'connection'
p7520
aS'for'
p7521
aS'my'
p7522
aS'laptop'
p7523
aS'running'
p7524
aS'linux,'
p7525
aS'where'
p7526
aS'softmodem'
p7527
aS'drivers'
p7528
aS'are'
p7529
aS'hard'
p7530
aS'to'
p7531
aS'find,'
p7532
aS'and'
p7533
aS"don't"
p7534
aS'work'
p7535
aS'very'
p7536
aS'well.'
p7537
ag16
tp7538
a((lp7539
S'If'
p7540
aS'you'
p7541
aS'are'
p7542
aS'using'
p7543
aS'Linux,'
p7544
aS'and'
p7545
aS'you'
p7546
aS'want'
p7547
aS'to'
p7548
aS'use'
p7549
aS'GPRS'
p7550
aS'to'
p7551
aS'connect'
p7552
aS'to'
p7553
aS'the'
p7554
aS'net,'
p7555
ag12
aS'suggest'
p7556
aS'this'
p7557
aS'phone'
p7558
aS'along'
p7559
aS'with'
p7560
ag34
aS'Belkin'
p7561
aS'USB'
p7562
aS'Bluetooth'
p7563
aS'adapter.'
p7564
ag16
tp7565
a((lp7566
S'For'
p7567
aS'the'
p7568
aS'linux'
p7569
aS'users'
p7570
aS'out'
p7571
aS'there'
p7572
aS'who'
p7573
aS'are'
p7574
aS'intrested'
p7575
aS'in'
p7576
aS'my'
p7577
aS'setup:'
p7578
aS"I'm"
p7579
aS'running'
p7580
aS'Debian'
p7581
aS'(Knoppix'
p7582
aS'3.4)'
p7583
aS'with'
p7584
ag34
aS'custom'
p7585
aS'2.6.7'
p7586
aS'kernel.'
p7587
ag57
tp7588
a((lp7589
S'On'
p7590
ag34
aS'DELL'
p7591
aS'Inspiron'
p7592
aS'8200'
p7593
aS'with'
p7594
ag34
aS'P4'
p7595
aS'2.0ghz'
p7596
aS'system'
p7597
aS'with'
p7598
aS'1gb'
p7599
aS'RAM.'
p7600
ag57
tp7601
a((lp7602
S'The'
p7603
aS'KDE'
p7604
aS'Bluez'
p7605
aS'system'
p7606
aS'for'
p7607
aS'bluetooth'
p7608
aS'support.'
p7609
ag57
tp7610
a((lp7611
g12
aS'have'
p7612
aS'really'
p7613
aS'enjoyed'
p7614
aS'the'
p7615
aS'camera'
p7616
aS'on'
p7617
aS'this'
p7618
aS'phone.'
p7619
ag16
tp7620
a((lp7621
S'Although'
p7622
aS'the'
p7623
aS'images'
p7624
aS'are'
p7625
aS'not'
p7626
aS'the'
p7627
aS'best'
p7628
aS'in'
p7629
aS'the'
p7630
aS'world,'
p7631
aS'its'
p7632
aS'very'
p7633
aS'handy'
p7634
aS'to'
p7635
aS'have'
p7636
ag34
aS'camera'
p7637
aS'everywhere'
p7638
aS'you'
p7639
aS'go.'
p7640
ag57
tp7641
a((lp7642
S'And'
p7643
aS'the'
p7644
aS'phone'
p7645
aS'has'
p7646
ag34
aS'very'
p7647
aS'cool'
p7648
aS'feature'
p7649
aS'wich'
p7650
aS'allows'
p7651
aS'you'
p7652
aS'to'
p7653
aS'send'
p7654
aS'images'
p7655
aS'via'
p7656
ag34
aS'normal'
p7657
aS'POP3/SMTP'
p7658
aS'e-mail'
p7659
aS'account.'
p7660
ag16
tp7661
a((lp7662
g12
aS'will'
p7663
aS'also'
p7664
aS'say'
p7665
aS'that'
p7666
aS'setting'
p7667
aS'up'
p7668
aS'the'
p7669
aS'e-mail'
p7670
aS'account'
p7671
aS'was'
p7672
aS'very'
p7673
aS'simple'
p7674
aS'and'
p7675
aS'straight-forward,'
p7676
aS'although'
p7677
aS'you'
p7678
aS'do'
p7679
aS'need'
p7680
aS'an'
p7681
aS'external'
p7682
aS'SMTP'
p7683
aS'server'
p7684
aS'to'
p7685
aS'use.'
p7686
ag16
tp7687
a((lp7688
S'The'
p7689
aS'phone'
p7690
aS'can'
p7691
aS'use'
p7692
aS'any'
p7693
aS'MIDI'
p7694
aS'audio'
p7695
aS'file'
p7696
aS'as'
p7697
ag34
aS'ringtone.'
p7698
ag16
tp7699
a((lp7700
S'Which'
p7701
aS'is'
p7702
aS'really'
p7703
aS'nice'
p7704
aS'because'
p7705
aS'you'
p7706
aS'can'
p7707
aS'get'
p7708
aS'pretty'
p7709
aS'much'
p7710
aS'any'
p7711
aS'piece'
p7712
aS'of'
p7713
aS'music'
p7714
aS'in'
p7715
aS'MIDI'
p7716
aS'format'
p7717
aS'for'
p7718
aS'free'
p7719
aS'on'
p7720
aS'the'
p7721
aS'net.'
p7722
ag16
tp7723
a((lp7724
S'You'
p7725
aS'can'
p7726
aS'use'
p7727
aS'the'
p7728
aS'OBEX'
p7729
aS'File'
p7730
aS'Transfer'
p7731
aS'service'
p7732
aS'with'
p7733
aS'bluetooth'
p7734
aS'from'
p7735
aS'linux'
p7736
aS'(KDE-bluetooth'
p7737
aS'provieds'
p7738
ag34
aS'nice'
p7739
aS'intergration'
p7740
aS'into'
p7741
aS'Konqueror'
p7742
aS'for'
p7743
aS'this)'
p7744
aS'for'
p7745
aS'sending'
p7746
aS'files'
p7747
aS'to'
p7748
aS'the'
p7749
aS'phone.'
p7750
ag16
tp7751
a((lp7752
S'The'
p7753
aS'fact'
p7754
aS'that'
p7755
aS'you'
p7756
aS'can'
p7757
aS'assign'
p7758
aS'ringtones'
p7759
aS'to'
p7760
aS'people'
p7761
aS'and/or'
p7762
aS'groups'
p7763
aS'is'
p7764
aS'really'
p7765
aS'cool.'
p7766
ag16
tp7767
a((lp7768
S'Apparently'
p7769
aS'some'
p7770
aS'phones'
p7771
aS"don't"
p7772
aS'allow'
p7773
aS'you'
p7774
aS'to'
p7775
aS'give'
p7776
aS'an'
p7777
aS'entire'
p7778
aS'group'
p7779
ag34
aS'ringtone.'
p7780
ag57
tp7781
a((lp7782
g12
aS'will'
p7783
aS'say'
p7784
aS'that'
p7785
aS'the'
p7786
aS'OS'
p7787
aS'that'
p7788
aS'the'
p7789
aS'phone'
p7790
aS'runs'
p7791
aS'does'
p7792
aS'have'
p7793
ag34
aS'few'
p7794
aS'issues.'
p7795
ag28
tp7796
a((lp7797
S'Sometimes,'
p7798
aS'various'
p7799
aS'applications'
p7800
aS'crash.'
p7801
ag28
tp7802
a((lp7803
S'Especially'
p7804
aS'the'
p7805
aS'bluetooth'
p7806
aS'server...'
p7807
aS'Meaning'
p7808
aS'you'
p7809
aS'have'
p7810
aS'to'
p7811
aS'restart'
p7812
aS'the'
p7813
aS'phone'
p7814
aS'if'
p7815
aS'you'
p7816
aS'want'
p7817
aS'bluetooth'
p7818
aS'to'
p7819
aS'work'
p7820
aS'again.'
p7821
ag28
tp7822
a((lp7823
S'This'
p7824
aS'is'
p7825
aS'somewhat'
p7826
aS'annoying,'
p7827
aS'but'
p7828
aS'from'
p7829
aS'working'
p7830
aS'with'
p7831
aS'computers'
p7832
aS'(espcially'
p7833
aS'windows'
p7834
aS'--'
p7835
aS'ugh...)'
p7836
ag28
tp7837
a((lp7838
S"I'm"
p7839
aS'used'
p7840
aS'to'
p7841
aS'having'
p7842
aS'to'
p7843
aS'restart'
p7844
aS'things.'
p7845
ag57
tp7846
a((lp7847
S'On'
p7848
aS'average,'
p7849
ag12
aS'prolly'
p7850
aS'restart'
p7851
aS'the'
p7852
aS'phone'
p7853
aS'every'
p7854
aS'two'
p7855
aS'days.'
p7856
ag57
tp7857
a((lp7858
g12
aS'use'
p7859
aS'this'
p7860
aS'phone'
p7861
aS'exculsivly'
p7862
aS'with'
p7863
ag34
aS'Jabra'
p7864
aS'Freespeak'
p7865
aS'250.'
p7866
ag57
tp7867
a((lp7868
g12
aS'really'
p7869
aS'dislike'
p7870
aS'holding'
p7871
ag34
aS'phone'
p7872
aS'to'
p7873
aS'my'
p7874
aS'ear,'
p7875
aS'and'
p7876
aS"I've"
p7877
aS'found'
p7878
aS'the'
p7879
aS'Freespeak'
p7880
aS'to'
p7881
aS'be'
p7882
aS'very'
p7883
aS'comfortable'
p7884
aS'and'
p7885
aS'easy'
p7886
aS'to'
p7887
aS'use'
p7888
aS'with'
p7889
aS'this'
p7890
aS'phone.'
p7891
ag16
tp7892
a((lp7893
S'The'
p7894
aS'only'
p7895
aS'main'
p7896
aS'drawback'
p7897
aS'is'
p7898
aS'the'
p7899
aS'fact'
p7900
aS'that'
p7901
aS'the'
p7902
aS'voice-dialing'
p7903
aS'system'
p7904
aS'is'
p7905
aS'kinda'
p7906
aS'picky.'
p7907
ag28
tp7908
a((lp7909
S'It'
p7910
aS'takes'
p7911
ag34
aS'while'
p7912
aS'to'
p7913
aS'learn'
p7914
aS'how'
p7915
aS'to'
p7916
aS'use'
p7917
aS'it'
p7918
aS'right,'
p7919
aS'and'
p7920
aS'at'
p7921
aS'this'
p7922
aS'point'
p7923
ag12
aS'am'
p7924
aS'able'
p7925
aS'to'
p7926
aS'make'
p7927
aS'about'
p7928
aS'70%'
p7929
aS'of'
p7930
aS'my'
p7931
aS'calls'
p7932
aS'using'
p7933
aS'it.'
p7934
ag28
tp7935
a((lp7936
S'However,'
p7937
aS'it'
p7938
aS'needs'
p7939
aS'to'
p7940
aS'be'
p7941
aS'quite'
p7942
aS'quiet'
p7943
aS'for'
p7944
aS'it'
p7945
aS'to'
p7946
aS'work'
p7947
aS'at'
p7948
aS'all'
p7949
aS'--'
p7950
aS"dosn't"
p7951
aS'work'
p7952
aS'at'
p7953
aS'all'
p7954
aS'in'
p7955
aS'the'
p7956
aS'car,'
p7957
aS'for'
p7958
aS'example.'
p7959
ag28
tp7960
a((lp7961
S'Some'
p7962
aS'people'
p7963
aS'have'
p7964
aS'commented'
p7965
aS'about'
p7966
aS'the'
p7967
aS'size'
p7968
aS'and'
p7969
aS'weight'
p7970
aS'of'
p7971
aS'the'
p7972
aS'phone,'
p7973
aS'and'
p7974
aS'it'
p7975
aS'has'
p7976
aS'rightfully'
p7977
aS'gotten'
p7978
aS'the'
p7979
aS'nick-name'
p7980
aS'"the'
p7981
aS'bar'
p7982
aS'of'
p7983
aS'soap"'
p7984
aS'which,'
p7985
aS'it'
p7986
aS'really'
p7987
aS'is.'
p7988
ag28
tp7989
a((lp7990
S'But'
p7991
aS'if'
p7992
aS'you'
p7993
aS'use'
p7994
aS'all'
p7995
aS'bluetooth'
p7996
aS'accessories,'
p7997
aS'as'
p7998
ag12
aS'do,'
p7999
aS'its'
p8000
aS'really'
p8001
aS'not'
p8002
aS'an'
p8003
aS'issue.'
p8004
ag16
tp8005
a((lp8006
S'All'
p8007
aS'in'
p8008
aS'all,'
p8009
aS'this'
p8010
aS'is'
p8011
ag34
aS'great'
p8012
aS'phone.'
p8013
ag16
tp8014
a((lp8015
S'Especially'
p8016
aS'for'
p8017
aS'the'
p8018
aS'price'
p8019
aS'amazon'
p8020
aS'gives'
p8021
aS'it'
p8022
aS'at'
p8023
aS'(I'
p8024
aS'was'
p8025
aS'unable'
p8026
aS'to'
p8027
aS'get'
p8028
aS'mine'
p8029
aS'through'
p8030
aS'amazon'
p8031
aS'due'
p8032
aS'to'
p8033
aS'some'
p8034
aS'credit'
p8035
aS'complications).'
p8036
ag16
tp8037
a((lp8038
S'If'
p8039
aS'you'
p8040
aS'use'
p8041
aS'linux'
p8042
aS'and'
p8043
aS'want'
p8044
aS'GRPS'
p8045
aS'and/or'
p8046
aS'want'
p8047
aS'to'
p8048
aS'use'
p8049
ag34
aS'handsfree'
p8050
aS'bluetooth'
p8051
aS'device,'
p8052
aS'and'
p8053
aS'want'
p8054
ag34
aS'decent'
p8055
aS'camera'
p8056
aS'--'
p8057
aS'this'
p8058
aS'is'
p8059
aS'the'
p8060
aS'phone'
p8061
aS'for'
p8062
aS'you.'
p8063
ag16
tp8064
a((lp8065
g12
aS'really'
p8066
aS'love'
p8067
aS'this'
p8068
aS'phone...'
p8069
ag16
tp8070
a((lp8071
g12
aS'also'
p8072
aS'am'
p8073
aS'loving'
p8074
aS'T-Mobile'
p8075
aS'(100'
p8076
aS'times'
p8077
aS'better'
p8078
aS'than'
p8079
aS'ATT...'
p8080
ag57
tp8081
a((lp8082
S'you'
p8083
aS'actually'
p8084
aS'can'
p8085
aS'talk'
p8086
aS'to'
p8087
ag34
aS'real'
p8088
aS'person'
p8089
aS'for'
p8090
aS'support'
p8091
aS'in'
p8092
aS'under'
p8093
aS'an'
p8094
aS'hour!).'
p8095
ag16
tp8096
a((lp8097
S'Have'
p8098
aS'had'
p8099
aS'the'
p8100
aS'Nokia'
p8101
aS'6600'
p8102
aS'for'
p8103
ag34
aS'year'
p8104
aS'now'
p8105
aS'and'
p8106
aS'am'
p8107
aS'generally'
p8108
aS'very'
p8109
aS'happy'
p8110
aS'with'
p8111
aS'it'
p8112
aS'and'
p8113
aS'with'
p8114
aS'T-Mobile.'
p8115
ag16
tp8116
a((lp8117
S'It'
p8118
aS'offers'
p8119
aS'way'
p8120
aS'more'
p8121
aS'features'
p8122
aS'than'
p8123
ag12
aS'need'
p8124
aS'but'
p8125
aS'the'
p8126
aS'ones'
p8127
ag12
aS'use'
p8128
aS'work'
p8129
aS'well.'
p8130
ag16
tp8131
a((lp8132
g12
aS'almost'
p8133
aS'always'
p8134
aS'get'
p8135
ag34
aS'good'
p8136
aS'strong'
p8137
aS'signal,'
p8138
aS'even'
p8139
aS'in'
p8140
aS'fairly'
p8141
aS'remote'
p8142
aS'areas'
p8143
aS'here'
p8144
aS'in'
p8145
aS'the'
p8146
aS'southwest.'
p8147
ag16
tp8148
a((lp8149
S'The'
p8150
aS'sound'
p8151
aS'quality'
p8152
aS'is'
p8153
aS'excellent'
p8154
aS'and'
p8155
aS'the'
p8156
aS'speaker'
p8157
aS'phone'
p8158
aS"couldn't"
p8159
aS'be'
p8160
aS'easier'
p8161
aS'to'
p8162
aS'use.'
p8163
ag16
tp8164
a((lp8165
g12
aS'like'
p8166
aS'the'
p8167
aS'size'
p8168
aS'and'
p8169
aS'shape.'
p8170
ag16
tp8171
a((lp8172
S'It'
p8173
aS'fits'
p8174
aS'comfortably'
p8175
aS'in'
p8176
aS'my'
p8177
aS'hand'
p8178
aS'and'
p8179
aS'pocket.'
p8180
ag16
tp8181
a((lp8182
S'The'
p8183
aS'only'
p8184
aS'problem'
p8185
aS'is'
p8186
aS'the'
p8187
aS'size'
p8188
aS'of'
p8189
aS'the'
p8190
aS'keys.'
p8191
ag28
tp8192
a((lp8193
S'My'
p8194
aS'fingers'
p8195
aS'are'
p8196
aS'kind'
p8197
aS'of'
p8198
aS'stubby'
p8199
aS'so'
p8200
aS'it'
p8201
aS'took'
p8202
ag34
aS'while'
p8203
aS'to'
p8204
aS'learn'
p8205
aS'how'
p8206
aS'to'
p8207
aS'hit'
p8208
ag34
aS'key'
p8209
aS'without'
p8210
aS'hitting'
p8211
aS'the'
p8212
aS'adjacent'
p8213
aS'ones.'
p8214
ag28
tp8215
a((lp8216
S'They'
p8217
aS'really'
p8218
aS'are'
p8219
aS'awfully'
p8220
aS'small.'
p8221
ag28
tp8222
a((lp8223
S'Also'
p8224
aS'the'
p8225
aS'battery'
p8226
aS'life'
p8227
aS"isn't"
p8228
aS'great'
p8229
aS'but'
p8230
aS"it's"
p8231
aS'sufficient'
p8232
aS'for'
p8233
aS'my'
p8234
aS'needs.'
p8235
ag28
tp8236
a((lp8237
S'It'
p8238
aS'also'
p8239
aS'works'
p8240
aS'just'
p8241
aS'fine'
p8242
aS'for'
p8243
aS'international'
p8244
aS'calls.'
p8245
ag16
tp8246
a((lp8247
S"It's"
p8248
ag34
aS'bit'
p8249
aS'pricey'
p8250
aS'to'
p8251
aS'call'
p8252
aS'home'
p8253
aS'from'
p8254
aS'other'
p8255
aS'countries'
p8256
aS'but'
p8257
aS'the'
p8258
aS'instant'
p8259
aS'messaging'
p8260
aS'to'
p8261
aS'and'
p8262
aS'from'
p8263
aS'covered'
p8264
aS'countries'
p8265
aS'in'
p8266
aS'Europe'
p8267
aS'are'
p8268
aS'quite'
p8269
aS'reasonable.'
p8270
ag16
tp8271
a((lp8272
S"It's"
p8273
aS'really'
p8274
aS'well'
p8275
aS'made'
p8276
aS'and'
p8277
aS'has'
p8278
aS'survived'
p8279
aS'sliding'
p8280
aS'across'
p8281
aS'floors'
p8282
aS'and'
p8283
aS'pavement'
p8284
aS'without'
p8285
ag34
aS'scratch.'
p8286
ag16
tp8287
a((lp8288
S"I've"
p8289
aS'had'
p8290
aS'nothing'
p8291
aS'but'
p8292
aS'good'
p8293
aS'luck'
p8294
aS'with'
p8295
aS'T-Mobile.'
p8296
ag16
tp8297
a((lp8298
S'Their'
p8299
aS'customer'
p8300
aS'service'
p8301
aS'agents'
p8302
aS'are'
p8303
aS'always'
p8304
aS'prompt'
p8305
aS'and'
p8306
aS'polite'
p8307
aS'and'
p8308
aS'my'
p8309
aS'service'
p8310
aS'is'
p8311
aS'terrific.'
p8312
ag16
tp8313
a((lp8314
g12
aS'never'
p8315
aS'get'
p8316
aS'dropped'
p8317
aS'calls.'
p8318
ag16
tp8319
a((lp8320
S'It'
p8321
aS'seems'
p8322
aS'to'
p8323
aS'be'
p8324
ag34
aS'much'
p8325
aS'more'
p8326
aS'user'
p8327
aS'friendly'
p8328
aS'company'
p8329
aS'than'
p8330
aS'Verizon'
p8331
aS'and'
p8332
ag34
aS'thousand'
p8333
aS'percent'
p8334
aS'better'
p8335
aS'than'
p8336
aS'the'
p8337
aS'horrible'
p8338
aS'Quest'
p8339
aS'Wireless.'
p8340
ag57
tp8341
a((lp8342
g12
aS'recommend'
p8343
aS'T-Mobile'
p8344
aS'and'
p8345
aS'the'
p8346
aS'Nokia'
p8347
aS'6600'
p8348
aS'without'
p8349
aS'reservation.'
p8350
ag16
tp8351
a((lp8352
S'The'
p8353
aS'Nokia'
p8354
aS'6600'
p8355
aS'is'
p8356
aS'really'
p8357
aS'just'
p8358
ag34
aS'glorified'
p8359
aS'3650:'
p8360
aS'you'
p8361
aS'know'
p8362
aS'the'
p8363
aS'3650,'
p8364
aS'those'
p8365
aS'bulbous,'
p8366
aS'formless,'
p8367
aS'big'
p8368
aS'phones'
p8369
ag34
aS'few'
p8370
aS'unfortunate'
p8371
aS'ATT'
p8372
aS'customers'
p8373
aS'are'
p8374
aS'carrying'
p8375
aS'around.'
p8376
ag57
tp8377
a((lp8378
S'The'
p8379
aS'Nokia'
p8380
aS'660'
p8381
aS'runs'
p8382
aS'the'
p8383
aS'Symbian'
p8384
aS'OS,'
p8385
aS'which'
p8386
aS'works'
p8387
aS'pretty'
p8388
aS'well'
p8389
aS'for'
p8390
aS'most'
p8391
aS'standard'
p8392
aS'phone'
p8393
aS'fare,'
p8394
aS'most'
p8395
aS'of'
p8396
aS'the'
p8397
aS'stuff'
p8398
aS'is'
p8399
aS'not'
p8400
aS'that'
p8401
aS'intuitive,'
p8402
aS'but'
p8403
aS'if'
p8404
aS'you'
p8405
aS'actually'
p8406
aS'learn'
p8407
aS'how'
p8408
aS'to'
p8409
aS'use'
p8410
aS'it'
p8411
aS'all,'
p8412
aS"there's"
p8413
aS'plenty'
p8414
aS'of'
p8415
aS'neat'
p8416
aS'tie-ins.'
p8417
ag16
tp8418
a((lp8419
S"I've"
p8420
aS'had'
p8421
aS'this'
p8422
aS'phone'
p8423
aS'for'
p8424
aS'almost'
p8425
ag34
aS'year'
p8426
aS'now'
p8427
aS'and'
p8428
aS'it'
p8429
aS'has'
p8430
aS'been'
p8431
aS'nothing'
p8432
aS'but'
p8433
aS'great'
p8434
aS'to'
p8435
aS'use.'
p8436
ag16
tp8437
a((lp8438
g12
aS'can'
p8439
aS'connect'
p8440
aS'to'
p8441
aS'my'
p8442
aS'computer'
p8443
aS'via'
p8444
aS'bluetooth'
p8445
aS'to'
p8446
aS'transfer'
p8447
aS'images,'
p8448
aS'calender'
p8449
aS'events,'
p8450
aS'contacts'
p8451
aS'and'
p8452
aS'anything'
p8453
aS'else.'
p8454
ag16
tp8455
a((lp8456
S'Another'
p8457
aS'great'
p8458
aS'feature'
p8459
aS'for'
p8460
aS'me'
p8461
aS'anyway'
p8462
aS'is'
p8463
aS'the'
p8464
aS'ability'
p8465
aS'to'
p8466
aS'load'
p8467
aS'.wav'
p8468
aS'sounds'
p8469
aS'as'
p8470
aS'ringers.'
p8471
ag16
tp8472
a((lp8473
S'This'
p8474
aS'way'
p8475
ag12
aS'never'
p8476
aS'have'
p8477
aS'to'
p8478
aS'be'
p8479
aS'ripped'
p8480
aS'off'
p8481
aS'by'
p8482
aS'the'
p8483
aS'carrier'
p8484
aS'for'
p8485
aS'stupid'
p8486
aS'ringtones,'
p8487
ag12
aS'can'
p8488
aS'get'
p8489
aS'whatever'
p8490
ag12
aS'want.'
p8491
ag16
tp8492
a((lp8493
S'The'
p8494
aS'only'
p8495
aS'downside'
p8496
ag12
aS'have'
p8497
aS'found'
p8498
aS'with'
p8499
aS'this'
p8500
aS'phone'
p8501
aS'is'
p8502
aS'that'
p8503
aS'it'
p8504
aS'is'
p8505
ag34
aS'bit'
p8506
aS'slow'
p8507
aS'to'
p8508
aS'react,'
p8509
aS'meaning'
p8510
aS'when'
p8511
ag12
aS'push'
p8512
aS'the'
p8513
aS'contacts'
p8514
aS'button,'
p8515
aS'it'
p8516
aS'takes'
p8517
ag34
aS'while'
p8518
aS'to'
p8519
aS'load,'
p8520
aS'this'
p8521
aS'is'
p8522
aS'true'
p8523
aS'for'
p8524
aS'almost'
p8525
aS'all'
p8526
aS'the'
p8527
aS'menus'
p8528
aS'and'
p8529
aS'programs'
p8530
aS'on'
p8531
aS'the'
p8532
aS'phone.'
p8533
ag28
tp8534
a((lp8535
S'Other'
p8536
aS'than'
p8537
aS'that,'
p8538
aS'the'
p8539
aS'simbian'
p8540
aS'series'
p8541
aS'60'
p8542
aS'OS'
p8543
aS'is'
p8544
aS'great'
p8545
aS'and'
p8546
aS'offers'
p8547
aS'lots'
p8548
aS'of'
p8549
aS'proprietary'
p8550
aS'software'
p8551
aS'that'
p8552
aS'will'
p8553
aS'work'
p8554
aS'on'
p8555
aS'your'
p8556
aS'phone'
p8557
aS'if'
p8558
aS"you're"
p8559
aS'willing'
p8560
aS'to'
p8561
aS'hunt'
p8562
aS'for'
p8563
aS'it.'
p8564
ag16
tp8565
a((lp8566
S'Hand'
p8567
aS'set'
p8568
aS'is'
p8569
aS'good,'
p8570
aS'but'
p8571
aS'be'
p8572
aS'aware'
p8573
aS'of'
p8574
aS'this'
p8575
aS'T-MOBILE'
p8576
aS'rebate.'
p8577
ag57
tp8578
a((lp8579
S'These'
p8580
aS'people'
p8581
aS'takes'
p8582
aS'lest'
p8583
aS'effort'
p8584
aS'to'
p8585
aS'process'
p8586
aS'rebate'
p8587
aS'forms.'
p8588
ag28
tp8589
a((lp8590
S'For'
p8591
aS'last'
p8592
aS'one'
p8593
aS'month'
p8594
aS'my'
p8595
aS'Rebate'
p8596
aS'status'
p8597
aS'showing'
p8598
aS'me'
p8599
aS'that'
p8600
aS'my'
p8601
aS'rebate'
p8602
aS'is'
p8603
aS'apporved'
p8604
aS'and'
p8605
aS'check'
p8606
aS'is'
p8607
aS'delivered'
p8608
aS'but'
p8609
aS'still'
p8610
ag12
aS'am'
p8611
aS'waiting'
p8612
aS'for'
p8613
aS'Check.'
p8614
ag28
tp8615
a((lp8616
S'There'
p8617
aS'is'
p8618
aS'no'
p8619
aS'way'
p8620
aS'you'
p8621
aS'can'
p8622
aS'talk'
p8623
aS'with'
p8624
aS'customer'
p8625
aS'care'
p8626
aS'about'
p8627
aS'this.'
p8628
ag28
tp8629
a((lp8630
S'Dont'
p8631
aS'rely'
p8632
aS'on'
p8633
aS'T-Mobile'
p8634
aS'rebates.'
p8635
ag28
tp8636
a((lp8637
g12
aS'bought'
p8638
ag8
aS'of'
p8639
aS'these'
p8640
aS'Nokia'
p8641
aS'6600'
p8642
aS'phones'
p8643
aS'recently,'
p8644
aS'thru'
p8645
aS'the'
p8646
aS'amazon'
p8647
aS'market'
p8648
aS'place.'
p8649
ag57
tp8650
a((lp8651
S'Initially'
p8652
aS'these'
p8653
aS'phones'
p8654
aS'were'
p8655
aS'fun'
p8656
aS'to'
p8657
aS'play'
p8658
aS'with'
p8659
aS'some'
p8660
aS'of'
p8661
aS'the'
p8662
aS'cool'
p8663
aS'features'
p8664
aS'like'
p8665
aS'the'
p8666
aS'speaker'
p8667
aS'phone,'
p8668
aS'web'
p8669
aS'browser'
p8670
aS'and'
p8671
aS'ofcourse'
p8672
aS'the'
p8673
aS'built'
p8674
aS'in'
p8675
aS'camera.'
p8676
ag16
tp8677
a((lp8678
S'So'
p8679
aS'on'
p8680
aS'the'
p8681
aS'whole,'
p8682
aS'let'
p8683
aS'me'
p8684
aS'summarize'
p8685
aS'the'
p8686
aS'good'
p8687
aS'and'
p8688
aS'bad'
p8689
aS'things'
p8690
aS'about'
p8691
aS'this'
p8692
aS'phone,'
p8693
aS'instead'
p8694
aS'of'
p8695
aS'writing'
p8696
ag34
aS'long'
p8697
aS'review.'
p8698
ag57
tp8699
a((lp8700
S'The'
p8701
aS'good:'
p8702
aS'1)'
p8703
aS'Large'
p8704
aS'LCD'
p8705
aS'screen,'
p8706
aS'colorful'
p8707
aS'display,'
p8708
aS'good'
p8709
aS'resolution.'
p8710
ag16
tp8711
a((lp8712
S'2)'
p8713
aS'Nice'
p8714
aS'features,'
p8715
aS'like'
p8716
aS'web'
p8717
aS'browser,'
p8718
aS'camera,'
p8719
aS'video'
p8720
aS'recorder,'
p8721
aS'speaker'
p8722
aS'phone'
p8723
aS'(very'
p8724
aS'usefully),'
p8725
aS'clear'
p8726
aS'voice'
p8727
aS'reception.'
p8728
ag16
tp8729
a((lp8730
S'3)'
p8731
aS'Joy'
p8732
aS'stick'
p8733
aS'for'
p8734
aS'eazy'
p8735
aS'navigation,'
p8736
aS'35Mb'
p8737
aS'memory'
p8738
aS'card'
p8739
aS'to'
p8740
aS'store'
p8741
aS'the'
p8742
aS'pictures'
p8743
aS'and'
p8744
aS'stuff.'
p8745
ag16
tp8746
a((lp8747
S'Now'
p8748
aS'the'
p8749
aS'bad:'
p8750
aS'1)'
p8751
aS'As'
p8752
aS'usual,'
p8753
aS'battery'
p8754
aS'power'
p8755
aS'not'
p8756
aS'sufficient'
p8757
aS'for'
p8758
aS'daily'
p8759
aS'usuage.'
p8760
ag28
tp8761
a((lp8762
S'3)'
p8763
aS'Joy'
p8764
aS'stick'
p8765
aS'for'
p8766
aS'eazy'
p8767
aS'navigation,'
p8768
aS'35Mb'
p8769
aS'memory'
p8770
aS'card'
p8771
aS'to'
p8772
aS'store'
p8773
aS'the'
p8774
aS'pictures'
p8775
aS'and'
p8776
aS'stuff.'
p8777
ag16
tp8778
a((lp8779
S'The'
p8780
aS'battery'
p8781
aS'power'
p8782
aS'discharges'
p8783
aS'rapidly'
p8784
aS'especially'
p8785
aS'on'
p8786
aS'using'
p8787
aS'the'
p8788
aS'web'
p8789
aS'browser.'
p8790
ag28
tp8791
a((lp8792
S'2)'
p8793
aS'Phone'
p8794
aS'is'
p8795
aS'awfully'
p8796
aS'slow.'
p8797
ag28
tp8798
a((lp8799
S'Sometimes'
p8800
aS'when'
p8801
aS'you'
p8802
aS'press'
p8803
aS'buttons,'
p8804
aS'the'
p8805
aS'menu'
p8806
aS'appears'
p8807
aS'after'
p8808
ag34
aS'second'
p8809
aS'or'
p8810
aS'two.'
p8811
ag28
tp8812
a((lp8813
S'3)'
p8814
aS'Phone'
p8815
aS'is'
p8816
aS'kinda'
p8817
aS'heavy,'
p8818
aS'but'
p8819
aS'small'
p8820
aS'in'
p8821
aS'size.'
p8822
ag57
tp8823
a((lp8824
S'Looks'
p8825
aS'big'
p8826
aS'in'
p8827
aS'the'
p8828
aS'display'
p8829
aS'ads'
p8830
aS'though.'
p8831
ag57
tp8832
a((lp8833
S'4)'
p8834
aS'Buttons'
p8835
aS'are'
p8836
aS'quite'
p8837
aS'small'
p8838
aS'and'
p8839
aS'is'
p8840
aS'really'
p8841
ag34
aS'pain'
p8842
aS'exp'
p8843
aS'if'
p8844
aS'one'
p8845
aS'is'
p8846
aS'fond'
p8847
aS'of'
p8848
aS'text'
p8849
aS'messaging.'
p8850
ag28
tp8851
a((lp8852
S'There'
p8853
aS'will'
p8854
aS'be'
p8855
aS'much'
p8856
aS'erasing'
p8857
aS'of'
p8858
aS'text'
p8859
aS'as,'
p8860
aS'one'
p8861
aS'would'
p8862
aS'tend'
p8863
aS'to'
p8864
aS'type'
p8865
aS'something'
p8866
aS'instead'
p8867
aS'of'
p8868
aS'the'
p8869
aS'actual'
p8870
aS'letters.'
p8871
ag28
tp8872
a((lp8873
S'5)'
p8874
aS'Video'
p8875
aS'recorder'
p8876
aS'is'
p8877
aS'of'
p8878
aS'no'
p8879
aS'use'
p8880
aS'and'
p8881
aS'one'
p8882
aS'cannot'
p8883
aS'record'
p8884
aS'something'
p8885
aS'useful'
p8886
aS'in'
p8887
aS'10'
p8888
aS'seconds'
p8889
aS'and'
p8890
aS'it'
p8891
aS'takes'
p8892
ag34
aS'while'
p8893
aS'to'
p8894
aS'send'
p8895
aS'the'
p8896
aS'same'
p8897
aS'through'
p8898
aS'the'
p8899
aS'"Free'
p8900
aS'picture'
p8901
aS'and'
p8902
aS'video'
p8903
aS'messaging"'
p8904
aS'offered'
p8905
aS'by'
p8906
aS'service'
p8907
aS'provider.'
p8908
ag28
tp8909
a((lp8910
S'So'
p8911
aS'my'
p8912
aS'review'
p8913
aS'should'
p8914
aS'defintely'
p8915
aS'give'
p8916
aS'you'
p8917
aS'an'
p8918
aS'idea'
p8919
aS'about'
p8920
aS'this'
p8921
aS'phone.'
p8922
ag57
tp8923
a((lp8924
S'The'
p8925
aS'bottom'
p8926
aS'line'
p8927
aS'is'
p8928
aS'"Phone'
p8929
aS'is'
p8930
aS'cool'
p8931
aS'one'
p8932
ag952
aS'only'
p8933
aS'for'
p8934
aS'the'
p8935
aS'moment,'
p8936
aS'as'
p8937
aS'its'
p8938
aS'the'
p8939
aS'latest'
p8940
aS'phone'
p8941
aS'in'
p8942
aS'the'
p8943
aS'market'
p8944
aS'and'
p8945
aS'has'
p8946
aS'all'
p8947
aS'the'
p8948
aS'new'
p8949
aS'features,'
p8950
aS'but'
p8951
aS'this'
p8952
aS'will'
p8953
aS'soon'
p8954
aS'be'
p8955
aS'displaced'
p8956
aS'by'
p8957
aS'upcoming'
p8958
aS'newer'
p8959
aS'phones".'
p8960
ag16
tp8961
a((lp8962
S'my'
p8963
aS'number'
p8964
aS'one'
p8965
aS'criteria'
p8966
aS'for'
p8967
ag34
aS'new'
p8968
aS'phone'
p8969
aS'was'
p8970
aS'iSync'
p8971
aS'compaibility'
p8972
aS'via'
p8973
aS'bluetooth.'
p8974
ag57
tp8975
a((lp8976
S'all'
p8977
aS'the'
p8978
aS'other'
p8979
aS'features'
p8980
aS'are'
p8981
aS'gravy.'
p8982
ag57
tp8983
a((lp8984
g1314
aS'checked'
p8985
aS'the'
p8986
aS'iSync'
p8987
aS'compatibility'
p8988
aS'page'
p8989
aS'and'
p8990
aS'it'
p8991
aS'was'
p8992
aS'listed--they'
p8993
aS'even'
p8994
aS'had'
p8995
ag34
aS'photo'
p8996
aS'of'
p8997
aS'the'
p8998
aS'6600'
p8999
aS'shown'
p9000
aS'in'
p9001
aS'the'
p9002
aS'graphic.'
p9003
ag57
tp9004
a((lp9005
S'so,'
p9006
aS'right'
p9007
aS'out'
p9008
aS'of'
p9009
aS'the'
p9010
aS'box'
p9011
ag1314
aS'had'
p9012
aS'issue.'
p9013
ag28
tp9014
a((lp9015
S'namely,'
p9016
aS'it'
p9017
aS'wouldnt'
p9018
aS'sync.'
p9019
ag28
tp9020
a((lp9021
S'after'
p9022
aS'scouring'
p9023
aS'the'
p9024
aS'various'
p9025
aS'boards'
p9026
ag1314
aS'find'
p9027
aS'this'
p9028
aS'is'
p9029
aS'an'
p9030
aS'arbitrary'
p9031
aS'and'
p9032
aS'pervasive'
p9033
aS'problem.'
p9034
ag28
tp9035
a((lp9036
S'there'
p9037
aS'are'
p9038
aS'lengthy'
p9039
aS'hacks'
p9040
aS'offered'
p9041
aS'requiring'
p9042
aS'root'
p9043
aS'access'
p9044
aS'and'
p9045
aS'edits'
p9046
aS'via'
p9047
aS'terminal.'
p9048
ag57
tp9049
a((lp9050
g1314
aS'may'
p9051
aS'have'
p9052
aS'been'
p9053
aS'up'
p9054
aS'for'
p9055
aS'this'
p9056
aS'10'
p9057
aS'years'
p9058
aS'ago,'
p9059
aS'but'
p9060
ag1314
aS'just'
p9061
aS'want'
p9062
ag34
aS'phone'
p9063
aS'that'
p9064
aS'works'
p9065
aS'at'
p9066
aS'this'
p9067
aS'point.'
p9068
ag57
tp9069
a((lp9070
g1314
aS'guess'
p9071
aS'its'
p9072
aS'my'
p9073
aS'own'
p9074
aS'fault'
p9075
aS'for'
p9076
aS'not'
p9077
aS'researching'
p9078
aS'more'
p9079
aS'before'
p9080
aS'buying'
p9081
aS'the'
p9082
aS'thing.'
p9083
ag57
tp9084
a((lp9085
S'but,'
p9086
ag1314
aS'am'
p9087
aS'quite'
p9088
aS'unhappy'
p9089
aS'with'
p9090
aS'nokia'
p9091
aS'at'
p9092
aS'the'
p9093
aS'moment.'
p9094
ag28
tp9095
a((lp9096
S'if'
p9097
aS'you'
p9098
aS'are'
p9099
aS'looking'
p9100
aS'for'
p9101
ag34
aS'phone'
p9102
aS'to'
p9103
aS'integrate'
p9104
aS'as'
p9105
aS'easily'
p9106
aS'as'
p9107
aS'the'
p9108
aS'sonyericsson'
p9109
aS'phones'
p9110
aS'with'
p9111
aS'iSync,'
p9112
ag1314
aS'say'
p9113
aS'stick'
p9114
aS'with'
p9115
ag34
aS'sonyericsson.'
p9116
ag16
tp9117
a((lp9118
S"i'd"
p9119
aS'rather'
p9120
aS'have'
p9121
ag34
aS'little'
p9122
aS'more'
p9123
aS'phone'
p9124
aS'than'
p9125
aS'the'
p9126
aS't610'
p9127
aS'offers.'
p9128
ag57
tp9129
a((lp9130
S'but,'
p9131
aS"that's"
p9132
aS'the'
p9133
aS'only'
p9134
aS'SE'
p9135
aS't-mobile'
p9136
aS'offers'
p9137
aS'right'
p9138
aS'now.'
p9139
ag57
tp9140
a((lp9141
S'this'
p9142
aS'nokia'
p9143
aS'is'
p9144
aS'going'
p9145
aS'back'
p9146
aS'to'
p9147
aS'china'
p9148
aS'or'
p9149
aS'wherever'
p9150
aS'it'
p9151
aS'came'
p9152
aS'from.'
p9153
ag57
tp9154
a((lp9155
S'if'
p9156
aS'there'
p9157
aS'was'
p9158
ag34
aS'zero-star'
p9159
aS'rating'
p9160
ag1314
aS'would'
p9161
aS'give'
p9162
aS'it.'
p9163
ag28
tp9164
a((lp9165
S'went'
p9166
aS'with'
p9167
aS'T'
p9168
aS'mobile'
p9169
aS'Nokia'
p9170
aS'6600'
p9171
aS'replacing'
p9172
aS'my'
p9173
aS'Sony'
p9174
aS'T610.'
p9175
ag57
tp9176
a((lp9177
S'It'
p9178
aS'is'
p9179
ag34
aS'multifunction'
p9180
aS'phone,'
p9181
aS'reception'
p9182
aS'quality'
p9183
aS'is'
p9184
aS'better'
p9185
aS'than'
p9186
aS'the'
p9187
aS'610.'
p9188
ag16
tp9189
a((lp9190
S'speaker'
p9191
aS'phone'
p9192
aS'quality'
p9193
aS'is'
p9194
aS'good,'
p9195
aS'and'
p9196
aS'poping'
p9197
aS'in'
p9198
ag34
aS'512mb'
p9199
aS'MMC'
p9200
aS'card,'
p9201
aS'it'
p9202
aS'rocks'
p9203
aS'!'
p9204
ag16
tp9205
a((lp9206
S'putting'
p9207
aS'in'
p9208
aS'MP3'
p9209
aS'player,'
p9210
aS'lots'
p9211
aS'of'
p9212
aS'games'
p9213
aS'and'
p9214
aS'application'
p9215
aS'to'
p9216
aS'download.'
p9217
ag16
tp9218
a((lp9219
S'DOwnside'
p9220
aS'is'
p9221
aS'the'
p9222
aS'size'
p9223
aS'of'
p9224
aS'the'
p9225
aS'phone,'
p9226
aS'it'
p9227
aS'is'
p9228
aS'BIG'
p9229
aS'for'
p9230
aS"today's"
p9231
aS'standard.'
p9232
ag28
tp9233
a((lp9234
S'and'
p9235
aS'the'
p9236
aS'battery'
p9237
aS'life'
p9238
aS'is'
p9239
aS'bad'
p9240
ag9204
ag28
tp9241
a((lp9242
g12
aS'could'
p9243
aS'hardly'
p9244
aS'use'
p9245
aS'it'
p9246
aS'without'
p9247
ag34
aS'recharge'
p9248
aS'in'
p9249
ag8
aS'days!'
p9250
ag28
tp9251
a((lp9252
g34
aS'bit'
p9253
aS'dissapoitnd'
p9254
aS'on'
p9255
aS'that!'
p9256
ag28
tp9257
a((lp9258
S'the'
p9259
aS'GPRS'
p9260
aS'web'
p9261
aS'access'
p9262
aS'is'
p9263
aS'sloooooooooooooow!'
p9264
ag28
tp9265
a((lp9266
S'DaveC'
p9267
ag57
tp9268
a((lp9269
g12
aS'got'
p9270
aS'this'
p9271
aS'phone'
p9272
aS'yesterday'
p9273
aS'and'
p9274
aS"didn't"
p9275
aS'find'
p9276
aS'any'
p9277
aS'problems'
p9278
aS'with'
p9279
aS'it'
p9280
aS'yet.'
p9281
ag16
tp9282
a((lp9283
S'Picture'
p9284
aS'and'
p9285
aS'video'
p9286
aS'quality'
p9287
aS'is'
p9288
aS'ok.'
p9289
ag16
tp9290
a((lp9291
S'Love'
p9292
aS'the'
p9293
aS'speaker'
p9294
aS'phone.'
p9295
ag16
tp9296
a((lp9297
S'INCREDIBLE'
p9298
aS'MEMORY!'
p9299
ag16
tp9300
a((lp9301
S'Aside'
p9302
aS'from'
p9303
ag34
aS'6MB++'
p9304
aS'built-in'
p9305
aS'phone'
p9306
aS'memory,'
p9307
aS"there's"
p9308
ag34
aS'32MB'
p9309
aS'MMC'
p9310
aS'card'
p9311
aS'that'
p9312
aS'goes'
p9313
aS'with'
p9314
aS'it!'
p9315
ag16
tp9316
a((lp9317
S'Picture'
p9318
aS"quality's"
p9319
aS'great'
p9320
aS'for'
p9321
aS'still'
p9322
aS'and'
p9323
aS'video'
p9324
aS'with'
p9325
aS'sound.'
p9326
ag16
tp9327
a((lp9328
S'you'
p9329
aS'can'
p9330
aS'record'
p9331
aS'your'
p9332
aS'voice'
p9333
aS'and'
p9334
aS'turn'
p9335
aS'it'
p9336
aS'into'
p9337
ag34
aS'ringtone.'
p9338
ag16
tp9339
a((lp9340
S'you'
p9341
aS"can't"
p9342
aS'do'
p9343
aS'that'
p9344
aS'with'
p9345
ag34
aS'Sony'
p9346
aS'T610'
p9347
aS'(which'
p9348
ag1314
aS'traded'
p9349
aS'for'
p9350
ag34
aS'6600).'
p9351
ag28
tp9352
a((lp9353
S'T610'
p9354
aS'supports'
p9355
aS'only'
p9356
aS'midi'
p9357
aS'files.'
p9358
ag28
tp9359
a((lp9360
S'N6600'
p9361
aS'supports'
p9362
aS'midi,'
p9363
aS'wav,'
p9364
aS'amr,'
p9365
aS'mp3'
p9366
aS'etc.'
p9367
ag16
tp9368
a((lp9369
S'it'
p9370
aS'has'
p9371
ag34
aS'handsfree'
p9372
aS'loudspeaker,'
p9373
aS'conference'
p9374
aS'and'
p9375
aS'transfer!'
p9376
ag16
tp9377
a((lp9378
S"i'm"
p9379
aS'having'
p9380
aS'mine'
p9381
aS'upgraded'
p9382
aS'to'
p9383
aS'capture'
p9384
aS'endless'
p9385
aS'video,'
p9386
aS'which'
p9387
aS'right'
p9388
aS'now'
p9389
aS'allows'
p9390
aS'10'
p9391
aS'secs.'
p9392
ag57
tp9393
a((lp9394
S"I'll"
p9395
aS'have'
p9396
aS'to'
p9397
aS'buy'
p9398
aS'bigger'
p9399
aS'MMC'
p9400
aS'card'
p9401
aS'of'
p9402
aS'course.'
p9403
ag57
tp9404
a((lp9405
g12
aS'love'
p9406
aS'this'
p9407
aS'phone.'
p9408
ag16
tp9409
a((lp9410
S'This'
p9411
aS'phone'
p9412
aS'is'
p9413
aS'one'
p9414
aS'of'
p9415
aS'the'
p9416
aS'milestones'
p9417
aS'in'
p9418
aS'the'
p9419
aS'history'
p9420
aS'of'
p9421
aS'the'
p9422
aS'cellular'
p9423
aS'phones.'
p9424
ag16
tp9425
a((lp9426
S'Supporting'
p9427
aS'an'
p9428
aS'operating'
p9429
aS'system,'
p9430
aS'Symbian'
p9431
aS'OS,'
p9432
aS'you'
p9433
aS'can'
p9434
aS'download'
p9435
aS'and'
p9436
aS'run'
p9437
ag34
aS'lot'
p9438
aS'of'
p9439
aS'programs'
p9440
aS'on'
p9441
aS'this'
p9442
aS'phone.'
p9443
ag16
tp9444
a((lp9445
S'You'
p9446
aS'can'
p9447
aS'turn'
p9448
aS'this'
p9449
aS'phone'
p9450
aS'into'
p9451
ag34
aS'gaming'
p9452
aS'machine,'
p9453
ag34
aS'camcorder'
p9454
aS'or'
p9455
ag34
aS'digital'
p9456
aS'camera,'
p9457
aS'an'
p9458
aS'mp3-player,'
p9459
ag34
aS'movie'
p9460
aS'viewer,'
p9461
ag34
aS'voice'
p9462
aS'recorder,'
p9463
ag34
aS'personal'
p9464
aS'secretary,'
p9465
ag34
aS'GPS'
p9466
aS'map'
p9467
aS'browser,'
p9468
ag34
aS'book,'
p9469
ag34
aS'multifunction'
p9470
aS'remote'
p9471
aS'controller,'
p9472
aS'practically'
p9473
aS'everything'
p9474
aS'that'
p9475
aS'you'
p9476
aS'can'
p9477
aS'do'
p9478
aS'with'
p9479
aS'the'
p9480
aS'computer,'
p9481
aS'plus'
p9482
aS'it'
p9483
aS'is'
p9484
ag34
aS'phone(!!)'
p9485
aS'and'
p9486
aS'also'
p9487
aS'you'
p9488
aS'can'
p9489
aS'carry'
p9490
aS'it'
p9491
aS'in'
p9492
aS'your'
p9493
aS'pocket'
p9494
aS':).'
p9495
ag16
tp9496
a((lp9497
S'Many'
p9498
aS'of'
p9499
aS'these'
p9500
aS'programs'
p9501
aS'are'
p9502
aS'shareware,'
p9503
aS'some'
p9504
aS'can'
p9505
aS'be'
p9506
aS'purchased'
p9507
aS'by'
p9508
aS'paying'
p9509
ag34
aS'little'
p9510
aS'bit'
p9511
aS'of'
p9512
aS'bucks.'
p9513
ag16
tp9514
a((lp9515
S'It'
p9516
aS'uses'
p9517
aS'the'
p9518
aS'extendable'
p9519
aS'MMC'
p9520
aS'memory,'
p9521
aS'it'
p9522
aS'is'
p9523
aS'perfect'
p9524
aS'for'
p9525
aS'storing'
p9526
aS'videos,'
p9527
aS'pictures'
p9528
aS'and'
p9529
aS'mp3s.'
p9530
ag16
tp9531
a((lp9532
S'Its'
p9533
aS'nice'
p9534
aS'look'
p9535
aS'is'
p9536
aS'also'
p9537
ag34
aS'plus.'
p9538
ag16
tp9539
a((lp9540
S'And'
p9541
aS'also,'
p9542
aS'since'
p9543
aS'it'
p9544
aS'is'
p9545
aS'tri'
p9546
aS'band'
p9547
aS'and'
p9548
aS'since'
p9549
aS'it'
p9550
aS'uses'
p9551
aS'SIM-card,'
p9552
aS'you'
p9553
aS'can'
p9554
aS'just'
p9555
aS'use'
p9556
aS'it'
p9557
aS'in'
p9558
aS'Europe'
p9559
aS'and'
p9560
aS'many'
p9561
aS'other'
p9562
aS'parts'
p9563
aS'of'
p9564
aS'the'
p9565
aS'world,'
p9566
aS'wherever'
p9567
aS'GSM'
p9568
aS'exists.'
p9569
ag16
tp9570
a((lp9571
g12
aS'am'
p9572
aS'just'
p9573
aS'in'
p9574
aS'love'
p9575
aS'with'
p9576
aS'this'
p9577
aS'phone,'
p9578
aS'especially'
p9579
aS'after'
p9580
aS'using'
p9581
ag34
aS'more'
p9582
aS'primitve'
p9583
aS'phone'
p9584
aS'about'
p9585
ag4294
aS'years.'
p9586
ag16
tp9587
a.