(dp0
S'2. The looks are absolutely no nonsensical.'
p1
NsS'A decent camera phone for taking quick pictures, movies, and having general all around fun with.'
p2
(dp3
S'camera'
p4
S'+3'
p5
ssS'Have had the Nokia 6600 for a year now and am generally very happy with it and with T-Mobile.'
p6
(dp7
S'6600'
p8
S'+2][u'
p9
sS'T-Mobile'
p10
S'+2'
p11
ssS"I've connected the phone with two laptops and a iPaq 4155."
p12
(dp13
S'bluetooth'
p14
S'+2'
p15
ssS"Secondly, in addition to the lag each time you give a command, it's just not that easily useable on the go."
p16
(dp17
S'useable'
p18
S'-2'
p19
sS'lag'
p20
S'-3'
p21
ssS'I feel much less likely to drop this phone than others, which are actually starting to get too small.'
p22
(dp23
S'small'
p24
S'+3][u'
p25
ssS'Its a tough one this unless you wanna drive your car over it.'
p26
(dp27
S'phone'
p28
S'+3][u'
p29
ssS'What is that, .00000001 megapixel quality?'
p30
NsS'On the T-Mobile service I was able to take pics as we drove across I-70 and email them to family & friends once we reached a T-Mobile tzone (usually a major city).'
p31
(dp32
S'T-Mobile service'
p33
S'+3'
p34
ssS'And Bluetooth does not drain the battery as quick as I thought it would, I usually can go 1.5 days with Bluetooth on along with making calls before I need a full recharge.'
p35
(dp36
S'battery'
p37
S'+2'
p38
sS'Bluetooth'
p39
S'+2'
p40
ssS"i'd rather have a little more phone than the t610 offers."
p41
NsS'With the recent "bluejacking" vunerability, the Bluetooth overseers have created a new security system called Combination Key.'
p42
NsS"I could go on and on---but I won't!"
p43
NsS'All that had to be done was restore the software to the phone, and all that took was a cable and some Nokia software.'
p44
NsS"Nokia finally determined that my phone was in need of repair, but since it was out of warranty (it was made in May '03 and they would not take an eBay purchase as proof) they refused to fix the phone for less than $120!"
p45
NsS"The camera and video functionality is decent, I can't see myself wasting my time with it, but some people will."
p46
(dp47
S'camera'
p48
S'+2'
p49
sS'video'
p50
S'+2'
p51
ssS'They have the worst service of any of the major companies.'
p52
(dp53
S'service'
p54
S'-3][p'
p55
ssS"I've have many Nokia's and while this is the best for features, it's the worst as a phone."
p56
(dp57
S'phone'
p58
S'-3'
p59
ssS'3. The Nokia 6600 has a brilliant Java interface.'
p60
(dp61
S'interface'
p62
S'+3'
p63
ssS'On average, I prolly restart the phone every two days.'
p64
NsS"I have set up it's PDA features with avantgo.com where you can download info from sites like weather,mapquest maps/directions into it, which is great."
p65
(dp66
S'PDA'
p67
S'+3'
p68
ssS"If I had to do it over, I wouldn't buy anything else."
p69
(dp70
S'phone'
p71
S'+3'
p72
ssS"I love the features, the interface, the size (the screen is a delight), the camera (though I admit I'm not much of a camera user -- so just a toy for me), the internet connectivity, the quality, etc."
p73
(dp74
S'features'
p75
S'+3'
p76
sS'internet connectivity'
p77
S'+3'
p78
sS'camera'
p79
S'+3'
p80
sS'interface'
p81
S'+3'
p82
sS'quality'
p83
S'+3'
p84
sS'size'
p85
S'+3'
p86
ssS"The camera is adequate and if I want high-res photos I'll use my digital camera instead."
p87
(dp88
S'camera'
p89
S'+2'
p90
ssS'Many of these programs are shareware, some can be purchased by paying a little bit of bucks.'
p91
(dp92
S'programs'
p93
S'+2][u'
p94
ssS'I am just in love with this phone, especially after using a more primitve phone about 3 years.'
p95
(dp96
S'phone'
p97
S'+3'
p98
ssS'For example, the memory card is under the battery.'
p99
NsS"The 3650--being essentially a mini-computer--had memory leaks and occassional crashing, but nothing that a quick power cycle couldn't help."
p100
NsS"Now I'm a techy and like getting technical about things so I'd brief you in on the few features I liked about this phone-"
p101
NsS'After over two hours of being placed on hold and persuasion, a supervisor finally agreed to fix the phone for free.'
p102
NsS'If you own an apple you can isync it to your address book so that you have all of you numbers in two places..... in case you lose your phone (get INSURACE)'
p103
NsS'Now that is neat.'
p104
NsS'Two days after they received the phone, I received a letter in my mailbox stating that if I did not pay $120 for the repair of my phone, it would be returned unrepaired.'
p105
NsS"It's not as stylized as a Sony or Samsung."
p106
(dp107
S'stylized'
p108
S'-2][u'
p109
ssS"STYLING/ERGONOMICS: The keys are small, which generally doesn't bother me if they are spaced because I can employ a little 'Braille,' but the keys run into each other, so careful attn. must be paid when dialing."
p110
(dp111
S'keys'
p112
S'-2][u'
p113
ssS'Speaker volume is loud and clear but it sacrifaces the battery life.'
p114
(dp115
S'volume'
p116
S'-3][u'
p117
ssS'Most importantly, it allowed me to get on the Internet via Bluetooth via GPRS flawlessly.'
p118
NsS"In noisy environment, it's hard to hear from the earpiece."
p119
(dp120
S'hear'
p121
S'-3][u'
p122
ssS'You will probably have to get a belt clip for it, however, unless you wear the pants with the cargo pockets.'
p123
(dp124
S''
p125
S's'
p126
ssS"I really dislike holding a phone to my ear, and I've found the Freespeak to be very comfortable and easy to use with this phone."
p127
(dp128
S'Freespeak'
p129
S'+2'
p130
ssS'The best features that I use most often are:'
p131
NsS"3- It is SLOW , if you keep the original configuration and progs (why'd u buy it then ?!) it'll run smoothly , but still slower than most other coloured-screen Nokias ."
p132
(dp133
S'SLOW'
p134
S'-3][cs'
p135
ssS'i would highly recommmend...... oh and i have owned this baby for like 6 months now'
p136
(dp137
g125
g126
ssS'i also use the phone as my modem via bluetooth to my Apple powerbook!'
p138
(dp139
S'bluetooth'
p140
S'+3'
p141
ssS'It is Nokia and thus easy to acces the menu options.'
p142
(dp143
S'menu'
p144
S'+3'
p145
ssS"I'm giving it 1 star because as compared to other Nokia phones , its a 1 , compared to other blunders by other companies (such a samsung and motorrola) it might be good .... but if you're getting a Nokia , don't get this one ."
p146
(dp147
S'phones'
p148
S'-3][cs'
p149
ssS"This phone is one of the best I've ever used."
p150
(dp151
S'phone'
p152
S'+3'
p153
ssS'The only disappointment so far has been battery life.'
p154
(dp155
S'battery life'
p156
S'-2'
p157
ssS'Overall I dont think I will ever upgrade from this phone.'
p158
NsS'It would not hang up on calls.'
p159
(dp160
S'calls'
p161
S'-3][p'
p162
ssS'But watch the Amazon rebates on these (T-Mobile rebate is fine).'
p163
NsS'I also am loving T-Mobile (100 times better than ATT...'
p164
(dp165
S'ATT'
p166
S'-3'
p167
sS'T-Mobile'
p168
S'+3'
p169
ssS"I've dropped it atleast a dozen times to my recolletion and it still works as good as ever."
p170
(dp171
S'build'
p172
S'+3][u'
p173
ssS'The fact that you can assign ringtones to people and/or groups is really cool.'
p174
(dp175
S'ringtones'
p176
S'+2'
p177
ssS"The voice recorders good, but you can't record songs off the radio for ring tones."
p178
(dp179
S'voice recorders'
p180
S'+2'
p181
ssS'Looks big in the display ads though.'
p182
NsS"If you're looking for a new company, don't be fooled by the service plans."
p183
(dp184
g125
g126
ssS'The second piece of advice - Be prepared to spend a lot of time w/ this phone.'
p185
(dp186
g125
g126
ssS'This one has a good looking.'
p187
(dp188
S'looking'
p189
S'+2'
p190
ssS"Best phone i've ever owned, period."
p191
(dp192
S'phone'
p193
S'+3'
p194
ssS"UPSIDE: This one, like most Nokias, receives a consistently strong signal (I've tried some Samsung and Sony Ericsson models which were very weak on the reception front)."
p195
(dp196
S'signal'
p197
S'+3][u][cc'
p198
ssS'I really love this phone...'
p199
(dp200
S'phone'
p201
S'+3'
p202
ssS'Especially the LCD is big and the camera quality is among the very best around.'
p203
(dp204
S'LCD'
p205
S'+3]camera quality[+3'
p206
ssS'I was looking for a phone which synced with Mac OSX using Bluetooth, had decent battery life, could check email, had good reception, nice screen size and was durable (I break often break small gadgets)'
p207
(dp208
S'screen'
p209
S'+3'
p210
sS'battery life'
p211
S'+3'
p212
sS'reception'
p213
S'+3'
p214
sS'Bluetooth'
p215
S'+3'
p216
ssS"You can upgrade but then there's a certain level of trouble involved."
p217
(dp218
S'upgrade'
p219
S'-1][u'
p220
ssS'I was using a Motorola T720i with Verizon and I had alot of dropped calls and I had troubles syncing data.'
p221
(dp222
S'syncing data'
p223
S'-3][cc'
p224
sS'Motorola T720i'
p225
S'-3][cc'
p226
sS'calls'
p227
S'-3][cc'
p228
ssS'And, other else,  the camera is still VGA.'
p229
(dp230
S'camera'
p231
S'-2'
p232
ssS"In short, I don't have a single negative thing to say."
p233
NsS'The games are decent, but u only get 2 to start off with.'
p234
(dp235
S'games'
p236
S'+1'
p237
ssS'But you can download some really good ones like pac-man or mafia wars.'
p238
(dp239
S'games'
p240
S'+3'
p241
ssS'*****DO NOT BUY THIS PHONE***** ****READ WHY****'
p242
NsS'My old Sony Ericsson T610 has this feature.'
p243
(dp244
S'feature'
p245
S'-3][cc'
p246
ssS"I'll have to buy bigger MMC card of course."
p247
NsS'The good:  1) Large LCD screen, colorful display, good resolution.'
p248
(dp249
S'screen'
p250
S'+2'
p251
sS'display'
p252
S'+2'
p253
ssS"Depending on the timing of the postmark date, you don't get your second bill until the postmark date passes, so it's impossible to qualify for the rebate."
p254
NsS'The battery life is less than stellar, but it charges w/ the quickness.'
p255
(dp256
S'battery life'
p257
S'+1'
p258
ssS'This is great for putting photos and memos on the computer and transferring calander data to my phone.'
p259
NsS'Dont rely on T-Mobile rebates.'
p260
(dp261
S'rebates'
p262
S'-2'
p263
ssS'Not for the impatient.'
p264
NsS"In my humble opinion, games, along w/ 'flip phones' belong in the hands of teenagers."
p265
NsS'The battery power discharges rapidly especially on using the web browser.'
p266
(dp267
S'battery'
p268
S'-2'
p269
ssS'I got a 1GB MMC upgrade for this phone and now I can:'
p270
(dp271
S'MMC'
p272
S'+3'
p273
ssS'The speed is the same as dail up, where i live we do not have wifi everywhere so this is my version of it until we catch up.'
p274
(dp275
S'bluetooth'
p276
S'+3][u'
p277
ssS'It was a major step up from a Sony t68i.'
p278
NsS'a bit dissapoitnd on that!'
p279
(dp280
S'battery life'
p281
S'-3][p'
p282
ssS'Sometimes,the phone gets stuck just like a computer and it doesnt store any incoming call numbers..etc..'
p283
NsS'The only problem is the size of the keys.'
p284
(dp285
S'keys'
p286
S'-1'
p287
ssS'5. Check traffic411.com for LA traffic on the 405.'
p288
(dp289
S'internet'
p290
S'+3'
p291
ssS'this nokia is going back to china or wherever it came from.'
p292
NsS'Sometimes, various applications crash.'
p293
(dp294
S'applications'
p295
S'-2'
p296
ssS'I spent over an hour talking to a tier-2 technician who told me that their tier-1 technician should have known that it was not possible to backup the 6600 to the 3650 safely in any condition.'
p297
NsS'While the two devices will pair, the phone will immediately drop the connection if any data is transferred.'
p298
NsS'My last simpler Nokia started right up and was immediately ready for use.'
p299
(dp300
S'speed'
p301
S'-3][u][cs'
p302
ssS'Overall the phones fantastic, and I would have given it 5 stars, but its not perfect.'
p303
(dp304
S'phones'
p305
S'+3'
p306
ssS'5) Bluetooth wireless technology, so that I can transfer data to and from my computer without messing with any cables.'
p307
(dp308
S'Bluetooth'
p309
S'+3'
p310
ssS'This phone is not suitable for fast people, maybe only for old people.'
p311
(dp312
S'phone'
p313
S'-3][u'
p314
ssS'In short, the Nokia 6600 is an evolution but not a revolution.'
p315
(dp316
S'6600'
p317
S'+2'
p318
ssS'1) Great audio quality overall.'
p319
(dp320
S'audio quality'
p321
S'+3'
p322
ssS"I've synched it with my PC over bluetooth."
p323
NsS'the GPRS web access is sloooooooooooooow!'
p324
(dp325
S'GPRS'
p326
S'-3'
p327
ssS'I can use it as a modem for my computer, connect with clients and friends, the possibilities are endless.'
p328
(dp329
S'modem'
p330
S'+3][p'
p331
ssS'It films 10 second video, for crying out loud.'
p332
(dp333
S'video'
p334
S'+3'
p335
ssS'The phone must be shut down & taken apart to change the memory card... and turning the phone back on takes a little while.'
p336
(dp337
S'operation'
p338
S'-2][u'
p339
ssS'I like the size and shape.'
p340
(dp341
S'shape'
p342
S'+2'
p343
sS'size'
p344
S'+2'
p345
ssS"This may be a really cool phone, but it's not worth it with T-Mobile."
p346
(dp347
S'phone'
p348
S'+2'
p349
ssS'The video recorders a bit odd, sometimes I get 9 secs on my recordings, sometimes I get 17.'
p350
(dp351
S'video recorders'
p352
S'-1'
p353
ssS'I thought it was kind of steeply priced at that time.'
p354
(dp355
S'priced'
p356
S'-2'
p357
ssS'It was an OK phone with a really nice screen, great battery life, decent signal, and cool applications.'
p358
NsS"The 6600 (T-Mobile) is the true 'world phone' in that it has the mhz to operate around the globe, including New Zealand and Australia (900) whereas the  6620 (available from Cingular) replaces it w/ 800mhz (some refer to as 850)."
p359
(dp360
S'6600'
p361
S'+3'
p362
sS'mhz'
p363
S'+3'
p364
ssS'Nokia makes great phones, and this one is the cream of the crop.'
p365
(dp366
S'phones'
p367
S'+3'
p368
sS'Nokia'
p369
S'+3'
p370
ssS'Using supplied s/w, you can transfer all addresses from a different nokia phone into it.'
p371
(dp372
S's/w'
p373
S'+3'
p374
ssS'I bought this phone after having other phones that had less-than-consistant reception.'
p375
NsS'Less Benz/obvious; more Audi/understated.'
p376
NsS'It has raised the bar owing to number of features it offers and the absolute ease of use delight.'
p377
(dp378
S'use'
p379
S'+3'
p380
ssS'DOWNSIDE: It takes a long time to start up.'
p381
(dp382
S'speed'
p383
S'-3][u'
p384
ssS"However, it needs to be quite quiet for it to work at all -- dosn't work at all in the car, for example."
p385
(dp386
S'voice-dialing system'
p387
S'-2][p'
p388
ssS'This makes for a great phone.'
p389
(dp390
S'phone'
p391
S'+3'
p392
ssS'I think the keypad on your cell phone is the most important thing for me as Im constantly sending messages , calling people and fiddling around with my phone.'
p393
NsS'I use this phone as my quick and dirty digital camera!'
p394
NsS'You have to wait to get your second bill before you can send the rebate form in. \\'
p395
NsS"There's a whole lot of things you can do with this phone besides reading a book , playing various Java games , having a variety of software installed."
p396
NsS"On the plus side it's packed with features, including BlueTooth that works fine - it's really a tiny computer that is also a phone... and that's the negative."
p397
(dp398
S'phone'
p399
S'-3'
p400
ssS'very cool features... great camera with zoom...cool quality pictures... great ringtones... bluetooth feature is great....'
p401
(dp402
S'ringtones'
p403
S'+3'
p404
sS'camera'
p405
S'+3'
p406
sS'features'
p407
S'+3'
p408
sS'bluetooth'
p409
S'+3'
p410
ssS'Capacity is not a problem here.'
p411
(dp412
S'Capacity'
p413
S'+3'
p414
ssS'Two weeks later I mailed the phone in for repair.'
p415
NsS'I bet most of the users of this phone would agree.'
p416
NsS'As a computer, or PDA its weak since the screen, while large by phone standards, is still tiny to really do anything on.'
p417
(dp418
S'screen'
p419
S'-3][u'
p420
ssS'This is a MUST when you need to get flight times, connect to reservations, etc.'
p421
NsS"This is the first cell phone I've owned, and overall, I am quite pleased with it."
p422
(dp423
S'phone'
p424
S'+3'
p425
ssS"Picture quality's great for still and video with sound."
p426
(dp427
S'Picture'
p428
S'+3'
p429
sS'video'
p430
S'+2'
p431
ssS'The nokia 6600 is a great phone, good games, good camera.'
p432
(dp433
S'phone'
p434
S'+3'
p435
ssS'The phone itself is pretty nice.'
p436
(dp437
S'phone'
p438
S'+3'
p439
ssS"When you consider expandability (downloads via computer), the numerous features, two transmission programs and multiple storage devices, dependability - this is a phone that isn't easy to out-grow."
p440
(dp441
S'phone'
p442
S'-2'
p443
ssS'If you use linux and want GRPS and/or want to use a handsfree bluetooth device, and want a decent camera -- this is the phone for you.'
p444
(dp445
S'phone'
p446
S'+3'
p447
ssS'1) phone card calling feature.'
p448
NsS'i have owned many phones with them such as v60, 6190, e715, 6610, v66, v205.... and the list can go on!'
p449
NsS'I have used this wireless internet almost everywhere i travel and it works great.'
p450
NsS'I have ordered 2 "cell phone + service"s from Amazon.'
p451
NsS'So no wonder a lot of people find the 6600 such a miracle .'
p452
NsS"I'm used to having to restart things."
p453
NsS'Does all this sound technical?'
p454
NsS"Other than that, the simbian series 60 OS is great and offers lots of proprietary software that will work on your phone if you're willing to hunt for it."
p455
(dp456
S'OS'
p457
S'+3'
p458
ssS'I called Nokia to try to get it sorted out, and they stated that they had no recollection of ever promising to repair the phone for free.'
p459
NsS'I almost always get a good strong signal, even in fairly remote areas here in the southwest.'
p460
(dp461
S'signal'
p462
S'+3'
p463
ssS'I recommend T-Mobile and the Nokia 6600 without reservation.'
p464
(dp465
S'6600'
p466
S'+3][s'
p467
sS'T-Mobile'
p468
S'+3][s'
p469
ssS"Motorola's phones are well engineered but have an user interface that reflects very poorly on what is otherwise an excellent engineering company."
p470
NsS'This is representative of the entire phone operation.'
p471
NsS'Especially for the price amazon gives it at (I was unable to get mine through amazon due to some credit complications).'
p472
(dp473
S'price'
p474
S'+3'
p475
ssS"I wouldn't use it for business purposes and hand one out to all my employees, because you tend to want a little more rugged a phone for that."
p476
(dp477
g125
g126
ssS'Video recording is limited at just 9 seconds.'
p478
(dp479
S'Video recording'
p480
S'-2'
p481
ssS'I love this phone.'
p482
(dp483
S'phone'
p484
S'+3'
p485
ssS"I really regret signing up with T-Mobile, but I'm stuck with them for the next 6 months of the contract."
p486
(dp487
S'T-Mobile'
p488
S'-3'
p489
ssS'Anyhow some demerits of this phone, The phone has a slow processor and the ear volume is lower than 6610 but then the 6610 has the best ear volume among most Nokia variants.'
p490
(dp491
S'processor'
p492
S'-3]ear volume[-2][cs'
p493
ssS'First of all, the phone houses a great deal of memory for multiple videos, sound clips, photos, texts, etc.'
p494
(dp495
S'memory'
p496
S'+3'
p497
ssS'Despite a critical start, this phone deserves four stars because it accomplishes what it sets out to do (which is pretty lofty)... does more than most... does it well... is dependable.'
p498
(dp499
S'phone'
p500
S'+3'
p501
ssS'THE ADVERTISING IS A LIE.'
p502
NsS'the pics can be touched up in photoshop, and be printed at 4x6 and they look great!'
p503
(dp504
S'pics'
p505
S'+3'
p506
ssS'Outside of the T-Mobile service area the phone seamlessly jumped onto AT&T Wireless and various other services where the T-Mobile service was unavailable.'
p507
(dp508
S'T-Mobile service'
p509
S'+3'
p510
ssS"It's as though Nokia has segregated 90% of the screen for fancy features rarely used and leave just 10% for the day to day use."
p511
(dp512
S'screen'
p513
S'-3'
p514
ssS'Great reception, visibility and interface (may be complicated by others).'
p515
(dp516
S'interface'
p517
S'+3'
p518
sS'visibility'
p519
S'+3'
p520
sS'reception'
p521
S'+3'
p522
ssS"The sound quality is excellent and the speaker phone couldn't be easier to use."
p523
(dp524
S'sound'
p525
S'+3'
p526
sS'speaker phone'
p527
S'+3'
p528
ssS"I'm sure you can read the specs above to see everything it does, but for me the best thing is that I can easily check my email, movie times, news, or any website with this phone."
p529
(dp530
S'multimedia'
p531
S'+3'
p532
ssS"One primary reason for getting a cell phone was so that I could use it as an internet connection for my laptop running linux, where softmodem drivers are hard to find, and don't work very well."
p533
(dp534
S'internet'
p535
S'+1'
p536
ssS'All at the same time, and all without a hitch.'
p537
(dp538
S'phone'
p539
S'+3][u'
p540
ssS'3) Phone is kinda heavy, but small in size.'
p541
(dp542
S'heavy'
p543
S'-2][u'
p544
sS'size'
p545
S'+1'
p546
ssS'Believe me when I say this I have used and fingered all Nokia phones and the 6600 has the best keypad'
p547
(dp548
S'keypad'
p549
S'+3][cc'
p550
ssS'It is a multifunction phone, reception quality is better than the 610.'
p551
(dp552
S'phone'
p553
S'+1'
p554
sS'reception'
p555
S'+2'
p556
ssS'I use a Nokia 6600, it has a great color TFT display and camera equipped with zoom, which complement a built-in video recorder with audio and a RealOne player for playback and streaming of 3GPP-compatible and RealMedia video clips.'
p557
(dp558
S'color TFT display'
p559
S'+3][u'
p560
sS'camera'
p561
S'+3'
p562
sS'video'
p563
S'+3'
p564
ssS'I can NOT find a carrier for this phone I like, end up just tossing it in my purse.'
p565
(dp566
S'carrier'
p567
S'-3'
p568
ssS'If you find a better phone, then I suggest you go for it.'
p569
(dp570
g125
g126
ssS'The ONLY bad thing?'
p571
NsS'i may have been up for this 10 years ago, but i just want a phone that works at this point.'
p572
NsS'The phone can use any MIDI audio file as a ringtone.'
p573
(dp574
S'ringtone'
p575
S'+2'
p576
ssS'Among my requirments for a phone were: good screen, decent camera, bluetooth, and GPRS support.'
p577
(dp578
S'phone'
p579
S'+2'
p580
ssS"OPERATION: It's like BMW's I-Drive - It does it's job, but has the most unintuitive, overly-layered interface."
p581
(dp582
S'interface'
p583
S'-2'
p584
ssS'The phone has such advantages as the excellent keypad and display, long rundown time and a good software suite.'
p585
(dp586
S'rundown time'
p587
S'+3][u'
p588
sS'display'
p589
S'+3][u'
p590
sS'keypad'
p591
S'+3'
p592
sS'software'
p593
S'+3'
p594
ssS"I've had nothing but good luck with T-Mobile."
p595
(dp596
S'T-Mobile'
p597
S'+3'
p598
ssS'I actually purchased two phones recently (this one at the new Blackberry phone), and this one is far superior (IMHO).'
p599
(dp600
S'6600'
p601
S'+3][cc'
p602
ssS'A huge beautiful color screen which can not been scratched at all even with the rough handling i give it.'
p603
(dp604
S'screen'
p605
S'+3'
p606
ssS"I've been using this phone for 3 days now, and while I admit that seems doesn't seem like very long -- I should also point out that I've been using it almost non-stop."
p607
NsS'All you need to do is to choose your "phone card" contact and then "send touch tone" and choose the contact.'
p608
NsS'If you are using Linux, and you want to use GPRS to connect to the net, I suggest this phone along with a Belkin USB Bluetooth adapter.'
p609
(dp610
S'GPRS'
p611
S'+2'
p612
ssS'So I bought the phone and went on my merry way.'
p613
NsS'6) The phone is really wide, which seems to be a turnoff for many people, but the phone is actually easier to grip and feel more ergonomic.'
p614
(dp615
S'wide'
p616
S'+2][u'
p617
ssS'2) Camera phone.'
p618
NsS'you actually can talk to a real person for support in under an hour!).'
p619
(dp620
S'T-Mobile'
p621
S'+3'
p622
ssS' The first shipment took such a long time, I had to cancel it.'
p623
NsS"As I drove across the country I lost reception only in eastern Kentucky's mountains."
p624
(dp625
S'reception'
p626
S'+3'
p627
ssS'RECEPTION: This really depends on locale & carrier.'
p628
NsS"It's a high-line Audi, on a Cadillac suspension, at a reasonable price."
p629
NsS'I have really enjoyed the camera on this phone.'
p630
(dp631
S'camera'
p632
S'+3'
p633
ssS"I've had this beauty for nearly 2 months now and I truely love it."
p634
(dp635
S'phone'
p636
S'+3][u'
p637
ssS'So my review should defintely give you an idea about this phone.'
p638
NsS'there are lengthy hacks offered requiring root access and edits via terminal.'
p639
NsS'The navigation takes so much time that it would eventually drive you crazy.'
p640
(dp641
S'time'
p642
S'-3][u'
p643
ssS"Basically the 6600 is a bundle of over-hyped features you don't and won't need (if you do get yourself a PDA or pocket PC) , none of them work as they should , and the basic phone functions and ergonomics are less than average ."
p644
(dp645
S'features'
p646
S'-3'
p647
ssS'Sure, it is a relatively bulky, but it is really packed with many great features.'
p648
(dp649
S'bulky'
p650
S'-1][u'
p651
sS'features'
p652
S'+3][p'
p653
ssS"It's oval and... nice."
p654
(dp655
S'look'
p656
S'+2][u'
p657
ssS'3. Play Java games on it.'
p658
(dp659
S'games'
p660
S'+3'
p661
ssS"Mine generally requires a charege every 48 hours or so and I don't really talk on it that much."
p662
(dp663
S'battery life'
p664
S'-2][u'
p665
ssS'Most Bluetooth devices only support the older security system, Unit Key.'
p666
NsS'I use this phone exculsivly with a Jabra Freespeak 250.'
p667
NsS'Although the images are not the best in the world, its very handy to have a camera everywhere you go.'
p668
(dp669
S'images'
p670
S'-1'
p671
sS'camera'
p672
S'+2'
p673
ssS'Some people have commented about the size and weight of the phone, and it has rightfully gotten the nick-name "the bar of soap" which, it really is.'
p674
(dp675
S'weight'
p676
S'-1'
p677
sS'size'
p678
S'-1'
p679
ssS'it has a handsfree loudspeaker, conference and transfer!'
p680
(dp681
S'N6600'
p682
S'+2'
p683
ssS'I saw a few complaints on the load time of menus and I feel people are over-exaggerating the menu load time.'
p684
(dp685
S'menus'
p686
S'-2'
p687
sS'load time'
p688
S'-2'
p689
sS'menu'
p690
S'-2'
p691
ssS'It has everything I needed: bluetooth, infrared, support for MMC, camera, and a good operating system with lots of supporting software.'
p692
(dp693
S'phone'
p694
S'+3][p'
p695
ssS'4. The Build is just right.'
p696
(dp697
S'Build'
p698
S'+3'
p699
ssS"Few will look at the phone and know it's 'all that'."
p700
NsS'On the other hand, one may leave many applications open at once, hide them and return to them just where they left off - similar to a Mac.'
p701
NsS'The title pretty much says it all.'
p702
NsS'who in the hell needs a frigging *VGA* camera on their CELLPHONE???'
p703
(dp704
S'camera'
p705
S'-3'
p706
ssS'T610 supports only midi files.'
p707
(dp708
S'T610'
p709
S'-1][cc'
p710
ssS'The bottom line is "Phone is cool one - only for the moment, as its the latest phone in the market and has all the new features, but this will soon be displaced by upcoming newer phones".'
p711
(dp712
S'Phone'
p713
S'+1'
p714
ssS'You can take pic of your friends and the picture will pop up when they call.'
p715
(dp716
S'picture'
p717
S'+3'
p718
ssS'The latter will provide better coverage in more remote areas of The States but still operates in many countries, excluding New Zealand and Australia.'
p719
(dp720
S'coverage'
p721
S'+3][u'
p722
ssS"IMP: Two important pieces of advice - Visit Nokia's site."
p723
(dp724
g125
g126
ssS'6600 looks and feels nice.'
p725
(dp726
S'6600'
p727
S'+3'
p728
ssS'You have to use speaker or handsfree, to get larger volume.'
p729
NsS'There will be much erasing of text as, one would tend to type something instead of the actual letters.'
p730
(dp731
S'Buttons'
p732
S'-2][u'
p733
ssS"I've had no problems w/ this phone."
p734
(dp735
S'phone'
p736
S'+3][u'
p737
ssS'This phone is fantastic.'
p738
(dp739
S'phone'
p740
S'+3'
p741
ssS"If you expect to be able to pick things up when you're out and in a rush via common sense, many times you'll end up frustrated."
p742
NsS'Very simple and painless.'
p743
(dp744
S'bluetooth'
p745
S'+2'
p746
ssS'They really are awfully small.'
p747
(dp748
S'kays'
p749
S'-2][u'
p750
ssS"While this phone obviously doesn't have the same quality construction as Motorola does, the Nokia 6600 is one of the better phones I've used."
p751
(dp752
S'6600'
p753
S'+2][cc'
p754
ssS'Is it really slow, or what?'
p755
NsS'5.The Camera installed on this phone is awesome.'
p756
(dp757
S'Camera'
p758
S'+3'
p759
ssS"When you dial a number, you'll need to check the screen to see that the number entered is correct."
p760
(dp761
S'dial'
p762
S'-3'
p763
ssS"I've gone from almost every Nokia phone since they were only known and operational in Europe."
p764
NsS'It also works just fine for international calls.'
p765
(dp766
S'calls'
p767
S'+1'
p768
ssS'So, after all this frustration of adding all of my newest contacts to the 6600, I asked the technician if it were possible to transfer the data from the 6600 to the 3650.'
p769
NsS'But not good enough for me.'
p770
(dp771
S'phone'
p772
S'-1][p'
p773
ssS"It's important that people know the following:  First, the interface is slow."
p774
(dp775
S'interface'
p776
S'-3'
p777
ssS'The only problem is that occasionally the joystick does start to dig into your thumb while gaming.'
p778
(dp779
S'joystick'
p780
S'-2'
p781
ssS'What I have found useful to consider before purchasing a phone:  - decent battery life - good call quality - user-friendly interface - camera/video functions - bluetooth - ability to sync contacts stored in the PC with the phone (no more manual entries!)'
p782
NsS'i checked the iSync compatibility page and it was listed--they even had a photo of the 6600 shown in the graphic.'
p783
NsS'all the other features are gravy.'
p784
NsS'4) Buttons are quite small and is really a pain exp if one is fond of text messaging.'
p785
(dp786
S'Buttons'
p787
S'-2][u'
p788
ssS"Its been 11 months now that I've held on to my Nokia 6600 for."
p789
NsS'Another great feature for me anyway is the ability to load .wav sounds as ringers.'
p790
(dp791
S'ringers'
p792
S'+3'
p793
ssS"It's good."
p794
(dp795
S'phone'
p796
S'+2][p'
p797
ssS'Clear the call logs once in a while to speed up the phone people!!!'
p798
(dp799
S'call logs'
p800
S'+1'
p801
ssS'The phone does not have an Mp3-player, FM radio, 200k+ color screen, megapixel camera, quad band, PDA, photo editor.'
p802
(dp803
S'phone'
p804
S'-2][u'
p805
ssS'Handset quality is great, as is the speakerphone quality and the headset audio quality.'
p806
(dp807
S'audio quality'
p808
S'+3'
p809
ssS"I purchased this phone after researching many different phones, mostly Nokia's that were T-Mobile compatiable."
p810
(dp811
g125
S'cs'
p812
ssS"Don't get me wrong."
p813
NsS"I've been on the phone, while browsing the net over a GPRS connection, while sending a text message."
p814
NsS'Its like having a 66Mhz computer with a webcam, fax, printer, blue tooth...etc...Just an example..'
p815
NsS"Why have the function if you can't film anything longer than e few seconds?"
p816
NsS'It seems to be a much more user friendly company than Verizon and a thousand percent better than the horrible Quest Wireless.'
p817
(dp818
S'Quest Wireless'
p819
S'-3'
p820
sS'Verizon'
p821
S'-1'
p822
sS'T-Mobile'
p823
S'+3'
p824
ssS'There is no way you can talk with customer care about this.'
p825
(dp826
S'customer care'
p827
S'-2'
p828
ssS'The screen is quite big (between all handphone), but the just about 65000 color.'
p829
(dp830
S'screen'
p831
S'+2'
p832
ssS'BLUETOOTH DOES NOT WORK ON THIS PHONE.'
p833
(dp834
S'BLUETOOTH'
p835
S'-3'
p836
ssS'The battery life of this phone is at most 2 days and at least one day at excessive use.'
p837
(dp838
S'battery life'
p839
S'-2'
p840
ssS'1. Record around 1 hour of video with Phillips Camcorder Pro.'
p841
(dp842
S'video'
p843
S'+3'
p844
ssS'They stated that though it was a simple repair they would not do it for less than $120.'
p845
NsS'Bought a bluetooth headset and it works like a wonder.'
p846
NsS'Ultimately you will learn just how bad Nokia is, and why their recent loss of market share is so utterly deserved.'
p847
(dp848
S'Nokia'
p849
S'-3'
p850
ssS'the difference is : until recently there have been no GSM networks in a wide scale , so most cell network companies supplied consumers with cells , we in the middle east (for example) have stopped using years ago ....'
p851
NsS'Me likes.'
p852
NsS"I'm not sure that a phone w/ these and all of the above features exists just yet. ...I'm not sure I'd want to spend THAT much time w/ a device, anyhow."
p853
NsS'As the 6600 uses 900mhz, it operates in more countries than the 6620.'
p854
(dp855
S'6600'
p856
S'+3'
p857
ssS'speaker phone quality is good, and poping in a 512mb MMC card, it rocks !'
p858
(dp859
S'MMC card'
p860
S'+2'
p861
sS'speaker phone'
p862
S'+2'
p863
ssS"Before buying, I'd urge you to actually use one and not just handle it in the store."
p864
NsS"I've had this phone for almost a year now and it has been nothing but great to use."
p865
(dp866
S'phone'
p867
S'+3'
p868
sS'use'
p869
S'+3'
p870
ssS'Its a real shame that T-Mo does not offer the newer Nokia models.'
p871
NsS'For phone card with PIN Free dialing setup, you are a little bit lucky.'
p872
NsS"If you've never used an advanced mobile phone before, you might assume this is par for the course, but it simply isn't."
p873
NsS'so, right out of the box i had issue.'
p874
(dp875
S'iSync compaibility'
p876
S'-2][u'
p877
ssS'I upgraded mine to a 128 MB MMC Card via which I can store unlimited number of messages, take a thousand pictures and videos.'
p878
NsS'This phone is flashy and feels good in the hand, but it could not hold a connection to any of my bluetooth devices (headset, handheld, or desktop computer).'
p879
(dp880
S'feels'
p881
S'+2'
p882
sS'bluetooth'
p883
S'-2'
p884
ssS'There are number of downloads needed/available for this phone & they will be texted to you at no cost.'
p885
(dp886
S'downloads'
p887
S'+3'
p888
ssS'I must add to the dismay/delight of readers this phone is simply the most groundbreaking phone mankind has ever held.'
p889
(dp890
S'phone'
p891
S'+3'
p892
ssS'Their customer service agents are always prompt and polite and my service is terrific.'
p893
(dp894
S'service'
p895
S'+3'
p896
sS'customer service agents'
p897
S'+3'
p898
ssS'Its nice look is also a plus.'
p899
(dp900
S'look'
p901
S'+2'
p902
ssS'2) Nice features, like web browser, camera, video recorder, speaker phone (very usefully), clear voice reception.'
p903
(dp904
S'features'
p905
S'+3'
p906
sS' speaker phone'
p907
S'+1'
p908
sS'camera'
p909
S'+1'
p910
sS'reception'
p911
S'+2'
p912
sS'web browser'
p913
S'+1'
p914
sS'video recorder'
p915
S'+1'
p916
ssS'Menu is a bit slow, but overall, phone is very functional.'
p917
(dp918
S'Menu'
p919
S'-1][u'
p920
sS'phone'
p921
S'+3][u'
p922
ssS'INCREDIBLE MEMORY!'
p923
(dp924
S'MEMORY'
p925
S'+3'
p926
ssS'I got this with the need for a nokia GSM camera-phone with speakerphone.'
p927
NsS'I have overall been disappointed with Nokia in the past, finding that Samsung and Motorola tended to have better quality phones.'
p928
(dp929
S'Nokia'
p930
S'-2][cc'
p931
ssS"It's easy to use. Not too small, and not too big."
p932
(dp933
S'small'
p934
S'+3][u'
p935
sS'use'
p936
S'+3'
p937
ssS"In short - Nokia themselves don't know that this phone doesn't work with the Palm, and if you don't heed my advice you will spend hours with technicians around the globe reading from scripts, chiding you in broken english for not following their directions exactly."
p938
(dp939
S'Nokia'
p940
S'-3'
p941
ssS'1.The Phone has the best keypad any Nokia phone has to offer.'
p942
(dp943
S'keypad'
p944
S'+3'
p945
ssS'Some complain it being a tad too bulky looking.'
p946
NsS'All in all I would say wait for the cell phone companies to create a PDA/cell hybrid that is efficient and easy to use as a phone.'
p947
(dp948
g125
g126
ssS"I got this phone yesterday and didn't find any problems with it yet."
p949
(dp950
S'phone'
p951
S'+1'
p952
ssS'Even the instruction booklet is out of order.'
p953
(dp954
S'instruction booklet'
p955
S'-2'
p956
ssS'Camera is nice, and video recording for some reason is only limited to 9 seconds.'
p957
(dp958
S'Camera'
p959
S'+2'
p960
sS'video recording'
p961
S'-1'
p962
ssS"I can tell using the phone that it feels a little flimsier than Motorolas do, but as long as I'm not planning on dropping the phone or running over it with my car it should be just fine."
p963
(dp964
S'construction'
p965
S'+1][u'
p966
ssS'3) Joy stick for eazy navigation, 35Mb memory card to store the pictures and stuff.'
p967
(dp968
S'memory card'
p969
S'+2'
p970
sS'Joy stick'
p971
S'+2'
p972
ssS'Ha!'
p973
NsS'Sometimes, it needs few minutes to open an application.'
p974
(dp975
S'phone'
p976
S'-2][p'
p977
ssS'So, do I recommend the 6600?'
p978
NsS"I would suggest this phone for all but the simple-minded... or those who simply don't need so many features."
p979
(dp980
g125
S'u'
p981
ssS'Most of thew reviews are high for this phone ......'
p982
NsS'2) Low volume on regular answering.'
p983
NsS'Supporting an operating system, Symbian OS, you can download and run a lot of programs on this phone.'
p984
(dp985
S'OS'
p986
S'+2'
p987
ssS"Finally, after about a week's use, the screen started to freeze on me."
p988
(dp989
S'screen'
p990
S'-3'
p991
ssS"Also the battery life isn't great but it's sufficient for my needs."
p992
(dp993
S'battery life'
p994
S'-1'
p995
ssS'I can play MP3 files on my phone by simply downloading softwares freely available on the net.'
p996
NsS'Yes, certainly.'
p997
(dp998
g125
g126
ssS'One minute with the salesman and I was sold.'
p999
NsS'went with T mobile Nokia 6600 replacing my Sony T610.'
p1000
NsS'If you max out the phone memory and have sent all you wish to a computer, there is a memory card w/ a good deal of storage as well.'
p1001
NsS"T-Mobile wasn't upfront about some of the terms to qualify for the rebate."
p1002
(dp1003
S'rebate'
p1004
S'-3'
p1005
ssS'7. Have a good chunk of my small MP3 to listen through the speaker phone.'
p1006
(dp1007
S'speaker phone'
p1008
S'+2'
p1009
ssS'I never get dropped calls.'
p1010
(dp1011
S'calls'
p1012
S'+3'
p1013
ssS"I find this feature on this phone useless, but, since I don't really need this function anyway, I don't really use it."
p1014
(dp1015
S'feature'
p1016
S'-3'
p1017
ssS'if you are looking for a phone to integrate as easily as the sonyericsson phones with iSync, i say stick with a sonyericsson.'
p1018
(dp1019
S'sonyericsson'
p1020
S'+1'
p1021
ssS'The downloads are for basic and advanced operations.'
p1022
NsS'With one of the most intuitive user-interfaces around, seamless bluetooth sync with Microsoft Outlook, support for thousands of applications for the Symbian platform which this phone runs on (I own the IR Remote, ICQ and a few others), the Nokia 6600 is all of the above - one of the few phones from T-Mobile that can claim such a distinction.'
p1023
(dp1024
S'6600'
p1025
S'+3'
p1026
sS'applications'
p1027
S'+3'
p1028
sS'user-interfaces'
p1029
S'+3'
p1030
sS'bluetooth'
p1031
S'+3'
p1032
ssS'And remember, this is a PHONE first and foremost which is where I have my biggest complaints...'
p1033
NsS'if there was a zero-star rating i would give it.'
p1034
(dp1035
S'phone'
p1036
S'-3][p'
p1037
ssS'i bought this phone last march, almost a year ago, in saudi arabia (it came out there before it did here).'
p1038
NsS'Handsfree future is good, but not too exciting.'
p1039
(dp1040
S'Handsfree'
p1041
S'+2'
p1042
ssS'The 6600 was the best phone I could find with these options that I could get with t-mobile.'
p1043
(dp1044
S'6600'
p1045
S'+3'
p1046
sS'phone'
p1047
S'+3'
p1048
ssS'3 band and you can just change the SIM card in it to be able to use it in Europe with another service provider.'
p1049
(dp1050
S'band'
p1051
S'+3'
p1052
ssS"On occasion I'm not able to connect to the phone with iSync via Bluetooth but I found that rebooting the phone seems to solve this problem."
p1053
(dp1054
S'Bluetooth'
p1055
S'-1'
p1056
ssS'The use of 65536 (16bit) colors ensures you get your share of animations and icons on your phone'
p1057
(dp1058
S'colors'
p1059
S'+3'
p1060
ssS'the stand by is really good considering all the toys this phone has and the screen size!'
p1061
NsS'The interface is simple to use.'
p1062
(dp1063
S'interface'
p1064
S'+3'
p1065
ssS'I must admit its not the best looking phone ever but then it has this look of static and absolute conviction that looks like everything a phone should be'
p1066
(dp1067
S'look'
p1068
S'+2'
p1069
ssS'Ive had this phone for a year now - and its the best phone I have owned.'
p1070
(dp1071
S'phone'
p1072
S'+3'
p1073
ssS'I love gadgets, technology and whatever electronic equipment you throw my way.'
p1074
NsS'And the phone has a very cool feature wich allows you to send images via a normal POP3/SMTP e-mail account.'
p1075
(dp1076
S'feature'
p1077
S'+2'
p1078
ssS"If you're still whining about storage, deleting some games will free-up still more memory."
p1079
NsS"I do not need to repeat what's great about this phone."
p1080
(dp1081
S'phone'
p1082
S'+3'
p1083
ssS"It's really well made and has survived sliding across floors and pavement without a scratch."
p1084
(dp1085
S'quality'
p1086
S'+3'
p1087
ssS'Why is this phone so great?'
p1088
NsS'The second one is on hold for almost 2 weeks with a message that "Can be delayed further".'
p1089
NsS'It takes a while to learn how to use it right, and at this point I am able to make about 70% of my calls using it.'
p1090
(dp1091
S'voice-dialing system'
p1092
S'-1][p'
p1093
ssS"Over the past three days, I've only had to turn the phone off twice, so I rarely have to deal with the delay in initially booting the phone."
p1094
NsS'yes it is a bit large, but the realestate on the screen will spoil you!'
p1095
(dp1096
S'large'
p1097
S'-1][u'
p1098
sS'screen'
p1099
S'+3'
p1100
ssS'I can connect to my computer via bluetooth to transfer images, calender events, contacts and anything else.'
p1101
(dp1102
S'bluetooth'
p1103
S'+2'
p1104
ssS"Now I'm back to Nokia to try their 6600 model."
p1105
NsS'Everything, so far, has worked flawlessly.'
p1106
(dp1107
S'phone'
p1108
S'+3][u'
p1109
ssS'I bought this phone a few months ago and I have been using it since then.'
p1110
NsS"Camera quality isn't bad for the low resolution."
p1111
(dp1112
S'Camera quality'
p1113
S'+2'
p1114
ssS'The log functions helps you track down the incoming , outgoing calls in the most easy of ways.'
p1115
(dp1116
S'log'
p1117
S'+3'
p1118
ssS"Aside from a 6MB++ built-in phone memory, there's a 32MB MMC card that goes with it!"
p1119
(dp1120
S'MMC card'
p1121
S'+3'
p1122
ssS'3) The joystick design they are using on the new Nokias gives you a great degree of control.'
p1123
(dp1124
S'joystick'
p1125
S'+3'
p1126
ssS'I will also say that setting up the e-mail account was very simple and straight-forward, although you do need an external SMTP server to use.'
p1127
(dp1128
S'e-mail'
p1129
S'+3'
p1130
ssS'The 6600 will provide similar service in more developed areas of The States and not as well in more remote areas.'
p1131
(dp1132
S'6600'
p1133
S'-2'
p1134
sS'service'
p1135
S'-1'
p1136
ssS"I find it difficult to remove back cover so is you plan to have a spare battery and replace it I suggest you don't ,besides it has a long battery life."
p1137
(dp1138
S' battery life'
p1139
S'+3'
p1140
sS'back cover'
p1141
S'-2'
p1142
ssS'namely, it wouldnt sync.'
p1143
(dp1144
S'sync'
p1145
S'-3'
p1146
ssS'Bottom line great phone for the time being.'
p1147
(dp1148
S'phone'
p1149
S'+3'
p1150
ssS'i have a hard time using other phones with smaller screens!!!'
p1151
(dp1152
S'screens'
p1153
S'+3][cc'
p1154
ssS'Besides the above mentioned Merits , the phone has decent ear volume and loudspeaker functionality.'
p1155
NsS"The battery life can't be very long; let's not be greedy."
p1156
(dp1157
S'battery life'
p1158
S'-1'
p1159
ssS"You'll do that because the keys are tightly packed in and your fingers will likely press two keys at once."
p1160
(dp1161
S'keys'
p1162
S'-3'
p1163
ssS'Multimedia functions are enhanced by multi-slide MMS messages and a Gallery for organizing digital content captured or downloaded with the phone.'
p1164
(dp1165
S'Multimedia functions'
p1166
S'+3'
p1167
ssS"I've synched it with my Jabra 250 bluetooth headset."
p1168
NsS"You'll see what I mean ... if you have a magnifying glass."
p1169
NsS"Remember, this phone uses an operating system - Symbian... and it's feature-rich w/ 65k colors."
p1170
(dp1171
S'operating system'
p1172
S'+3'
p1173
ssS'6. Play Gameboy Color games on it with GoBoy.'
p1174
(dp1175
S'games'
p1176
S'+3'
p1177
ssS"It's a bit pricey to call home from other countries but the instant messaging to and from covered countries in Europe are quite reasonable."
p1178
(dp1179
S'instant messaging'
p1180
S'+2'
p1181
ssS'So on the whole, let me summarize the good and bad things about this phone, instead of writing a long review.'
p1182
NsS'gee anyways ENJOY WHAT WORKS!'
p1183
NsS"The battery on mine lasts 2 days if I don't play games that much, and it only takes 90 mins to charge from flat."
p1184
(dp1185
S'battery'
p1186
S'+3'
p1187
ssS'Among its weak points is the MMC slot location and a bit vague design.'
p1188
(dp1189
S'MMC slot'
p1190
S'-2'
p1191
sS'design'
p1192
S'-2'
p1193
ssS'I hope you have a magnifying glass, because the number displayed as well as most of the pop up options are tiny.'
p1194
(dp1195
S'screen'
p1196
S'-3][u'
p1197
ssS'It has great upgradibility.'
p1198
(dp1199
S'upgradibility'
p1200
S'+3'
p1201
ssS'If you are looking for an upgrade, this is definitely the phone for you.'
p1202
(dp1203
S'phone'
p1204
S'+3'
p1205
ssS'This phone is one of the milestones in the history of the cellular phones.'
p1206
(dp1207
S'phone'
p1208
S'+3'
p1209
ssS'I have a couple hundred contacts and the menu loads within a few seconds, no big deal.'
p1210
(dp1211
S'menu'
p1212
S'+2][u'
p1213
ssS'I followed the technician\'s directions to the letter while they were on the phone, and after I had done so, the phone restarted and displayed the message "Phone startup failed. Contact the retailer."'
p1214
NsS"Few month ago, it's very popular among my community."
p1215
(dp1216
S'phone'
p1217
S'+2][p'
p1218
ssS"The Nokia 660 runs the Symbian OS, which works pretty well for most standard phone fare, most of the stuff is not that intuitive, but if you actually learn how to use it all, there's plenty of neat tie-ins."
p1219
(dp1220
S'OS'
p1221
S'+2'
p1222
ssS"When I purchased this phone , I thought to myself that I had purchased the most popular phone around and the thought didn't please me."
p1223
NsS'N6600 supports midi, wav, amr, mp3 etc.'
p1224
(dp1225
S'N6600'
p1226
S'+2'
p1227
ssS'According to a survey, more customers are ordering their cell phone and service from AMAZON.COM'
p1228
NsS'Picture and video quality is ok.'
p1229
(dp1230
S'Picture'
p1231
S'+1'
p1232
sS'video'
p1233
S'+1'
p1234
ssS'5) Video recorder is of no use and one cannot record something useful in 10 seconds and it takes a while to send the same through the "Free picture and video messaging" offered by service provider.'
p1235
(dp1236
S'video recorder'
p1237
S'-2'
p1238
ssS"This phone doesn't include Phone card calling."
p1239
(dp1240
S'Phone card calling'
p1241
S'-3'
p1242
ssS'You hit the message button on the front and it takes a matter of SECONDS to bring up the menu.'
p1243
(dp1244
S'interface'
p1245
S'-3][u'
p1246
ssS'The plusses are the features, look, good signal and battery life, memory size and robustness.'
p1247
(dp1248
S'battery life'
p1249
S'+3'
p1250
sS'look'
p1251
S'+3'
p1252
sS'memory'
p1253
S'+3'
p1254
ssS'Probably a great phone overall, and perhaps mine just has bugs.'
p1255
(dp1256
S'phone'
p1257
S'+2'
p1258
ssS'I love the Bluetooth; easy to use with a wireless Jabra headset.'
p1259
(dp1260
S'Bluetooth'
p1261
S'+3'
p1262
ssS"T-Mobile's minute plans are cheaper for a reason."
p1263
NsS'This way I never have to be ripped off by the carrier for stupid ringtones, I can get whatever I want.'
p1264
(dp1265
S'ringtones'
p1266
S'+3'
p1267
ssS"Don't use them, so I delete them for addtl space."
p1268
(dp1269
S'game'
p1270
S'-3'
p1271
ssS'i guess its my own fault for not researching more before buying the thing.'
p1272
NsS'Initially these phones were fun to play with some of the cool features like the speaker phone, web browser and ofcourse the built in camera.'
p1273
(dp1274
S'web browser'
p1275
S'+1'
p1276
sS'camera'
p1277
S'+1'
p1278
sS'features'
p1279
S'+2'
p1280
sS'speaker phone'
p1281
S'+1'
p1282
ssS'But if you use all bluetooth accessories, as I do, its really not an issue.'
p1283
(dp1284
S'weight'
p1285
S'+1'
p1286
sS'size'
p1287
S'+1'
p1288
ssS'Give each friend a different ringtone.'
p1289
(dp1290
S'ringtone'
p1291
S'+3'
p1292
ssS'3660 had similar features, but that is big in size.'
p1293
(dp1294
S'size'
p1295
S'cs][+2'
p1296
ssS"DOwnside is the size of the phone, it is BIG for today's standard."
p1297
(dp1298
S'size'
p1299
S'-2'
p1300
ssS'It offers way more features than I need but the ones I use work well.'
p1301
(dp1302
S'features'
p1303
S'+2'
p1304
ssS'Goes ~3 days after a charge.'
p1305
(dp1306
S'battery life'
p1307
S'+3][u'
p1308
ssS"but, that's the only SE t-mobile offers right now."
p1309
NsS"This isn't the most rugged phone ever but then your not gonna play aeroplane with this,are you."
p1310
(dp1311
S'phone'
p1312
S'+3][u'
p1313
ssS'I purchased this phone knowing it was slightly old as compared to the newer models of Nokia phones available.'
p1314
(dp1315
S'phone'
p1316
S'-1][cs'
p1317
ssS'It has it all.'
p1318
(dp1319
S'phone'
p1320
S'+3][p'
p1321
ssS'If you are purchasing this phone, then make sure you can handle the speed of this phone.'
p1322
(dp1323
g125
g126
ssS'the OS is abit confusing at 1st, but within a few days you will pass this learning curve!'
p1324
(dp1325
S'OS'
p1326
S'-1'
p1327
ssS'I will say that the OS that the phone runs does have a few issues.'
p1328
(dp1329
S'OS'
p1330
S'-1'
p1331
ssS'I must say, this one is quite slow to open an application.'
p1332
(dp1333
S'slow'
p1334
S'-2][p'
p1335
ssS'My explanation is that most of the reviewers are americans that live in the states .....'
p1336
NsS'I did notice if you turn the phone on and off the OS takes a bit to load up and initially the menus are slower but once the phone has been on and booted up the menus are reasonably quicker.'
p1337
(dp1338
S'menus'
p1339
S'+2][u'
p1340
ssS'The ringtones are beautiful, the screen is super high quality.'
p1341
(dp1342
S'ringtones'
p1343
S'+3'
p1344
sS'screen'
p1345
S'+3'
p1346
ssS'At first glance, I thought this phone was a little too big for me, maybe a little too complicated.'
p1347
(dp1348
S'big'
p1349
S'-2][u'
p1350
ssS'MEMORY/STORAGE - Seemingly boundless.'
p1351
(dp1352
S'MEMORY'
p1353
S'+3'
p1354
ssS'I have purchased two of these phones together from the Amazon market place.'
p1355
NsS'This phone has a nice blend of features without going overboard.'
p1356
(dp1357
S'features'
p1358
S'+3'
p1359
ssS'GAMES - Java.'
p1360
NsS'A Sony Ericcson may be the phone for you... but good luck finding one w/ all the features & such a competitive price.'
p1361
(dp1362
S'phone'
p1363
S'+2][cc'
p1364
ssS'This is somewhat annoying, but from working with computers (espcially windows -- ugh...)'
p1365
(dp1366
S'bluetooth'
p1367
S'-2'
p1368
ssS'What makes it so great is the versatility and the number of features it has.'
p1369
(dp1370
S'versatility'
p1371
S'+3]features[+3'
p1372
ssS'I had a Sony ericsson T610 before this and the T610 is far inferior.'
p1373
(dp1374
S'Sony ericsson T610'
p1375
S'+3][cc'
p1376
ssS'This is no small deal.'
p1377
NsS"I suggested that it didn't make sense for me to send in the phone for repair if I thought Nokia would charge me $120 to repair it since I could get it done locally for $30."
p1378
NsS'The Phone offers a 32 Mb MMC card and I think that is certainly the most exciting feature.'
p1379
(dp1380
S'MMC card'
p1381
S'+3][u'
p1382
ssS"I mean, they're short!"
p1383
(dp1384
S'movies'
p1385
S'-3][u'
p1386
ssS"I'm an advocate of Nokia , but this phone and the following models (7610) , are seemingly a desperate trial at squeezing as much under-engineered and experimental technologies in one sloppy phone ."
p1387
(dp1388
S'phone'
p1389
S'-3][cs'
p1390
ssS'The KDE Bluez system for bluetooth support.'
p1391
NsS'A few things that I want to suggest for improvements:'
p1392
NsS'The phone is sturdy.'
p1393
(dp1394
S'sturdy'
p1395
S'+3][u'
p1396
ssS'You can use the OBEX File Transfer service with bluetooth from linux (KDE-bluetooth provieds a nice intergration into Konqueror for this) for sending files to the phone.'
p1397
(dp1398
S'bluetooth'
p1399
S'+1'
p1400
ssS"Frankly, I think this is one of the niftiest pieces of hardware I've ever used."
p1401
(dp1402
S'phone'
p1403
S'+3][p'
p1404
ssS'Im able to keep my phone on for about a week (mostly stand by) to three days (regular use)'
p1405
(dp1406
S'battery life'
p1407
S'+3][u'
p1408
ssS'High quality video and pictures rock!'
p1409
(dp1410
S'pictures'
p1411
S'+3'
p1412
sS'video'
p1413
S'+3'
p1414
ssS'The 6600 has more ameneties than most - World phone, Camera (VGA/zoom/night mode/timer), Video (w/ audio & zoom), Speaker (good sound), Bluetooth, infrared, Modem for computers, electronic wallet, Internet access, Calendar, calculator, converter and more.'
p1415
(dp1416
S'6600'
p1417
S'+2][u'
p1418
ssS'The photos in the address book are terribly scaled too; they look as though they were built out of legos.'
p1419
(dp1420
S'photos'
p1421
S'-3'
p1422
ssS'The "movies" last about 5 seconds.'
p1423
(dp1424
S'movies'
p1425
S'-3][u'
p1426
ssS'The supervisor stated that it must have been third-party applications on the 6600 that caused the 3650 to break, and would not take the suggestion that his own tier-2 technicians stated that it was not possible to back up the 6600 to the 3650 without damaging the 3650, regardless of what was or was not on the 6600.'
p1427
NsS'The only downside I have found with this phone is that it is a bit slow to react, meaning when I push the contacts button, it takes a while to load, this is true for almost all the menus and programs on the phone.'
p1428
(dp1429
S'slow'
p1430
S'-1'
p1431
ssS"My biggest concern is that I have found Nokia phones lower quality construction to lead to lower prices, but they also don't last as long."
p1432
(dp1433
S'construction'
p1434
S'-2'
p1435
ssS'Unfortunately , I sold it exactly a month later .'
p1436
(dp1437
S'phone'
p1438
S'-3][p'
p1439
ssS"Just don't get drawn into T-Mobile's catchy rebate."
p1440
(dp1441
S'rebate'
p1442
S'-3'
p1443
ssS'APPLICATIONS: It has lots of applications and they work very well... when you eventually find where they are and they finally open.'
p1444
(dp1445
S'applications'
p1446
S'+2'
p1447
ssS'The menu pops up after 3 seconds The picture takes a while to load from its slow card memory.'
p1448
(dp1449
S'slow'
p1450
S'-3][u'
p1451
ssS'The only main drawback is the fact that the voice-dialing system is kinda picky.'
p1452
(dp1453
S'voice-dialing system'
p1454
S'-2'
p1455
ssS'The Nokia 6600 is really just a glorified 3650: you know the 3650, those bulbous, formless, big phones a few unfortunate ATT customers are carrying around.'
p1456
(dp1457
S'6600'
p1458
S'+3][cs'
p1459
sS'3650'
p1460
S'-2'
p1461
ssS'after scouring the various boards i find this is an arbitrary and pervasive problem.'
p1462
(dp1463
S'iSync compaibility'
p1464
S'-3][u'
p1465
ssS'2. Take around 10,000 640x480 pictures.'
p1466
(dp1467
S'pictures'
p1468
S'+3'
p1469
ssS'Did I mention the note feature and how you can send notes via Bluetooth?'
p1470
NsS"5- If you already have a girlfriend and/or wife , you won't need Bluetooth lol ."
p1471
NsS"It's a nice phone, and I'm glad to have used it."
p1472
NsS"1-A cell phone is to make CALLS , in other words , quality of reception and mic/speaker are the most important , the 6600 has a relatively low volume speaker , you'd have to press it hard against your ear to hear anything the other person is saying , unless the surroundings were completely quiet ."
p1473
(dp1474
S'volume'
p1475
S'-3'
p1476
ssS'but this by far is the best phone out there right now!'
p1477
(dp1478
S'phone'
p1479
S'+3'
p1480
ssS':! OK, score 7.0 Oh yes, the newest color of this phone is quite cool.'
p1481
(dp1482
S'color'
p1483
S'+3'
p1484
ssS'My dad has a Nokia 6670 before which he has a Nokia 7210 and before that he had a Nokia 6610.'
p1485
NsS'Since I use my Palm PDA and T-Mobile offers unlimited Internet, I asked the sales representative if I could use this phone as a Bluetooth modem for my Palm, and he said yes.'
p1486
NsS'I think the interface is great.'
p1487
(dp1488
S'interface'
p1489
S'+3'
p1490
ssS'But if you are one of the customers contributing to this, its a big mistake.'
p1491
(dp1492
g125
g126
ssS"I like it's shape and it's keypad and joystick."
p1493
(dp1494
S'shape'
p1495
S'+2'
p1496
sS'joystick'
p1497
S'+2'
p1498
sS'keypad'
p1499
S'+2'
p1500
ssS"i'm having mine upgraded to capture endless video, which right now allows 10 secs."
p1501
NsS'For last one month my Rebate status showing me that my rebate is apporved and check is delivered but still I am waiting for Check.'
p1502
(dp1503
S'rebate'
p1504
S'-2'
p1505
ssS'The only con I can think of is the lack of a mega-pixel camera.'
p1506
(dp1507
S'camera'
p1508
S'-2'
p1509
ssS'On a DELL Inspiron 8200 with a P4 2.0ghz system with 1gb RAM.'
p1510
NsS'I own this phone for about 6 months now, I have used the following features: bluetooth connection to laptop and desktop for sync contacts and calendars with Outlook, transfer files (movies, songs), I have many movies on it now with a 512MB memory card that it takes.'
p1511
(dp1512
S'bluetooth'
p1513
S'+3]transfer[+3'
p1514
ssS'I have purchased the 6600 when it was first released in The Middle East , almost a month before Europe , and reading the brochures and features , it really did sound like a true all-in-one functionality monster .'
p1515
NsS"It is slow to initially start up, but once it's turned on, I've never had any complaints about the speed."
p1516
(dp1517
S'speed'
p1518
S'+2'
p1519
ssS"That's because it is, and the only way I learned it was by spending over an hour talking to T-Mobile's tier-3 technicians in South Africa (to learn that the problem wasn't about T-Mobile) and three hours of getting nowhere with Nokia support technicians reading endlessly from scripts, never deviating, until I started cursing and got a tier-2 tech."
p1520
NsS'If you love your cell phone games or changing your ring tones everyday, Nokia beats everyone else.'
p1521
(dp1522
S'Nokia'
p1523
S'+3'
p1524
ssS'8. Connected the phone to my tablet pc and now can access company VPN at 56k speed via bluetooth.'
p1525
(dp1526
S'bluetooth'
p1527
S'+3'
p1528
ssS'So you have to dial your phone card access number, PIN card, and choose "send touch tone" and find your contact from the address book.'
p1529
NsS'In any case , putting aside how common it is in my city , I dont think I can be anymore satisfied.'
p1530
NsS"The number buttons are crammed into a 3x4cm area, the fonts are small, the interface is too convoluted and frustrating, it's not that customisable as well."
p1531
(dp1532
S'interface'
p1533
S'-2'
p1534
sS'fonts'
p1535
S'-1'
p1536
sS'number buttons'
p1537
S'-3'
p1538
ssS'Photos are pretty darned good!'
p1539
(dp1540
S'Photos'
p1541
S'+3'
p1542
ssS'Sorry, try something else or at least trying using one.'
p1543
NsS"Apparently some phones don't allow you to give an entire group a ringtone."
p1544
NsS'I still decided to send in the phone, since insured shipping was only $10.'
p1545
NsS'This thing does everything but washes your dishes.'
p1546
(dp1547
S'phone'
p1548
S'+3][p'
p1549
ssS'Go see for yourself.'
p1550
NsS'Especially the bluetooth server... Meaning you have to restart the phone if you want bluetooth to work again.'
p1551
(dp1552
S'bluetooth'
p1553
S'-2'
p1554
ssS'Solid, squeak-free, large screen.'
p1555
(dp1556
S'screen'
p1557
S'+3'
p1558
ssS'4. Play N-Gage games on it.'
p1559
(dp1560
S'games'
p1561
S'+3'
p1562
ssS"Keep in mind that for nearly every screen, there are a number 'along side' and 'beneath' them... for every 'save,' there are choices of phone memory, memory card or sim card."
p1563
(dp1564
g125
g126
ssS'2) Phone is awfully slow.'
p1565
(dp1566
S'slow'
p1567
S'-3][u'
p1568
ssS'This one is full of features(has bluetooth).'
p1569
(dp1570
S'bluetooth'
p1571
S'+3'
p1572
ssS"What's wrong with it?"
p1573
NsS'It fits comfortably in my hand and pocket.'
p1574
(dp1575
S'shape'
p1576
S'+3'
p1577
sS'size'
p1578
S'+3'
p1579
ssS'you can record your voice and turn it into a ringtone.'
p1580
(dp1581
S'ringtone'
p1582
S'+2'
p1583
ssS'Love the speaker phone.'
p1584
(dp1585
S'speaker phone'
p1586
S'+2'
p1587
ssS'I never had a single problem.'
p1588
(dp1589
S'phone'
p1590
S'+3][u'
p1591
ssS'and the battery life is bad !'
p1592
(dp1593
S'battery life'
p1594
S'-3'
p1595
ssS"I've had Nokia's for years, and while this one is packed with whiz bang features it is disappointing for its primary use - a phone."
p1596
(dp1597
S'phone'
p1598
S'-3'
p1599
ssS'Simple.'
p1600
NsS'For those Mac OSX users out there, iSync works fairly well.'
p1601
(dp1602
S'iSync'
p1603
S'+3][u'
p1604
ssS'You can turn this phone into a gaming machine, a camcorder or a digital camera, an mp3-player, a movie viewer, a voice recorder, a personal secretary, a GPS map browser, a book, a multifunction remote controller, practically everything that you can do with the computer, plus it is a phone(!!) and also you can carry it in your pocket :).'
p1605
(dp1606
S'phone'
p1607
S'+3'
p1608
sS'size'
p1609
S'+3'
p1610
ssS'My fingers are kind of stubby so it took a while to learn how to hit a key without hitting the adjacent ones.'
p1611
(dp1612
S'key'
p1613
S'-1][u'
p1614
ssS"Other than that it meets or surpasses all of my needs and surely won't disappoint any already established Nokia phone fans."
p1615
(dp1616
S'phone'
p1617
S'+3'
p1618
ssS'This process can be very annoying and unsafe when you are driving a stick shift on the highway.'
p1619
(dp1620
S'phone card calling'
p1621
S'-3'
p1622
ssS'A firmware upgrade is irrelevant .'
p1623
NsS'since then, i have not found one major problem with it.'
p1624
(dp1625
S'phone'
p1626
S'+3][p'
p1627
ssS'He advised me to back up the 6600 to a newly formatted Nokia MMC card, and restore the data to the 3650.'
p1628
NsS'Sometimes when you press buttons, the menu appears after a second or two.'
p1629
(dp1630
S'menu'
p1631
S'-3][u'
p1632
ssS'This phone has the best battery, it lasts longer then my old 3210'
p1633
(dp1634
S'battery'
p1635
S'+3'
p1636
ssS'So if you order one of the top 10 bestselling phones from Amazon now, it will take at least 3 weeks for your shipment to be delivered...guess Amazon is waiting for seconds to re-package,'
p1637
(dp1638
g125
g126
ssS'4) One nice thing about Nokias is that they have a ton of ring tone and game choices.'
p1639
(dp1640
S'game'
p1641
S'+3'
p1642
sS'ring tone'
p1643
S'+3'
p1644
ssS'putting in MP3 player, lots of games and application to download.'
p1645
(dp1646
S'application'
p1647
S'+2'
p1648
sS'games'
p1649
S'+2'
p1650
sS'MP3 player'
p1651
S'+2'
p1652
ssS'DaveC'
p1653
NsS'Also, when I dial an "800" number like an airline, it will not allow me to use number keys to navigatee the prerecorded menu.'
p1654
(dp1655
S'navigatee'
p1656
S'-3'
p1657
ssS'You will also hard-reset both your Palm and your Nokia to factory defaults in their lame attempts to get the script to work, though it will not.'
p1658
NsS"As for appearance, well, that's subjective."
p1659
NsS'The handsfree provided by the phone is useful for those who talk on the phone while driving.'
p1660
(dp1661
S'handsfree'
p1662
S'+3'
p1663
ssS'It uses the extendable MMC memory, it is perfect for storing videos, pictures and mp3s.'
p1664
(dp1665
S'MMC memory'
p1666
S'+3'
p1667
ssS'but, i am quite unhappy with nokia at the moment.'
p1668
(dp1669
S'nokia'
p1670
S'-3'
p1671
ssS'I click pictures in JPG format and because the phone has a bluetooth device I find it extremely easy to transfer pics to my pc and forth.'
p1672
(dp1673
S'bluetooth'
p1674
S'+3'
p1675
ssS'This simple nuance was too much for Nokia, and they still refuse to acknoledge the fact that their technician could have broken the phone or repair the phone for free.'
p1676
(dp1677
S'nokia'
p1678
S'-3'
p1679
ssS'This feature is very important to me as I make a lot of international calls.'
p1680
NsS'Get great themes and wallpapers for this phone and many many polyphonic rings.'
p1681
(dp1682
S'themes'
p1683
S'+3'
p1684
sS'rings'
p1685
S'+3'
p1686
ssS'This includes ALL Palm PDAs! Further, due to an unparalled design oversight, Nokia is the only device that supports Combination Key that is NOT BACKWARDS COMPATIBLE with the older devices that people actually own.'
p1687
NsS'I used to work with t-mobile..'
p1688
NsS"For the linux users out there who are intrested in my setup: I'm running Debian (Knoppix 3.4) with a custom 2.6.7 kernel."
p1689
NsS'And also, since it is tri band and since it uses SIM-card, you can just use it in Europe and many other parts of the world, wherever GSM exists.'
p1690
(dp1691
S'SIM-card'
p1692
S'+2'
p1693
ssS'my number one criteria for a new phone was iSync compaibility via bluetooth.'
p1694
NsS'Now the bad:  1) As usual, battery power not sufficient for daily usuage.'
p1695
(dp1696
S'battery'
p1697
S'-2'
p1698
ssS'But beware of the bugs; they are major!'
p1699
NsS"Although it has chubby hips, the device isn't really so big."
p1700
(dp1701
S'big'
p1702
S'+2][u'
p1703
ssS"I would have given this phone 5 stars if it wasn't for the fact that I would rather use my 3330 to do all the most common things you do with a phone."
p1704
(dp1705
S'phone'
p1706
S'+2][cs'
p1707
ssS'This is the first phone I know of that has the large bright screen, infrared, bluetooth, USB connector and a speakerphone.'
p1708
(dp1709
S'phone'
p1710
S'+3'
p1711
ssS'With Bluetooth off the phone last almost twice as long.'
p1712
(dp1713
S'battery'
p1714
S'+2'
p1715
ssS'If your looking for a phone thats mainly for calls and killing time this is the one you want.'
p1716
(dp1717
g125
g126
ssS"you can't do that with a Sony T610 (which i traded for a 6600)."
p1718
(dp1719
S'Sony T610'
p1720
S'-1][cc'
p1721
ssS'These people takes lest effort to process rebate forms.'
p1722
(dp1723
S'rebate'
p1724
S'-1'
p1725
ssS'I could not get the 3650 working to even factory defaults, even after trying every reset code they could muster.'
p1726
NsS"In those days I've gone from Oki, Motorolla and progressed (actually regressed) to Sony Ericsson's T610."
p1727
NsS'In October of 2003, I bought a Nokia 3650 off of eBay.'
p1728
NsS'Hand set is good, but be aware of this T-MOBILE rebate.'
p1729
(dp1730
S'Hand set'
p1731
S'+1'
p1732
sS'rebate'
p1733
S'-1'
p1734
ssS"DEPENDABILITY: I've seen no glitches."
p1735
(dp1736
S'DEPENDABILITY'
p1737
S'+3'
p1738
ssS'My old Siemens s56, on the other hand, worked beautifully with all of the above.'
p1739
(dp1740
S'phone'
p1741
S'-2][cc'
p1742
ssS'As soon as you copy video/audio files and add some programs and games , it WILL hang at least 5-10 times a day.'
p1743
NsS'The older security method is called Unit Key.'
p1744
NsS'I highly recommend this phone.'
p1745
(dp1746
S'phone'
p1747
S'+3'
p1748
ssS'2- It is bulky and the small buttons on the sides are sloppy to use .'
p1749
(dp1750
S'bulky'
p1751
S'-3][u'
p1752
sS'buttons'
p1753
S'-3'
p1754
ssS'I did a little research and discovered that the repair could be done by any basic cell-phone for $30.'
p1755
NsS'i highly recommend it if you are looking for a phone with great camera quality and/or lots of features you would find in a PDA.'
p1756
(dp1757
S'camera'
p1758
S'+3]PDA[+3'
p1759
ssS'Which is really nice because you can get pretty much any piece of music in MIDI format for free on the net.'
p1760
(dp1761
S'music'
p1762
S'+3'
p1763
sS'ringtone'
p1764
S'+3'
p1765
ssS"Along the way we compared it to my wife's T720i and the 6600 was superior in terms of battery life, connectivity bars and features."
p1766
(dp1767
S'6600'
p1768
S'+3][cs'
p1769
sS'connectivity bars'
p1770
S'+3'
p1771
sS'battery life'
p1772
S'+3'
p1773
sS'features'
p1774
S'+3'
p1775
ssS'Still not sure?'
p1776
NsS'The Nokia 6600 is a decent extension of the smartphone line.'
p1777
(dp1778
S'6600'
p1779
S'+3'
p1780
ssS'I could hardly use it without a recharge in 2 days!'
p1781
(dp1782
S'battery life'
p1783
S'-3][u'
p1784
ssS'In July of 2004, I purchased a Nokia 6600 from T-Mobile.'
p1785
NsS'All I need to do is to choose the contact and in option select "calling card call".'
p1786
NsS'No matter how accustomed to the phone you become, too much time is required to get to, open and close applications.'
p1787
(dp1788
S'applications'
p1789
S'-2'
p1790
ssS"Only thing I don't like about it is slow in changing apps, boot up, and sometime it has problem connect thru bluetooth."
p1791
(dp1792
S'slow'
p1793
S'-2'
p1794
sS'bluetooth'
p1795
S'-2'
p1796
ssS"Once it froze so bad I couldn't even use the power button to turn it off, and had to open and take out the battery."
p1797
(dp1798
S'screen'
p1799
S'-3][p'
p1800
ssS'Though nearly a dozen different people at both T-Mobile and Nokia have told me otherwise, it is simply not possible to use this phone as a Bluetooth modem for the vast majority of PDAs and many other devices.'
p1801
(dp1802
S'Bluetooth'
p1803
S'-3'
p1804
ssS"I wouldn't do that because it's not worth my life."
p1805
NsS'As for bluetooth, no problems at all.'
p1806
(dp1807
S'bluetooth'
p1808
S'+2'
p1809
ssS'Same with the contacts list, recent call list and everything else.'
p1810
NsS"But if you are in the market for a new business capable phone, and don't want to deal with a stylus equipped PDA like device such as the P900, then the 6600 will probably suit you just fine."
p1811
NsS'I bought 2 of these Nokia 6600 phones recently, thru the amazon market place.'
p1812
NsS'Secondly, all info can be sent to a computer and w/o the hassle of USB wires.'
p1813
(dp1814
S'transmission'
p1815
S'+3'
p1816
ssS'All in all, this is a great phone.'
p1817
(dp1818
S'phone'
p1819
S'+3'
p1820
ssS'this is a great phone i have this phone since Feb 04 and i never have any problem at all.'
p1821
(dp1822
S'phone'
p1823
S'+3'
p1824
ssS'The display and brightness on this phone is quite extraordinary.'
p1825
(dp1826
S'display'
p1827
S'+3][u'
p1828
ssS'Only then did I learn the truth -- THIS PHONE DOES NOT WORK WITH PALM PDAS!'
p1829
(dp1830
S'PHONE'
p1831
S'-3'
p1832
ssS'4- My idea was that it was an all-in-one , and that theory -once again- proves wrong , this phone excells at nothing , less  than average in everything , if you seriously need any of the "other than phone" functionalities , you\'ll be disappointed .... if you have lots of money and bought it for the love of gadgets then fine .... but don\'t expect to get much done .'
p1833
(dp1834
S'phone'
p1835
S'-3'
p1836
ssS'This helps prevent people from sending short "obscene" messages to your phone.'
p1837
Ns.