(lp0
((lp1
S'I'
p2
aS'have'
p3
aS'read'
p4
aS'the'
p5
aS'installation'
p6
aS'instructions'
p7
aS'for'
p8
aS'both'
p9
aS'NIS'
p10
aS'2004'
p11
aS'and'
p12
aS'NAV'
p13
aS'2004'
p14
aS'prior'
p15
aS'to'
p16
aS'installation,'
p17
aS'but'
p18
aS'still'
p19
aS'ended'
p20
aS'up'
p21
aS'with'
p22
aS'the'
p23
aS'same'
p24
aS'result...junk'
p25
aS'software.'
p26
aS'neg'
p27
tp28
a((lp29
S'Why'
p30
aS'is'
p31
aS'it'
p32
aS'that'
p33
ag2
aS'can'
p34
aS'install'
p35
aS'any'
p36
aS'other'
p37
aS'type'
p38
aS'of'
p39
aS'software'
p40
aS'and'
p41
aS'it'
p42
aS'installs'
p43
aS'and'
p44
aS'works'
p45
aS'properly?'
p46
aS'neutral'
p47
tp48
a((lp49
S'But'
p50
aS'if'
p51
ag2
aS'installed'
p52
aS'either'
p53
aS'one'
p54
aS'of'
p55
aS'these'
p56
aS'Norton'
p57
aS'products,'
p58
aS'neither'
p59
aS'works'
p60
aS'after'
p61
aS'installation?'
p62
ag27
tp63
a((lp64
S'It'
p65
aS'can'
p66
aS'not'
p67
aS'be'
p68
aS'the'
p69
aS'computer'
p70
aS'or'
p71
aS'the'
p72
aS'owner,'
p73
aS'since'
p74
ag2
aS'purchased'
p75
aS'McAfee'
p76
aS'Anti-Virus'
p77
aS'8'
p78
aS'and'
p79
aS'it'
p80
aS'installs'
p81
aS'and'
p82
aS'works'
p83
aS'fine'
p84
aS'with'
p85
aS'no'
p86
aS'problems.'
p87
aS'pos'
p88
tp89
a((lp90
g2
aS'have'
p91
aS'used'
p92
aS'Norton'
p93
aS'for'
p94
aS'the'
p95
aS'past'
p96
aS'5'
p97
aS'years'
p98
aS'and'
p99
aS'for'
p100
aS'the'
p101
aS'last'
p102
aS'2'
p103
aS'years,'
p104
aS'the'
p105
aS'software'
p106
aS'has'
p107
aS'gotten'
p108
aS'more'
p109
aS'and'
p110
aS'more'
p111
aS'disgraceful.'
p112
ag27
tp113
a((lp114
g2
aS'am'
p115
aS'glad'
p116
aS'that'
p117
ag2
aS'do'
p118
aS'not'
p119
aS'work'
p120
aS'for'
p121
aS'Norton.'
p122
ag27
tp123
a((lp124
g2
aS'have'
p125
aS'used'
p126
aS'Norton'
p127
aS'products'
p128
aS'in'
p129
aS'the'
p130
aS'past'
p131
aS'and'
p132
ag2
aS'am'
p133
aS'familiar'
p134
aS'with'
p135
aS'them.'
p136
ag47
tp137
a((lp138
g2
aS'bought'
p139
aS'NIS'
p140
aS'2004'
p141
aS'recently'
p142
aS'to'
p143
aS'try'
p144
aS'it'
p145
aS'out.'
p146
ag47
tp147
a((lp148
S'After'
p149
aS'4'
p150
aS'attempted'
p151
aS'installs,'
p152
ag2
aS'have'
p153
aS'finally'
p154
aS'given'
p155
aS'up.'
p156
ag27
tp157
a((lp158
g2
aS'am'
p159
aS'thankful'
p160
aS'that'
p161
ag2
aS'have'
p162
aS'Roxio'
p163
aS'GOBACK,'
p164
ag2
aS'had'
p165
aS'to'
p166
aS'use'
p167
aS'it'
p168
aS'3'
p169
aS'of'
p170
aS'the'
p171
ag150
aS'times.'
p172
ag47
tp173
a((lp174
S'During'
p175
aS'install,'
p176
aS'NIS'
p177
aS'would'
p178
aS'either'
p179
aS'freeze'
p180
aS'or'
p181
aS'not'
p182
aS'reboot'
p183
aS'properly'
p184
aS'when'
p185
aS'asked'
p186
aS'to'
p187
aS'do'
p188
aS'so.'
p189
ag27
tp190
a((lp191
S'The'
p192
aS'MS'
p193
aS'scandisk'
p194
aS'would'
p195
aS'appear'
p196
aS'due'
p197
aS'to'
p198
aS'manual'
p199
aS'shutdown'
p200
aS'and'
p201
aS'would'
p202
aS'only'
p203
aS'scan'
p204
aS'to'
p205
aS'the'
p206
aS'2nd'
p207
aS'bar,'
p208
aS'over'
p209
aS'and'
p210
aS'over(up'
p211
aS'to'
p212
aS'1'
p213
aS'hr,'
p214
ag2
aS'then'
p215
aS'shut'
p216
aS'it'
p217
aS'down'
p218
aS'and'
p219
aS'used'
p220
aS'GOBACK).'
p221
ag27
tp222
a((lp223
S'The'
p224
ag213
aS'time'
p225
aS'it'
p226
aS'did'
p227
aS'install,'
p228
aS'it'
p229
aS'did'
p230
aS'not'
p231
aS'work'
p232
aS'and'
p233
aS'had'
p234
aS'errors,'
p235
ag2
aS'used'
p236
aS'the'
p237
aS'unistall'
p238
aS'NIS'
p239
aS'icon'
p240
aS'and'
p241
aS'it'
p242
aS'properly'
p243
aS'removed'
p244
aS'itself.'
p245
ag47
tp246
a((lp247
g2
aS'have'
p248
aS'never'
p249
aS'had'
p250
aS'this'
p251
aS'problem'
p252
aS'with'
p253
aS'any'
p254
aS'other'
p255
aS'software'
p256
aS'on'
p257
aS'my'
p258
aS'computer.'
p259
ag27
tp260
a((lp261
S'NIS'
p262
aS'2003'
p263
aS'worked'
p264
aS'like'
p265
aS'a'
p266
aS'charm'
p267
aS'last'
p268
aS'year.'
p269
ag88
tp270
a((lp271
S'Being'
p272
ag266
aS'past'
p273
aS'Norton'
p274
aS'customer,'
p275
ag2
aS'consider'
p276
aS'this'
p277
aS'to'
p278
aS'be'
p279
ag266
aS'slap'
p280
aS'to'
p281
aS'my'
p282
aS'face.'
p283
ag27
tp284
a((lp285
S'Buying'
p286
aS'software'
p287
aS'that'
p288
aS'can'
p289
aS'not'
p290
aS'be'
p291
aS'installed'
p292
aS'normally'
p293
aS'and'
p294
aS'being'
p295
aS'put'
p296
aS'into'
p297
aS'the'
p298
aS'position'
p299
aS'of'
p300
aS'having'
p301
ag266
aS'non-working'
p302
aS'computer.'
p303
ag27
tp304
a((lp305
S'Norton'
p306
aS'has'
p307
aS'been'
p308
aS'on'
p309
ag266
aS'downhill'
p310
aS'slid'
p311
aS'recently'
p312
aS'with'
p313
aS'their'
p314
aS'products,'
p315
aS'but'
p316
aS'with'
p317
aS'this'
p318
aS'one,'
p319
aS'they'
p320
aS'have'
p321
aS'fallen'
p322
aS'off'
p323
aS'the'
p324
aS'cliff.'
p325
ag27
tp326
a((lp327
S'As'
p328
ag266
aS'loyal'
p329
aS'customer'
p330
aS'of'
p331
aS'Norton/Symantec'
p332
aS'products,'
p333
ag2
aS'purchased'
p334
aS'Internet'
p335
aS'Security'
p336
aS'2004'
p337
aS'as'
p338
ag266
aS'software'
p339
aS'firewall'
p340
aS'and'
p341
aS'could'
p342
aS'not'
p343
aS'be'
p344
aS'any'
p345
aS'more'
p346
aS'dissatisfied'
p347
aS'with'
p348
aS'the'
p349
aS'product'
p350
aS'(and'
p351
aS'hence'
p352
aS'the'
p353
aS'one'
p354
aS'star'
p355
aS'rating).'
p356
ag27
tp357
a((lp358
S"Here's"
p359
aS'why:'
p360
ag47
tp361
a((lp362
S'Yeah'
p363
aS'-'
p364
aS'this'
p365
aS'program'
p366
aS'protects'
p367
aS'your'
p368
aS'computer'
p369
aS'all'
p370
aS'right'
p371
ag364
aS'by'
p372
aS'locking'
p373
aS'you'
p374
aS'off'
p375
aS'the'
p376
aS'internet.'
p377
ag27
tp378
a((lp379
S'Anti-Spam'
p380
aS'is'
p381
aS'Good'
p382
ag47
tp383
a((lp384
S'The'
p385
aS'latest'
p386
aS'of'
p387
aS'Internet'
p388
aS'Security'
p389
aS'has'
p390
aS'antispam'
p391
aS'function'
p392
aS'that'
p393
aS'is'
p394
aS'helpful'
p395
aS'because'
p396
ag2
aS'has'
p397
aS'received'
p398
ag266
aS'mountain'
p399
aS'of'
p400
aS'those'
p401
aS'these'
p402
aS'days.'
p403
ag47
tp404
a((lp405
S'Other'
p406
aS'than'
p407
aS'that'
p408
aS'it'
p409
aS'is'
p410
aS'all'
p411
aS'the'
p412
aS'same'
p413
aS'except'
p414
aS'the'
p415
aS'new'
p416
aS'updates.'
p417
ag27
tp418
a((lp419
S'But'
p420
aS'that'
p421
aS'is'
p422
aS'good'
p423
aS'for'
p424
aS'me'
p425
aS'because'
p426
aS'Symantec'
p427
aS'softwares'
p428
aS'are'
p429
ag266
aS'bit'
p430
aS'hard'
p431
aS'to'
p432
aS'master'
p433
aS'for'
p434
aS'me'
p435
aS'who'
p436
aS'are'
p437
aS'not'
p438
aS'savvy'
p439
aS'on'
p440
aS'computers.'
p441
ag88
tp442
a((lp443
S'So'
p444
aS'far'
p445
ag2
aS"haven't"
p446
aS'had'
p447
aS'so'
p448
aS'much'
p449
aS'complaints'
p450
aS'except'
p451
aS'that'
p452
ag2
aS'still'
p453
aS"haven't"
p454
aS'mastered'
p455
aS'how'
p456
aS'to'
p457
aS'scandisk'
p458
aS'when'
p459
aS'using'
p460
aS'Internet'
p461
aS'Security.'
p462
ag27
tp463
a((lp464
S'Too'
p465
aS'bad'
p466
aS'the'
p467
aS'product'
p468
aS'is'
p469
aS'cumbersome'
p470
aS'and'
p471
aS'intertwined'
p472
aS'trying'
p473
aS'to'
p474
aS'do'
p475
aS'so'
p476
aS'much'
p477
aS'at'
p478
aS'one'
p479
aS'time.'
p480
ag27
tp481
a((lp482
S'Sometimes'
p483
ag266
aS'suite'
p484
aS'is'
p485
aS'not'
p486
ag266
aS'good'
p487
aS'deal'
p488
aS'and'
p489
aS'all'
p490
aS'you'
p491
aS'get'
p492
aS'is'
p493
ag266
aS'bundle'
p494
aS'of'
p495
aS'headaches.'
p496
ag27
tp497
a((lp498
S"I'm"
p499
aS'not'
p500
aS'sure'
p501
aS'why'
p502
aS'all'
p503
aS'the'
p504
aS'bad'
p505
aS'reviews,'
p506
aS'my'
p507
aS'computer'
p508
aS"isn't"
p509
aS'especially'
p510
aS'slowed'
p511
aS'down'
p512
aS'and'
p513
ag2
aS'have'
p514
aS"Win'98."
p515
ag88
tp516
a((lp517
S'Sure,'
p518
aS'it'
p519
aS'slows'
p520
aS'it'
p521
aS'down'
p522
ag266
aS'little,'
p523
aS'but'
p524
aS"that's"
p525
aS'expected.'
p526
ag88
tp527
a((lp528
S'Perhaps'
p529
aS'Semantic'
p530
aS'could'
p531
aS'work'
p532
aS'out'
p533
aS'the'
p534
aS'efficiency'
p535
ag266
aS'little,'
p536
aS'but'
p537
aS'these'
p538
aS'reviews'
p539
aS'are'
p540
aS'highly'
p541
aS'exagerated...'
p542
ag2
aS'would'
p543
aS'ask'
p544
aS'what'
p545
aS'else'
p546
aS'these'
p547
aS'people'
p548
aS'are'
p549
aS'running'
p550
aS'on'
p551
aS'their'
p552
aS'computers(?)'
p553
ag88
tp554
a((lp555
g2
aS'would'
p556
aS'ask'
p557
aS'what'
p558
aS'else'
p559
aS'these'
p560
aS'people'
p561
aS'are'
p562
aS'running'
p563
aS'on'
p564
aS'their'
p565
aS'computers(?)'
p566
ag47
tp567
a((lp568
S'So,'
p569
aS'if'
p570
aS'you'
p571
aS'have'
p572
ag266
aS'fairly'
p573
aS'fast'
p574
aS'computer'
p575
aS'(1'
p576
aS'gig'
p577
aS'or'
p578
aS'better)'
p579
aS'with'
p580
aS'plenty'
p581
aS'of'
p582
aS'ram'
p583
aS'(512)'
p584
aS'and'
p585
aS'your'
p586
aS'not'
p587
aS'gaming'
p588
aS'online'
p589
aS'or'
p590
aS'running'
p591
aS'streaming'
p592
aS'video'
p593
aS'continually,'
p594
aS'you'
p595
aS'should'
p596
aS'be'
p597
aS'fine.'
p598
ag47
tp599
a((lp600
S'This'
p601
aS'is'
p602
aS'pretty'
p603
aS'standard'
p604
aS'for'
p605
aS'an'
p606
aS'up'
p607
aS'to'
p608
aS'date'
p609
aS'computer'
p610
aS'anymore,'
p611
aS'so'
p612
aS"what's"
p613
aS'the'
p614
aS'fuss?'
p615
ag47
tp616
a((lp617
S"I've"
p618
aS'been'
p619
aS'using'
p620
aS'Norton'
p621
aS'Anti-Virus'
p622
aS'in'
p623
aS'its'
p624
aS'many'
p625
aS'incarnations'
p626
aS'for'
p627
aS'over'
p628
ag97
aS'years.'
p629
ag47
tp630
a((lp631
S'Norton'
p632
aS'Internet'
p633
aS'Security'
p634
aS'2004'
p635
aS'is'
p636
aS'one'
p637
aS'of'
p638
aS'the'
p639
aS'more'
p640
aS'buggy'
p641
aS'implementations.'
p642
ag27
tp643
a((lp644
S'Even'
p645
aS'for'
p646
aS'computer'
p647
aS'super-heros'
p648
aS"it's"
p649
ag266
aS'pain'
p650
aS'to'
p651
aS'maintain'
p652
aS'when'
p653
aS'there'
p654
aS'is'
p655
ag266
aS'problem.'
p656
ag47
tp657
a((lp658
g2
aS'also'
p659
aS'reviewed'
p660
aS'Norton'
p661
aS'System'
p662
aS'Works'
p663
aS'2004/Professional.'
p664
ag47
tp665
a((lp666
S'This'
p667
aS'product'
p668
aS'has'
p669
aS'virtually'
p670
aS'all'
p671
aS'the'
p672
aS'same'
p673
aS'installation'
p674
aS'problems.'
p675
ag27
tp676
a((lp677
S'For'
p678
aS'purposes'
p679
aS'of'
p680
aS'clarity,'
p681
aS'here'
p682
aS'is'
p683
aS'my'
p684
aS'review'
p685
aS'from'
p686
aS'that'
p687
aS'product,edited'
p688
aS'to'
p689
aS'be'
p690
aS'appropriate'
p691
aS'for'
p692
aS'this'
p693
aS'product,'
p694
aS'since,'
p695
aS'for'
p696
aS'the'
p697
aS'most'
p698
aS'part,'
p699
aS'they'
p700
aS'share'
p701
aS'many'
p702
aS'of'
p703
aS'the'
p704
aS'same'
p705
aS'problems.'
p706
ag27
tp707
a((lp708
S'Something'
p709
aS'happened'
p710
aS'with'
p711
aS'this'
p712
aS'release'
p713
aS'for'
p714
aS'Norton'
p715
aS'System'
p716
aS'Works'
p717
aS'(2004)'
p718
aS'and'
p719
aS'for'
p720
aS'"Internet'
p721
aS'Security'
p722
aS'2004".'
p723
ag47
tp724
a((lp725
S'This'
p726
aS'is'
p727
aS'the'
p728
aS'fourth'
p729
aS'version'
p730
aS'of'
p731
aS'SystemWorks'
p732
aS'and'
p733
aS'the'
p734
aS'second'
p735
aS'version'
p736
aS'of'
p737
aS'Internet'
p738
aS'Security'
p739
aS'that'
p740
ag2
aS'have'
p741
aS'used'
p742
aS'and'
p743
aS'it'
p744
aS'has'
p745
aS'always'
p746
aS'been'
p747
ag266
aS'favorite.'
p748
ag88
tp749
a((lp750
S'It'
p751
aS'has'
p752
aS'saved'
p753
aS'my'
p754
aS'system'
p755
aS'on'
p756
aS'more'
p757
aS'than'
p758
aS'one'
p759
aS'occasion,'
p760
aS'and'
p761
aS'makes'
p762
aS'disc'
p763
aS'clean'
p764
aS'up'
p765
ag266
aS'snap.'
p766
ag47
tp767
a((lp768
S'The'
p769
aS'antivirus'
p770
aS'feature'
p771
aS'is'
p772
aS'phenomenal,'
p773
aS'and'
p774
aS'is'
p775
aS'regularly'
p776
aS'updated.'
p777
ag47
tp778
a((lp779
g2
aS'think'
p780
aS'their'
p781
aS'antivirus'
p782
aS'software'
p783
aS'was'
p784
aS'one'
p785
aS'of,'
p786
aS'if'
p787
aS'not'
p788
aS'the'
p789
aS'best,'
p790
aS'on'
p791
aS'the'
p792
ag47
tp793
a((lp794
S'Well,'
p795
aS'no'
p796
aS'more.'
p797
ag47
tp798
a((lp799
S'This'
p800
aS'version'
p801
aS'of'
p802
aS'Internet'
p803
aS'Security'
p804
aS'2004,'
p805
aS'is'
p806
aS'beyond'
p807
aS'hope.'
p808
ag27
tp809
a((lp810
S'They'
p811
aS'are'
p812
ag266
aS'royal'
p813
aS'pain'
p814
aS'to'
p815
aS'install,'
p816
aS'and'
p817
aS"don't"
p818
aS'function'
p819
aS'properly'
p820
aS'once'
p821
aS'finally'
p822
aS'installed'
p823
aS'--'
p824
aS'if'
p825
aS'you'
p826
aS'can'
p827
aS'install'
p828
aS'them'
p829
aS'at'
p830
aS'all.'
p831
ag27
tp832
a((lp833
S'The'
p834
aS'biggest'
p835
aS'problem'
p836
aS'is'
p837
aS'the'
p838
aS'installation.'
p839
ag27
tp840
a((lp841
S'Also'
p842
aS'if'
p843
aS'you'
p844
aS'do'
p845
aS'manage'
p846
aS'to'
p847
aS'get'
p848
aS'it'
p849
aS'installed,'
p850
aS'any'
p851
aS'problems'
p852
aS'with'
p853
aS'LiveUpdate'
p854
aS'or'
p855
aS'with'
p856
aS'System'
p857
aS'Works'
p858
aS'will'
p859
aS'also'
p860
aS'affect'
p861
aS'the'
p862
aS'functionality'
p863
aS'and/or'
p864
aS'the'
p865
aS'process'
p866
aS'of'
p867
aS'updating'
p868
aS'Internet'
p869
aS'Security.'
p870
ag27
tp871
a((lp872
S"I've"
p873
aS'had'
p874
aS'to'
p875
aS'install'
p876
aS'and'
p877
aS'uninstall'
p878
aS'them'
p879
aS'four'
p880
aS'or'
p881
aS'five'
p882
aS'times'
p883
aS'so'
p884
aS'far,'
p885
aS'and'
p886
aS"I've"
p887
aS'not'
p888
aS'to'
p889
aS'get'
p890
aS'either'
p891
aS'product'
p892
aS'working'
p893
aS'properly.'
p894
ag27
tp895
a((lp896
S'Why'
p897
aS'they'
p898
aS'brought'
p899
aS'this'
p900
aS'to'
p901
aS'market'
p902
aS'is'
p903
aS'beyond'
p904
aS'me.'
p905
ag47
tp906
a((lp907
S'First,'
p908
aS'it'
p909
aS'serious,'
p910
aS'serious'
p911
aS'installation'
p912
aS'problems.'
p913
ag27
tp914
a((lp915
S'Back'
p916
aS'in'
p917
aS'May'
p918
aS'2004,'
p919
aS'when'
p920
ag2
aS'first'
p921
aS'reviewed'
p922
aS'this,'
p923
aS'it'
p924
aS'had'
p925
aS'taken'
p926
aS'me'
p927
aS'over'
p928
aS'16'
p929
aS'hours'
p930
aS'to'
p931
aS'install'
p932
aS'and'
p933
aS'run.'
p934
ag27
tp935
a((lp936
S'Since'
p937
aS'then,'
p938
ag2
aS'have'
p939
aS'had'
p940
aS'one'
p941
aS'problem'
p942
aS'after'
p943
aS'another.'
p944
ag47
tp945
a((lp946
S'To'
p947
aS'say'
p948
aS'that'
p949
aS'it'
p950
aS'is'
p951
aS'"buggy"'
p952
aS'would'
p953
aS'be'
p954
aS'the'
p955
aS"world's"
p956
aS'most'
p957
aS'profound'
p958
aS'understatement.'
p959
ag47
tp960
a((lp961
S'Almost'
p962
aS'from'
p963
aS'the'
p964
aS'beginning,'
p965
aS'LiveUpdate'
p966
aS'would'
p967
aS'not'
p968
aS'function.'
p969
ag27
tp970
a((lp971
S'First,'
p972
aS'it'
p973
aS'failed'
p974
aS'whenever'
p975
aS'connecting'
p976
aS'to'
p977
aS'get'
p978
aS'updates.'
p979
ag27
tp980
a((lp981
S'When'
p982
ag2
aS'finally'
p983
aS'got'
p984
aS'it'
p985
aS'working,'
p986
aS'it'
p987
aS'only'
p988
aS'worked'
p989
aS'properly'
p990
aS'for'
p991
aS'many'
p992
ag266
aS'month.'
p993
ag27
tp994
a((lp995
S'The'
p996
aS'next'
p997
aS'problem'
p998
aS'was'
p999
aS'that'
p1000
aS'it'
p1001
aS"didn't"
p1002
aS'recognize'
p1003
aS'all'
p1004
aS'the'
p1005
aS'installed'
p1006
aS'components,'
p1007
aS'so'
p1008
aS'it'
p1009
aS'would'
p1010
aS'not'
p1011
aS'update'
p1012
aS'them,'
p1013
aS'most'
p1014
aS'notably'
p1015
aS'and'
p1016
aS'importantly,'
p1017
aS'virus'
p1018
aS'definitions.'
p1019
ag27
tp1020
a((lp1021
S'Without'
p1022
aS'this'
p1023
aS'important'
p1024
aS'feature,'
p1025
aS'both'
p1026
aS'SystemWorks'
p1027
aS'and'
p1028
aS'Internet'
p1029
aS'Security'
p1030
aS'are'
p1031
aS'all'
p1032
aS'but'
p1033
aS'useless.'
p1034
ag47
tp1035
a((lp1036
S'Without'
p1037
aS'updated'
p1038
aS'virus'
p1039
aS'definiations,'
p1040
aS'your'
p1041
aS'PC'
p1042
aS'is'
p1043
aS'also'
p1044
aS'at'
p1045
aS'serious'
p1046
aS'risk!'
p1047
ag47
tp1048
a((lp1049
S'Once'
p1050
aS'installed,'
p1051
aS'however,'
p1052
aS'some'
p1053
aS'of'
p1054
aS'the'
p1055
aS'functions'
p1056
aS'do'
p1057
aS'work'
p1058
aS'OK'
p1059
aS'(Disk'
p1060
aS'Doctor,'
p1061
aS'One'
p1062
aS'Button'
p1063
aS'Checkup,'
p1064
aS'and'
p1065
aS'WinDoctor).'
p1066
ag88
tp1067
a((lp1068
S'These'
p1069
aS'tasks'
p1070
aS'are'
p1071
aS'faster'
p1072
aS'and'
p1073
aS'easier'
p1074
aS'than'
p1075
aS'in'
p1076
aS'prior'
p1077
aS'versions,'
p1078
aS'and'
p1079
ag2
aS'found'
p1080
aS'the'
p1081
aS'menu'
p1082
aS'to'
p1083
aS'be'
p1084
aS'much'
p1085
aS'more'
p1086
aS'navigable.'
p1087
ag88
tp1088
a((lp1089
S'But'
p1090
aS'this'
p1091
aS"doesn't"
p1092
aS'make'
p1093
aS'up'
p1094
aS'for'
p1095
aS"it's"
p1096
aS'innumerable'
p1097
aS'other'
p1098
aS'short-comings,'
p1099
aS'the'
p1100
aS'biggest'
p1101
aS'of'
p1102
aS'which'
p1103
aS'is'
p1104
aS'the'
p1105
aS'inability'
p1106
aS'to'
p1107
aS'download'
p1108
aS'any'
p1109
aS'updates'
p1110
aS'due'
p1111
aS'to'
p1112
aS'problems'
p1113
aS'with'
p1114
aS'LiveUpdate.'
p1115
ag27
tp1116
a((lp1117
S'The'
p1118
aS'other'
p1119
aS'annoyance'
p1120
aS'with'
p1121
aS'this'
p1122
aS'that'
p1123
aS'you'
p1124
aS'have'
p1125
aS'to'
p1126
aS'remove'
p1127
aS'every'
p1128
aS'single'
p1129
aS'remnant'
p1130
aS'of'
p1131
aS'previous'
p1132
aS'version'
p1133
aS'of'
p1134
aS'Norton'
p1135
aS'SystemWorks'
p1136
aS'before'
p1137
aS'you'
p1138
aS'installs'
p1139
aS'this.'
p1140
ag27
tp1141
a((lp1142
S'Warning!'
p1143
aS'The'
p1144
aS'Windows'
p1145
aS'"remove'
p1146
aS'program"'
p1147
aS'feature'
p1148
aS'does'
p1149
aS'not'
p1150
aS'do'
p1151
ag266
aS'good'
p1152
aS'job'
p1153
aS'of'
p1154
aS'this,'
p1155
aS'and'
p1156
aS'neither'
p1157
aS'does'
p1158
aS"Norton's"
p1159
aS'own'
p1160
aS'removal'
p1161
aS'program.'
p1162
ag27
tp1163
a((lp1164
S'A'
p1165
aS'lot'
p1166
aS'of'
p1167
aS'"fragments"'
p1168
aS'were'
p1169
aS'left'
p1170
aS'in'
p1171
aS'the'
p1172
aS'Registry,'
p1173
aS'and'
p1174
aS'it'
p1175
aS'the'
p1176
aS'Norton'
p1177
aS'system'
p1178
aS'folders.'
p1179
ag27
tp1180
a((lp1181
S'Their'
p1182
aS'website'
p1183
aS'had'
p1184
ag266
aS'download'
p1185
aS'that'
p1186
aS'helped'
p1187
aS'remove'
p1188
aS'those,'
p1189
aS'although'
p1190
ag2
aS'had'
p1191
aS'to'
p1192
aS'manually'
p1193
aS'remove'
p1194
ag266
aS'good'
p1195
aS'number'
p1196
aS'of'
p1197
aS'files'
p1198
aS'from'
p1199
aS'the'
p1200
aS'"Programs"'
p1201
aS'directory.'
p1202
ag88
tp1203
a((lp1204
S'If'
p1205
aS'you'
p1206
aS'have'
p1207
aS'an'
p1208
aS'older'
p1209
aS'version'
p1210
aS'of'
p1211
aS'"Internet'
p1212
aS'Security"'
p1213
aS'installed,'
p1214
aS'you'
p1215
aS'may'
p1216
aS'also'
p1217
aS'need'
p1218
aS'to'
p1219
aS'remove'
p1220
aS'it'
p1221
aS'as'
p1222
aS'well'
p1223
aS'before'
p1224
aS'proceeding'
p1225
aS'with'
p1226
aS'SystemWorks'
p1227
aS'install.'
p1228
ag27
tp1229
a((lp1230
S'You'
p1231
aS'also'
p1232
aS'need'
p1233
aS'to'
p1234
aS'go'
p1235
aS'in'
p1236
aS'and'
p1237
aS'MANUALLY'
p1238
aS'remove'
p1239
aS'many'
p1240
aS'Symantec'
p1241
aS'files'
p1242
aS'from'
p1243
aS'the'
p1244
aS'REGISTRY.'
p1245
ag27
tp1246
a((lp1247
S'(Intructions'
p1248
aS'for'
p1249
aS'doing'
p1250
aS'so'
p1251
aS'are'
p1252
aS'on'
p1253
aS'Symantecs'
p1254
aS'website.)'
p1255
ag47
tp1256
a((lp1257
S'Even'
p1258
aS'this,'
p1259
aS'however,'
p1260
aS'did'
p1261
aS'not'
p1262
aS'solve'
p1263
aS'my'
p1264
aS'problems.'
p1265
ag47
tp1266
a((lp1267
S'As'
p1268
aS'of'
p1269
aS'October,'
p1270
aS'2004,'
p1271
aS'these'
p1272
aS'products'
p1273
aS'are'
p1274
aS'NOT'
p1275
aS'working'
p1276
aS'and'
p1277
aS"I'm"
p1278
aS'ready'
p1279
aS'to'
p1280
aS'demand'
p1281
ag266
aS'refund'
p1282
aS'from'
p1283
aS'Symantec.'
p1284
ag27
tp1285
a((lp1286
g2
aS'just'
p1287
aS'uninstalled'
p1288
aS'SystemWorks'
p1289
aS'and'
p1290
aS'Internet'
p1291
aS'Security'
p1292
aS'for'
p1293
aS'at'
p1294
aS'least'
p1295
aS'the'
p1296
aS'fifth'
p1297
aS'time'
p1298
aS'due'
p1299
aS'to'
p1300
aS'funtionality'
p1301
aS'issues.'
p1302
ag27
tp1303
a((lp1304
S'Once'
p1305
aS'again'
p1306
aS'it'
p1307
aS"won't"
p1308
aS'reinstall,'
p1309
aS'even'
p1310
aS'with'
p1311
aS'online'
p1312
aS'and'
p1313
aS'email'
p1314
aS'assistance'
p1315
aS'from'
p1316
aS'Symantect'
p1317
aS'Technicians.'
p1318
ag27
tp1319
a((lp1320
S'The'
p1321
aS'best'
p1322
aS'thing'
p1323
aS'to'
p1324
aS'do'
p1325
aS'with'
p1326
aS'this'
p1327
aS'version,'
p1328
aS'is'
p1329
aS'to'
p1330
aS'leave'
p1331
aS'it'
p1332
aS'on'
p1333
aS'the'
p1334
aS'store'
p1335
aS'shelf.'
p1336
aS'It'
p1337
aS"doesn't"
p1338
aS'work,'
p1339
aS'and'
p1340
aS'will'
p1341
aS'cost'
p1342
aS'you'
p1343
aS'an'
p1344
aS'enormous'
p1345
aS'amount'
p1346
aS'of'
p1347
aS'your'
p1348
aS'time,'
p1349
aS'not'
p1350
aS'to'
p1351
aS'mention'
p1352
aS'your'
p1353
aS'hard'
p1354
aS'earned'
p1355
aS'dollars.'
p1356
ag27
tp1357
a((lp1358
S'Personally,'
p1359
ag2
aS'may'
p1360
aS'never'
p1361
aS'buy'
p1362
aS'Symantect'
p1363
aS'products'
p1364
aS'again.'
p1365
ag27
tp1366
a((lp1367
S'And'
p1368
aS"that's"
p1369
ag266
aS'shame.'
p1370
ag47
tp1371
a((lp1372
S'They'
p1373
aS'use'
p1374
aS'to'
p1375
aS'be'
p1376
aS'so'
p1377
aS'useful'
p1378
aS'and'
p1379
aS'neceesary.'
p1380
ag47
tp1381
a((lp1382
S'No'
p1383
aS'longer.'
p1384
ag47
tp1385
a((lp1386
S'Avoid'
p1387
aS'this'
p1388
aS'product'
p1389
aS'at'
p1390
aS'all'
p1391
aS'costs.'
p1392
ag27
tp1393
a((lp1394
S'Antagonising'
p1395
ag47
tp1396
a((lp1397
S'There'
p1398
aS'are'
p1399
aS'some'
p1400
aS'highs'
p1401
aS'to'
p1402
aS'the'
p1403
aS'2004'
p1404
aS'edition,'
p1405
aS'but'
p1406
aS'mostly'
p1407
aS'lows.'
p1408
ag27
tp1409
a((lp1410
S'The'
p1411
aS'program'
p1412
aS'brings'
p1413
aS'more'
p1414
aS'problems'
p1415
aS'than'
p1416
ag266
aS'virus,'
p1417
aS'albeit'
p1418
aS'not'
p1419
aS'as'
p1420
aS'major'
p1421
aS'problems,'
p1422
aS'just'
p1423
aS'not'
p1424
aS'what'
p1425
aS'you'
p1426
aS'expect'
p1427
aS'for'
p1428
aS'70'
p1429
aS'bucks.'
p1430
ag27
tp1431
a((lp1432
g2
aS'had'
p1433
ag266
aS'question'
p1434
aS'about'
p1435
aS'the'
p1436
aS'pros'
p1437
aS'and'
p1438
aS'cons'
p1439
aS'of'
p1440
aS'turning'
p1441
aS'off'
p1442
aS'the'
p1443
aS'Norton'
p1444
aS'firewall'
p1445
aS'vs.'
p1446
aS'the'
p1447
aS'windows'
p1448
aS'firewall,'
p1449
aS'and'
p1450
aS'waited'
p1451
aS'45'
p1452
aS'minutes'
p1453
aS'to'
p1454
aS'speak'
p1455
aS'with'
p1456
ag266
aS'tech'
p1457
aS'support'
p1458
aS'representative'
p1459
aS'because'
p1460
ag2
aS'did'
p1461
aS'not'
p1462
aS'have'
p1463
ag266
aS'"customer'
p1464
aS'priority'
p1465
aS'ID'
p1466
aS'number."'
p1467
ag27
tp1468
a((lp1469
S'Then'
p1470
aS'when'
p1471
ag2
aS'went'
p1472
aS'to'
p1473
aS"Norton's"
p1474
aS'website'
p1475
aS'to'
p1476
aS'obtain'
p1477
ag266
aS'priority'
p1478
aS'ID'
p1479
aS'number'
p1480
aS'per'
p1481
aS'the'
p1482
aS'instructions'
p1483
ag2
aS'had'
p1484
aS'been'
p1485
aS'given,'
p1486
ag2
aS"couldn't"
p1487
aS'find'
p1488
ag266
aS'way'
p1489
aS'to'
p1490
aS'get'
p1491
aS'one.'
p1492
ag27
tp1493
a((lp1494
S'So'
p1495
ag2
aS'e-mailed'
p1496
aS'the'
p1497
aS'online'
p1498
aS'tech'
p1499
aS'support'
p1500
aS'with'
p1501
aS'that'
p1502
aS'simple'
p1503
aS'question,'
p1504
aS'and'
p1505
aS'got'
p1506
ag266
aS'reply'
p1507
aS'which'
p1508
aS'was'
p1509
aS'totally'
p1510
aS'unresponsive'
p1511
aS'(it'
p1512
aS'looked'
p1513
aS'as'
p1514
aS'though'
p1515
aS'they'
p1516
aS"didn't"
p1517
aS'actually'
p1518
aS'read'
p1519
aS'the'
p1520
aS'e-mail'
p1521
aS'and'
p1522
aS'just'
p1523
aS'sent'
p1524
aS'back'
p1525
ag266
aS'few'
p1526
aS'boilerplate'
p1527
aS'paragraphs).'
p1528
ag27
tp1529
a((lp1530
S'And,'
p1531
aS'when'
p1532
aS'you'
p1533
aS'think'
p1534
aS'about'
p1535
aS'it,'
p1536
aS"it's"
p1537
aS'insulting'
p1538
aS'that'
p1539
aS'Norton'
p1540
aS'requires'
p1541
aS'its'
p1542
aS'customers'
p1543
aS'to'
p1544
aS'jump'
p1545
aS'through'
p1546
aS'these'
p1547
aS'hoops'
p1548
aS'--'
p1549
aS'anyone'
p1550
aS'who'
p1551
aS'can'
p1552
aS'provide'
p1553
aS'proof'
p1554
aS'of'
p1555
aS'purchase,'
p1556
aS'whether'
p1557
aS'on'
p1558
aS'the'
p1559
aS'phone'
p1560
aS'or'
p1561
aS'online'
p1562
aS'(what'
p1563
aS'if'
p1564
aS'your'
p1565
aS'computer'
p1566
aS'is'
p1567
aS'down?),'
p1568
aS'should'
p1569
aS'have'
p1570
aS'equal'
p1571
aS'priority.'
p1572
ag27
tp1573
a((lp1574
g2
aS'may'
p1575
aS'not'
p1576
aS'be'
p1577
ag266
aS'computer'
p1578
aS'expert'
p1579
aS'but'
p1580
ag2
aS'am'
p1581
aS'perfectly'
p1582
aS'capable'
p1583
aS'of'
p1584
aS'following'
p1585
aS'detailed'
p1586
aS'instructions,'
p1587
aS'and'
p1588
aS'Norton'
p1589
aS'just'
p1590
aS'makes'
p1591
aS'life'
p1592
aS'way'
p1593
aS'too'
p1594
aS'hard.'
p1595
ag47
tp1596
a((lp1597
S'Plus,'
p1598
aS'when'
p1599
aS'Norton'
p1600
aS'provided'
p1601
aS'online'
p1602
aS'updates,'
p1603
aS'there'
p1604
aS'were'
p1605
aS'so'
p1606
aS'many'
p1607
aS'unexplained'
p1608
aS'categories'
p1609
aS'(about'
p1610
aS'15'
p1611
aS'over'
p1612
aS'and'
p1613
aS'above'
p1614
aS'virus'
p1615
aS'definitions)'
p1616
ag47
tp1617
a((lp1618
g2
aS'was'
p1619
aS'totally'
p1620
aS'baffled.'
p1621
ag47
tp1622
a((lp1623
g2
aS'originally'
p1624
aS'had'
p1625
aS'bought'
p1626
aS'Norton'
p1627
aS'Internet'
p1628
aS'Security'
p1629
aS'for'
p1630
aS'my'
p1631
aS'laptop'
p1632
aS'after'
p1633
aS'the'
p1634
aS'preinstalled'
p1635
aS'Norton'
p1636
aS'Antivirus'
p1637
aS'trial'
p1638
aS'had'
p1639
aS'finished.'
p1640
ag47
tp1641
a((lp1642
S'The'
p1643
aS'hardest'
p1644
aS'part'
p1645
aS'was'
p1646
aS'the'
p1647
aS'run'
p1648
aS'around'
p1649
aS'with'
p1650
aS'what'
p1651
aS'software'
p1652
aS'suite'
p1653
aS'to'
p1654
aS'buy.'
p1655
ag47
tp1656
a((lp1657
S'This'
p1658
aS'package'
p1659
aS'contains'
p1660
aS'BOTH'
p1661
aS'Norton'
p1662
aS'Antivirus'
p1663
aS'and'
p1664
aS'Firewall.'
p1665
ag47
tp1666
a((lp1667
S'The'
p1668
aS'only'
p1669
aS'reason'
p1670
aS"I'd"
p1671
aS'buy'
p1672
aS'them'
p1673
aS'separately'
p1674
aS'in'
p1675
aS'the'
p1676
aS'combo'
p1677
aS'package'
p1678
aS'is'
p1679
aS'for'
p1680
aS'two'
p1681
aS'liecenses.'
p1682
ag47
tp1683
a((lp1684
S'If'
p1685
aS'you'
p1686
aS'want'
p1687
aS'integrated'
p1688
aS'Antivirus'
p1689
aS'and'
p1690
aS'Firewall'
p1691
aS'this'
p1692
aS'is'
p1693
aS'what'
p1694
aS"I'd"
p1695
aS'suggest.'
p1696
ag47
tp1697
a((lp1698
S"Norton's"
p1699
aS'memory'
p1700
aS'usage'
p1701
aS'on'
p1702
aS'systems'
p1703
aS'with'
p1704
aS'512'
p1705
aS'MB'
p1706
aS'is'
p1707
aS'very'
p1708
aS'low.'
p1709
ag88
tp1710
a((lp1711
S'It'
p1712
aS'usually'
p1713
aS'only'
p1714
aS'takes'
p1715
aS'5-10'
p1716
aS"MB's"
p1717
aS'of'
p1718
aS'system'
p1719
aS'memory.'
p1720
ag47
tp1721
a((lp1722
g2
aS'just'
p1723
aS'got'
p1724
aS'an'
p1725
aS'older'
p1726
aS'866'
p1727
aS'Mhz'
p1728
aS'system'
p1729
aS'with'
p1730
aS'512'
p1731
aS'PC'
p1732
aS'133'
p1733
aS'RAM'
p1734
aS'and'
p1735
aS'it'
p1736
aS'also'
p1737
aS'runs'
p1738
aS'fine'
p1739
aS'on'
p1740
aS'that.'
p1741
ag88
tp1742
a((lp1743
S'Both'
p1744
aS'the'
p1745
aS'antivirus'
p1746
aS'and'
p1747
aS'firewall'
p1748
aS'are'
p1749
aS'integrated'
p1750
aS'into'
p1751
aS'one'
p1752
aS'piece'
p1753
aS'of'
p1754
aS'software'
p1755
aS'and'
p1756
aS'they'
p1757
aS'update'
p1758
aS'together.'
p1759
ag88
tp1760
a((lp1761
S'You'
p1762
aS"won't"
p1763
aS'need'
p1764
aS'to'
p1765
aS'update'
p1766
aS'your'
p1767
aS'firewall'
p1768
aS'and'
p1769
aS'antivirus'
p1770
aS'separately'
p1771
aS'or'
p1772
aS'install'
p1773
aS'two'
p1774
aS'disks.'
p1775
ag88
tp1776
a((lp1777
S'The'
p1778
aS'best'
p1779
aS'part'
p1780
aS'of'
p1781
aS'the'
p1782
aS'firewall'
p1783
aS'is'
p1784
aS'the'
p1785
aS'visual'
p1786
aS'backtracking.'
p1787
ag88
tp1788
a((lp1789
S'An'
p1790
aS'infected'
p1791
aS'computer'
p1792
aS'tried'
p1793
aS'to'
p1794
aS'launch'
p1795
aS'an'
p1796
aS'attack'
p1797
aS'on'
p1798
aS'mine'
p1799
aS'and'
p1800
ag2
aS'was'
p1801
aS'able'
p1802
aS'to'
p1803
aS'get'
p1804
ag266
aS'map'
p1805
aS'and'
p1806
aS'address'
p1807
aS'of'
p1808
aS'the'
p1809
aS'server.'
p1810
ag47
tp1811
a((lp1812
g2
aS'had'
p1813
aS'the'
p1814
aS'best'
p1815
aS'intentions'
p1816
aS'when'
p1817
ag2
aS'bought'
p1818
aS'this,'
p1819
ag2
aS'really'
p1820
aS'did.'
p1821
ag47
tp1822
a((lp1823
g2
aS'followed'
p1824
aS'the'
p1825
aS'instructions'
p1826
aS'to'
p1827
aS'the'
p1828
aS'letter.'
p1829
ag47
tp1830
a((lp1831
S'But'
p1832
aS'it'
p1833
aS'caused'
p1834
aS'more'
p1835
aS'headaches'
p1836
aS'than'
p1837
ag2
aS'could'
p1838
aS'imagine.'
p1839
ag47
tp1840
a((lp1841
S'Stay'
p1842
aS'away'
p1843
aS'from'
p1844
aS'this'
p1845
aS'product!'
p1846
ag27
tp1847
a((lp1848
g2
aS"don't"
p1849
aS'know'
p1850
aS"what's"
p1851
aS'happened'
p1852
aS'to'
p1853
aS'Norton,'
p1854
aS'but'
p1855
aS'2004'
p1856
aS'is'
p1857
aS'absolute'
p1858
aS'garbage.'
p1859
ag27
tp1860
a((lp1861
S'Apparently,'
p1862
aS'they'
p1863
aS"can't"
p1864
aS'even'
p1865
aS'fix'
p1866
aS'the'
p1867
aS'bugs'
p1868
aS'that'
p1869
aS'have'
p1870
aS'overrun'
p1871
aS'their'
p1872
aS'own'
p1873
aS'site.'
p1874
ag47
tp1875
a((lp1876
S'The'
p1877
aS'customer'
p1878
aS'support'
p1879
aS'is'
p1880
aS'pathetic.'
p1881
ag27
tp1882
a((lp1883
g2
aS'have'
p1884
aS'found'
p1885
aS'too'
p1886
aS'many'
p1887
aS'bugs'
p1888
aS'in'
p1889
aS'Norton'
p1890
aS'Internet'
p1891
aS'Security'
p1892
aS'Professional'
p1893
aS'to'
p1894
aS'recommend'
p1895
aS'it'
p1896
aS'to'
p1897
aS'any'
p1898
aS'one'
p1899
aS'without'
p1900
aS'extreme'
p1901
aS'patience'
p1902
aS'and'
p1903
aS'experience.'
p1904
ag27
tp1905
a((lp1906
S'Okay,'
p1907
aS'how'
p1908
aS'can'
p1909
ag2
aS'say'
p1910
aS'this'
p1911
aS'nicely?'
p1912
ag47
tp1913
a((lp1914
S'This'
p1915
aS'product'
p1916
aS'is'
p1917
aS'absolutely'
p1918
aS'not'
p1919
aS'ready'
p1920
aS'for'
p1921
aS'release.'
p1922
ag27
tp1923
a((lp1924
S'It'
p1925
aS'is'
p1926
aS'buggy,'
p1927
aS'slow'
p1928
aS'and'
p1929
aS'basically'
p1930
aS'frustrates'
p1931
aS'the'
p1932
aS'heck'
p1933
aS'out'
p1934
aS'of'
p1935
aS'the'
p1936
aS'user.'
p1937
ag27
tp1938
a((lp1939
g2
aS'am'
p1940
aS'an'
p1941
aS'IT'
p1942
aS'professional'
p1943
aS'and'
p1944
aS'have'
p1945
aS'used'
p1946
aS'Norton'
p1947
aS'for'
p1948
aS'years,'
p1949
aS'but'
p1950
aS'this'
p1951
aS'product'
p1952
aS'is'
p1953
ag266
aS'complete'
p1954
aS'and'
p1955
aS'utter'
p1956
aS'dud.'
p1957
ag27
tp1958
a((lp1959
S'Norton'
p1960
aS'has'
p1961
ag266
aS'name'
p1962
aS'in'
p1963
aS'the'
p1964
aS'market'
p1965
aS'but'
p1966
ag2
aS'think'
p1967
aS"it's"
p1968
aS'only'
p1969
aS'the'
p1970
aS'name.'
p1971
ag47
tp1972
a((lp1973
S"It's"
p1974
ag266
aS'rip'
p1975
aS'off'
p1976
aS'if'
p1977
aS'one'
p1978
aS'buys'
p1979
aS'Norton'
p1980
aS'Internet'
p1981
aS'Security'
p1982
aS'and'
p1983
aS'antivirus.'
p1984
ag27
tp1985
a((lp1986
S'The'
p1987
aS'former'
p1988
aS'hogs'
p1989
aS'memory'
p1990
aS'and'
p1991
aS'it'
p1992
aS'takes'
p1993
aS'ages'
p1994
aS'for'
p1995
aS'the'
p1996
aS'computer'
p1997
aS'to'
p1998
aS'start.'
p1999
ag47
tp2000
a((lp2001
S'Nothing'
p2002
aS'spectacular'
p2003
aS'is'
p2004
aS'done'
p2005
aS'by'
p2006
aS'internet'
p2007
aS'security'
p2008
aS'or'
p2009
aS'by'
p2010
aS'antivirus'
p2011
aS'software.'
p2012
ag27
tp2013
a((lp2014
S'Even'
p2015
aS'though'
p2016
ag2
aS'have'
p2017
aS'the'
p2018
aS'parental'
p2019
aS'controls'
p2020
aS'off'
p2021
aS'it'
p2022
aS'constantly'
p2023
aS'starts'
p2024
aS'updating'
p2025
aS'them'
p2026
aS'then'
p2027
aS'freezes'
p2028
aS'my'
p2029
aS'computer.'
p2030
ag27
tp2031
a((lp2032
S'Had'
p2033
aS'to'
p2034
aS'uninstall'
p2035
aS'it.'
p2036
ag47
tp2037
a((lp2038
S'Maybe'
p2039
aS"it's"
p2040
aS'me,'
p2041
aS'but'
p2042
aS'this'
p2043
aS"isn't"
p2044
aS'my'
p2045
aS'program.'
p2046
ag47
tp2047
a((lp2048
g2
aS'have'
p2049
aS'had'
p2050
aS'Norton'
p2051
aS'Internet'
p2052
aS'Security'
p2053
aS'for'
p2054
ag169
aS'yrs'
p2055
aS'and'
p2056
aS'up'
p2057
aS'graded'
p2058
aS'to'
p2059
aS'2004'
p2060
aS'versionin'
p2061
aS'August'
p2062
aS'2004.'
p2063
ag47
tp2064
a((lp2065
S'Now'
p2066
aS'in'
p2067
aS'October,2004,'
p2068
aS'the'
p2069
aS'firewall'
p2070
aS'said'
p2071
ag2
aS"couldn't"
p2072
aS'OK'
p2073
aS'anymore'
p2074
aS'software'
p2075
aS'to'
p2076
aS'use'
p2077
aS'the'
p2078
aS'internet'
p2079
aS'because'
p2080
aS'its'
p2081
aS'full.'
p2082
ag27
tp2083
a((lp2084
S'Im'
p2085
aS'at'
p2086
aS'full'
p2087
aS'capacity!!!!'
p2088
ag2
aS'called'
p2089
aS'Symantic'
p2090
aS'and'
p2091
aS'they'
p2092
aS'said'
p2093
aS'they'
p2094
aS"don't"
p2095
aS'know'
p2096
aS'why'
p2097
aS'but'
p2098
ag2
aS'should'
p2099
aS'get'
p2100
aS"Tech's"
p2101
aS'Support'
p2102
aS'at'
p2103
aS'$35/hr'
p2104
aS'to'
p2105
aS'help!!'
p2106
ag2
aS'did'
p2107
aS'call'
p2108
aS'them'
p2109
aS'and'
p2110
aS'was'
p2111
aS'on'
p2112
aS'hold'
p2113
aS'for'
p2114
aS'55'
p2115
aS'minutes'
p2116
aS'untill'
p2117
ag2
aS'hung'
p2118
aS'up!'
p2119
ag27
tp2120
a((lp2121
g2
aS'am'
p2122
aS'going'
p2123
aS'to'
p2124
aS'buy'
p2125
aS'PC-cillium'
p2126
aS'ASAP.'
p2127
ag47
tp2128
a((lp2129
S'So,'
p2130
aS"DON'T"
p2131
aS'buy'
p2132
aS'this'
p2133
aS'or'
p2134
aS'upgrade.'
p2135
ag27
tp2136
a((lp2137
S'If'
p2138
aS'you'
p2139
aS'currently'
p2140
aS'own'
p2141
aS'the'
p2142
aS'2003'
p2143
aS'version,'
p2144
aS'and'
p2145
aS'are'
p2146
aS'looking'
p2147
aS'to'
p2148
aS'upgrade'
p2149
aS'to'
p2150
aS'the'
p2151
aS'2004'
p2152
aS'version,'
p2153
aS"don't."
p2154
ag27
tp2155
a((lp2156
S'There'
p2157
aS'is'
p2158
aS'little'
p2159
aS'meaningful'
p2160
aS'difference'
p2161
aS'between'
p2162
aS'the'
p2163
aS'two'
p2164
aS'versions'
p2165
aS'aside'
p2166
aS'from'
p2167
aS'the'
p2168
aS'tedius'
p2169
aS'activation'
p2170
aS'process,'
p2171
aS'and'
p2172
aS'the'
p2173
aS'product'
p2174
aS'is'
p2175
aS'currently'
p2176
aS'rather'
p2177
aS'buggy'
p2178
aS'and'
p2179
aS'has'
p2180
aS'problems'
p2181
aS'running'
p2182
aS'unless'
p2183
aS'cleanly'
p2184
aS'installed'
p2185
aS'on'
p2186
ag266
aS'formatted'
p2187
aS'drive.'
p2188
ag27
tp2189
a((lp2190
S'If'
p2191
aS'you'
p2192
aS'are'
p2193
aS'new'
p2194
aS'to'
p2195
aS'the'
p2196
aS'market'
p2197
aS'and'
p2198
aS'looking'
p2199
aS'to'
p2200
aS'buy'
p2201
ag266
aS'symantec'
p2202
aS'software'
p2203
aS'product,'
p2204
aS'save'
p2205
aS'yourself'
p2206
aS'some'
p2207
aS'money'
p2208
aS'and'
p2209
aS'buy'
p2210
aS'the'
p2211
aS'2003'
p2212
aS'version.'
p2213
ag27
tp2214
a((lp2215
S'It'
p2216
aS'included'
p2217
aS'popup'
p2218
aS'and'
p2219
aS'ad'
p2220
aS'blockers,'
p2221
aS'referrer'
p2222
aS'blockers,'
p2223
aS'firewall,'
p2224
aS'intrusion'
p2225
aS'detection,'
p2226
aS'and'
p2227
aS'all'
p2228
aS'the'
p2229
aS'same'
p2230
aS'things'
p2231
aS'that'
p2232
aS'the'
p2233
aS'2004'
p2234
aS'version'
p2235
aS'includes'
p2236
aS'that'
p2237
aS'are'
p2238
aS'really'
p2239
aS'needed.'
p2240
ag47
tp2241
a((lp2242
S'This'
p2243
aS'came'
p2244
aS'PRELOADED'
p2245
aS'on'
p2246
aS'our'
p2247
aS'new,'
p2248
aS'2.8Mz'
p2249
aS'Pentium'
p2250
ag150
aS'256RAM'
p2251
aS'computer.'
p2252
ag47
tp2253
a((lp2254
S'From'
p2255
aS'day'
p2256
aS'one,'
p2257
aS"we've"
p2258
aS'had'
p2259
aS'hangups,'
p2260
aS'crashes,'
p2261
aS'glitches,'
p2262
aS'continual'
p2263
aS'reboots,'
p2264
aS'LONG'
p2265
aS'shutdowns'
p2266
aS'due'
p2267
aS'to'
p2268
aS'"ccApp.exe"'
p2269
aS'program'
p2270
aS'running'
p2271
aS'which'
p2272
aS'is'
p2273
ag266
aS'Norton'
p2274
aS'program.'
p2275
ag27
tp2276
a((lp2277
S'Long'
p2278
aS'reboots'
p2279
aS'due'
p2280
aS'to'
p2281
aS'Norton'
p2282
aS'taking'
p2283
aS'FOREVER'
p2284
aS'to'
p2285
aS'boot.'
p2286
ag27
tp2287
a((lp2288
S'We'
p2289
aS'constantly'
p2290
aS'got'
p2291
aS'"Windows'
p2292
aS'Virtual'
p2293
aS'Memory'
p2294
aS'Low"'
p2295
aS'error'
p2296
aS'messages'
p2297
aS'popping'
p2298
aS'up'
p2299
aS'follwed'
p2300
aS'by'
p2301
aS'ridiculous'
p2302
aS'slowdowns'
p2303
aS'and/or'
p2304
aS'crashes.'
p2305
ag27
tp2306
a((lp2307
g2
aS"don't"
p2308
aS'have'
p2309
aS'one'
p2310
aS'good'
p2311
aS'thing'
p2312
aS'to'
p2313
aS'say.'
p2314
ag47
tp2315
a((lp2316
g2
aS'agree'
p2317
aS'with'
p2318
aS'the'
p2319
aS'other'
p2320
aS'reviewer'
p2321
aS'that'
p2322
aS'it'
p2323
aS"doesn't"
p2324
aS'even'
p2325
aS'deserve'
p2326
ag213
aS'star.'
p2327
ag47
tp2328
a((lp2329
S'Norton'
p2330
aS'online'
p2331
aS'support'
p2332
aS'does'
p2333
aS'not'
p2334
aS'even'
p2335
aS'acknowledge'
p2336
aS'this'
p2337
aS'problem'
p2338
aS'nor'
p2339
aS'does'
p2340
aS'the'
p2341
aS'computer'
p2342
aS'company'
p2343
aS'that'
p2344
aS'preloaded'
p2345
aS'it'
p2346
aS'on'
p2347
aS'our'
p2348
aS'new'
p2349
aS'computer.'
p2350
ag27
tp2351
a((lp2352
S"It's"
p2353
ag266
aS'well-known'
p2354
aS'company'
p2355
aS'that'
p2356
ag2
aS'expected'
p2357
aS'more'
p2358
aS'from'
p2359
aS'and'
p2360
aS'spent'
p2361
ag103
aS'hours'
p2362
aS'with'
p2363
aS'tech'
p2364
aS'support'
p2365
aS'running'
p2366
aS'all'
p2367
aS'kinds'
p2368
aS'of'
p2369
aS'tests'
p2370
aS'on'
p2371
aS'the'
p2372
aS'computer'
p2373
aS'which'
p2374
aS'of'
p2375
aS'course'
p2376
aS'came'
p2377
aS'back'
p2378
aS'reporting'
p2379
aS'no'
p2380
aS'trouble'
p2381
aS'with'
p2382
aS'the'
p2383
aS'computer.'
p2384
ag47
tp2385
a((lp2386
S'The'
p2387
aS'tests'
p2388
aS'were'
p2389
aS'right.'
p2390
ag47
tp2391
a((lp2392
S'It'
p2393
aS"wasn't"
p2394
aS'the'
p2395
aS'computer'
p2396
ag364
aS'it'
p2397
aS'was'
p2398
aS'Norton'
p2399
aS'Internet'
p2400
aS'Security'
p2401
aS'2004'
p2402
aS'which'
p2403
aS'is'
p2404
aS'the'
p2405
aS'culprit!!'
p2406
ag47
tp2407
a((lp2408
S'Norton'
p2409
aS'support'
p2410
aS'is'
p2411
aS'completely'
p2412
aS'pathetic.'
p2413
ag27
tp2414
a((lp2415
S'We'
p2416
aS'were'
p2417
aS'so'
p2418
aS'fed'
p2419
aS'up'
p2420
aS'that'
p2421
aS'we'
p2422
aS'uninstalled'
p2423
aS'ALL'
p2424
aS'of'
p2425
aS'Norton'
p2426
aS'Internet/AV'
p2427
aS'2004'
p2428
aS'and'
p2429
aS'were'
p2430
aS'going'
p2431
aS'to'
p2432
aS'try'
p2433
aS'McAffee,'
p2434
aS'but'
p2435
ag266
aS'techie'
p2436
aS'friend'
p2437
aS'recommended'
p2438
aS'trying'
p2439
aS'Norton'
p2440
aS'SystemWorks'
p2441
aS'2005'
p2442
aS'first.'
p2443
ag47
tp2444
a((lp2445
S'We'
p2446
aS'were'
p2447
aS'leary'
p2448
aS'to'
p2449
aS'say'
p2450
aS'the'
p2451
aS'least,'
p2452
aS'but'
p2453
aS'decided'
p2454
aS'to'
p2455
aS'give'
p2456
aS'Norton'
p2457
aS'the'
p2458
aS'benefit'
p2459
aS'of'
p2460
aS'the'
p2461
aS'doubt.'
p2462
ag47
tp2463
a((lp2464
S"We'd"
p2465
aS'used'
p2466
aS'Norton'
p2467
aS'products'
p2468
aS'like'
p2469
aS'Internet'
p2470
aS'Security'
p2471
aS'2003'
p2472
aS'forever'
p2473
aS'with'
p2474
aS'only'
p2475
aS'rare'
p2476
aS'troubles.'
p2477
ag47
tp2478
a((lp2479
S'The'
p2480
aS'SystemWorks'
p2481
aS'2005'
p2482
aS'seems'
p2483
aS'to'
p2484
aS'be'
p2485
aS'working'
p2486
aS'GREAT!!'
p2487
ag47
tp2488
a((lp2489
S"We've"
p2490
aS'only'
p2491
aS'had'
p2492
aS'it'
p2493
ag103
aS'days,'
p2494
aS'but'
p2495
aS'so'
p2496
aS'far'
p2497
aS'so'
p2498
aS'good.'
p2499
aS'(WRONG'
p2500
ag364
aS'SEE'
p2501
aS'UPDATE'
p2502
aS'BELOW)'
p2503
ag47
tp2504
a((lp2505
g2
aS'hope'
p2506
aS"it's"
p2507
aS'better'
p2508
aS'than'
p2509
aS'this'
p2510
aS'hunk'
p2511
aS'of'
p2512
aS'junk'
p2513
aS'Internet/AV'
p2514
aS'2004'
p2515
aS'package.'
p2516
ag47
tp2517
a((lp2518
S'If'
p2519
aS'SystemWorks'
p2520
aS'2005'
p2521
aS'starts'
p2522
aS'to'
p2523
aS'act'
p2524
aS'up,'
p2525
aS"I'm"
p2526
aS'done'
p2527
aS'with'
p2528
aS'Norton'
p2529
aS'products'
p2530
aS'forever.'
p2531
ag47
tp2532
a((lp2533
S'But'
p2534
ag2
aS"don't"
p2535
aS'think'
p2536
aS'SystemWorks'
p2537
aS'2005'
p2538
aS'will'
p2539
aS'start'
p2540
aS'acting'
p2541
aS'up.'
p2542
ag47
tp2543
a((lp2544
S'72'
p2545
aS'hours'
p2546
aS'later'
p2547
aS'after'
p2548
aS'installing,'
p2549
aS'it'
p2550
aS'started'
p2551
aS'doing'
p2552
aS'the'
p2553
aS'exact'
p2554
aS'same'
p2555
aS'things!'
p2556
ag47
tp2557
a((lp2558
S'So,'
p2559
aS"we're"
p2560
aS'fed'
p2561
aS'up.'
p2562
ag47
tp2563
a((lp2564
S'DO'
p2565
aS'NOT'
p2566
aS'BUY'
p2567
aS'ANY'
p2568
aS'HOME'
p2569
aS'VERSION'
p2570
aS'OF'
p2571
aS'NORTON'
p2572
aS'ANYTHING.'
p2573
ag27
tp2574
a((lp2575
S'We'
p2576
aS'were'
p2577
aS'able'
p2578
aS'to'
p2579
aS'obtain'
p2580
ag266
aS'Norton'
p2581
aS'Corporate'
p2582
aS'Edition'
p2583
aS'of'
p2584
aS'Antivirus'
p2585
aS'only'
p2586
aS'(no'
p2587
aS'firewall'
p2588
aS'or'
p2589
aS'utilities)'
p2590
aS'and'
p2591
aS'so'
p2592
aS'far'
p2593
aS"it's"
p2594
aS'great.'
p2595
ag88
tp2596
a((lp2597
S"I've"
p2598
aS'used'
p2599
aS'the'
p2600
aS'Corporate'
p2601
aS'edition'
p2602
aS'at'
p2603
aS'work'
p2604
aS'without'
p2605
aS'any'
p2606
aS'problems'
p2607
aS'ever.'
p2608
ag88
tp2609
a((lp2610
S'Unfortunately,'
p2611
aS'you'
p2612
aS"can't"
p2613
aS'buy'
p2614
aS'the'
p2615
aS'corporate'
p2616
aS'edition'
p2617
aS'over'
p2618
aS'the'
p2619
aS'counter.'
p2620
ag47
tp2621
a((lp2622
S'If'
p2623
aS'we'
p2624
aS'had'
p2625
aS'been'
p2626
aS'unable'
p2627
aS'to'
p2628
aS'obtain'
p2629
aS'the'
p2630
aS'Corporate'
p2631
aS'edition,'
p2632
aS'we'
p2633
aS'would'
p2634
aS'NOT'
p2635
aS'have'
p2636
aS'purchased'
p2637
aS'another'
p2638
aS'Norton'
p2639
aS'2004'
p2640
aS'or'
p2641
aS'2005'
p2642
aS'home'
p2643
aS'version'
p2644
aS'anything.'
p2645
ag47
tp2646
a((lp2647
S"We'd"
p2648
aS'have'
p2649
aS'probably'
p2650
aS'tried'
p2651
aS'McAffee,'
p2652
aS'but'
p2653
ag2
aS'hear'
p2654
aS'from'
p2655
aS'reviews'
p2656
aS'that'
p2657
aS'it'
p2658
aS'has'
p2659
aS'troubles'
p2660
aS'too.'
p2661
ag47
tp2662
a((lp2663
S'HMMMM..'
p2664
aS'Good'
p2665
aS'luck.'
p2666
ag47
tp2667
a((lp2668
S'Our'
p2669
aS'Norton'
p2670
aS'Internet/AV'
p2671
aS'2004'
p2672
aS'was'
p2673
aS'terrible'
p2674
aS'right'
p2675
aS'from'
p2676
aS'the'
p2677
aS'get'
p2678
aS'go,'
p2679
aS'so'
p2680
aS"I'd"
p2681
aS'think'
p2682
aS'that'
p2683
aS'if'
p2684
aS'SytemWorks'
p2685
aS'is'
p2686
aS'ok'
p2687
aS'now,'
p2688
aS'it'
p2689
aS'should'
p2690
aS'remain'
p2691
aS'ok.'
p2692
ag27
tp2693
a((lp2694
S"I'll"
p2695
aS'update'
p2696
aS'my'
p2697
aS'review'
p2698
aS'if'
p2699
ag2
aS'find'
p2700
aS'out'
p2701
aS'otherwise.'
p2702
ag47
tp2703
a((lp2704
S'WRONG'
p2705
ag364
aS'SEE'
p2706
aS'MY'
p2707
aS'UPDATE'
p2708
aS'ABOVE.'
p2709
ag47
tp2710
a((lp2711
S'By'
p2712
aS'the'
p2713
aS'way,'
p2714
ag2
aS'use'
p2715
aS'the'
p2716
aS'Norton'
p2717
aS'2003'
p2718
aS'Corporate'
p2719
aS'at'
p2720
aS'work'
p2721
aS'with'
p2722
aS'absolutely'
p2723
aS'no'
p2724
aS'trouble.'
p2725
ag88
tp2726
a((lp2727
S'Likewise,'
p2728
aS"I've"
p2729
aS'heard'
p2730
aS'Norton'
p2731
aS'2004'
p2732
aS'PROFESSIONAL'
p2733
aS'version'
p2734
aS'is'
p2735
aS'fine'
p2736
aS'too.'
p2737
ag88
tp2738
a((lp2739
S'Just'
p2740
aS'the'
p2741
aS'home'
p2742
aS'version'
p2743
aS'of'
p2744
aS'Norton'
p2745
aS'Internet/AV'
p2746
aS'has'
p2747
aS'too'
p2748
aS'many'
p2749
aS'glitches'
p2750
aS'and'
p2751
aS'problems'
p2752
aS'to'
p2753
aS'even'
p2754
aS'remotely'
p2755
aS'bother'
p2756
aS'with.'
p2757
ag27
tp2758
a((lp2759
S'Trust'
p2760
aS'me'
p2761
aS'and'
p2762
aS'all'
p2763
aS'the'
p2764
aS'other'
p2765
aS'reviews'
p2766
aS'on'
p2767
aS'this'
p2768
aS'one.'
p2769
ag47
tp2770
a((lp2771
g2
aS'have'
p2772
aS'always'
p2773
aS'sworn'
p2774
aS'by'
p2775
aS'Norton'
p2776
aS'Anti-Virus'
p2777
aS'and'
p2778
aS'SystemWorks'
p2779
aS'products,'
p2780
aS'and'
p2781
aS'have'
p2782
aS'used'
p2783
aS'them'
p2784
aS'both'
p2785
aS'for'
p2786
aS'years.'
p2787
ag47
tp2788
a((lp2789
S'So'
p2790
ag2
aS'expected'
p2791
aS'the'
p2792
aS'same'
p2793
aS'level'
p2794
aS'of'
p2795
aS'quality'
p2796
aS'and'
p2797
aS'ease'
p2798
aS'of'
p2799
aS'use'
p2800
aS'with'
p2801
aS'their'
p2802
aS'Internet'
p2803
aS'Security'
p2804
aS'program.'
p2805
ag47
tp2806
a((lp2807
g2
aS'am'
p2808
aS'an'
p2809
aS'advanced'
p2810
aS'computer'
p2811
aS'user,'
p2812
aS'so'
p2813
ag2
aS'cannot'
p2814
aS'even'
p2815
aS'imagine'
p2816
aS'how'
p2817
ag266
aS'new'
p2818
aS'or'
p2819
aS'novice'
p2820
aS'user'
p2821
aS'would'
p2822
aS'ever'
p2823
aS'get'
p2824
aS'this'
p2825
aS'terrible'
p2826
aS'program'
p2827
aS'to'
p2828
aS'work!'
p2829
ag27
tp2830
a((lp2831
S'After'
p2832
aS'installing,'
p2833
aS'the'
p2834
aS'system'
p2835
aS'froze'
p2836
aS'trying'
p2837
aS'to'
p2838
aS'restart'
p2839
aS'(this'
p2840
aS'is'
p2841
ag266
aS'new'
p2842
aS'computer'
p2843
aS'with'
p2844
aS'Windows'
p2845
aS'XP'
p2846
aS'Home).'
p2847
ag47
tp2848
a((lp2849
S'After'
p2850
aS'finally'
p2851
aS'restarting,'
p2852
aS'the'
p2853
aS'"automatic'
p2854
aS'updates"'
p2855
aS'ran.'
p2856
ag47
tp2857
a((lp2858
S'When'
p2859
aS'all'
p2860
aS'was'
p2861
aS'said'
p2862
aS'and'
p2863
aS'done,'
p2864
ag2
aS"couldn't"
p2865
aS'even'
p2866
aS'use'
p2867
aS'Microsoft'
p2868
aS'Outlook.'
p2869
ag47
tp2870
a((lp2871
S'Seems'
p2872
aS'the'
p2873
aS'"program'
p2874
aS'scan"'
p2875
aS'feature'
p2876
aS'did'
p2877
aS'NOT'
p2878
aS'find'
p2879
aS'the'
p2880
aS'EXE'
p2881
aS'file'
p2882
aS'for'
p2883
aS'Outlook!'
p2884
ag27
tp2885
a((lp2886
S'It'
p2887
aS'did'
p2888
aS'find'
p2889
aS'Outlook'
p2890
aS'Express,'
p2891
aS'but'
p2892
aS"that's"
p2893
aS'not'
p2894
aS'what'
p2895
ag2
aS'use.'
p2896
ag47
tp2897
a((lp2898
S'Before'
p2899
ag2
aS'managed'
p2900
aS'to'
p2901
aS'manually'
p2902
aS'add'
p2903
aS'the'
p2904
aS'program'
p2905
aS'file,'
p2906
ag2
aS'contacted'
p2907
aS'Symantec'
p2908
aS'support.'
p2909
ag47
tp2910
a((lp2911
S'Like'
p2912
aS'most'
p2913
aS'of'
p2914
aS'their'
p2915
aS'solutions'
p2916
aS'(which'
p2917
aS'first'
p2918
aS'blame'
p2919
aS'other'
p2920
aS'applications'
p2921
aS'for'
p2922
aS'errors),'
p2923
aS'the'
p2924
aS'tech'
p2925
aS'persons'
p2926
aS'line'
p2927
aS'was'
p2928
aS'that'
p2929
aS'this'
p2930
aS'was'
p2931
aS'probably'
p2932
ag266
aS'Microsoft'
p2933
aS'error'
p2934
ag364
aS'it'
p2935
aS'was'
p2936
aS'NOT.'
p2937
ag27
tp2938
a((lp2939
S'It'
p2940
aS'was'
p2941
ag266
aS'Symantec'
p2942
aS'error.'
p2943
ag27
tp2944
a((lp2945
S'After'
p2946
ag266
aS'recent'
p2947
aS'update,'
p2948
ag2
aS'can'
p2949
aS'no'
p2950
aS'longer'
p2951
aS'open'
p2952
aS'more'
p2953
aS'then'
p2954
ag213
aS'browser'
p2955
aS'window.'
p2956
ag27
tp2957
a((lp2958
S"I've"
p2959
aS'searched'
p2960
aS'the'
p2961
aS'program'
p2962
aS'and'
p2963
aS'their'
p2964
aS'online'
p2965
aS'tech'
p2966
aS'support'
p2967
aS'(worthless)'
p2968
aS'and'
p2969
aS'have'
p2970
aS'found'
p2971
aS'no'
p2972
aS'solutions.'
p2973
ag27
tp2974
a((lp2975
S'Again,'
p2976
ag2
aS'tried'
p2977
aS'online'
p2978
aS'email'
p2979
aS'support.'
p2980
ag47
tp2981
a((lp2982
S'They'
p2983
aS'gave'
p2984
aS'me'
p2985
ag266
aS'ridiculous'
p2986
aS'set'
p2987
aS'of'
p2988
aS'steps'
p2989
aS'which'
p2990
aS'included'
p2991
aS'emailing'
p2992
aS'them'
p2993
aS'screen'
p2994
aS'prints'
p2995
aS'as'
p2996
aS'PDF'
p2997
aS'files!'
p2998
ag47
tp2999
a((lp3000
g2
aS'use'
p3001
aS'the'
p3002
aS'program'
p3003
aS'like'
p3004
aS'most'
p3005
aS'other'
p3006
aS'people'
p3007
ag364
aS'in'
p3008
aS'DISABLED'
p3009
aS'mode.'
p3010
ag47
tp3011
a((lp3012
S'Eventually'
p3013
ag2
aS'will'
p3014
aS'uninstall'
p3015
aS'this'
p3016
aS'troublesome'
p3017
aS'bug-filled'
p3018
aS'program.'
p3019
ag47
tp3020
a((lp3021
S'Maybe'
p3022
aS"it's"
p3023
aS'time'
p3024
aS'to'
p3025
aS'explore'
p3026
aS'McAfee'
p3027
aS'products'
p3028
aS'again...'
p3029
ag47
tp3030
a((lp3031
S'Before'
p3032
aS'installing'
p3033
aS'anything'
p3034
aS'on'
p3035
aS'your'
p3036
aS'computer,'
p3037
aS'you'
p3038
aS'need'
p3039
aS'to'
p3040
aS'do'
p3041
ag266
aS'bit'
p3042
aS'of'
p3043
aS'research'
p3044
aS'before'
p3045
aS'spending'
p3046
aS'the'
p3047
aS'money.'
p3048
ag47
tp3049
a((lp3050
S'This'
p3051
aS'is'
p3052
aS'definitely'
p3053
aS'one'
p3054
aS'of'
p3055
aS'those'
p3056
aS'products,'
p3057
aS'especially'
p3058
aS'as'
p3059
aS'the'
p3060
aS'company'
p3061
aS'is'
p3062
aS'leaning'
p3063
aS'more'
p3064
aS'towards'
p3065
aS'making'
p3066
ag266
aS'profit.'
p3067
ag27
tp3068
a((lp3069
g2
aS'recommended'
p3070
aS'this'
p3071
aS'for'
p3072
aS'my'
p3073
aS'father'
p3074
aS'based'
p3075
aS'on'
p3076
aS'my'
p3077
aS'experience'
p3078
aS'with'
p3079
aS'previous'
p3080
aS'versions.'
p3081
ag47
tp3082
a((lp3083
g2
aS'wish'
p3084
aS"I'd"
p3085
aS'done'
p3086
aS'some'
p3087
aS'research'
p3088
aS'first....'
p3089
ag47
tp3090
a((lp3091
S"I've"
p3092
aS'been'
p3093
aS'using'
p3094
aS'NIS'
p3095
aS'2004'
p3096
aS'for'
p3097
aS'about'
p3098
ag103
aS'months'
p3099
aS'and'
p3100
aS'it'
p3101
aS'works'
p3102
aS'well.'
p3103
ag88
tp3104
a((lp3105
S'Some'
p3106
aS'of'
p3107
aS'the'
p3108
aS'options'
p3109
aS'are'
p3110
aS'confusing,'
p3111
aS'especially'
p3112
aS'when'
p3113
aS'the'
p3114
aS'popup'
p3115
aS'warnings'
p3116
aS'occur,'
p3117
aS'but'
p3118
aS"I've"
p3119
aS'had'
p3120
aS'no'
p3121
aS'problems'
p3122
aS'with'
p3123
aS'intrusions.'
p3124
ag47
tp3125
a((lp3126
S'Norton'
p3127
aS'pops'
p3128
aS'up'
p3129
ag266
aS'window'
p3130
aS'about'
p3131
aS'the'
p3132
aS'intrusions'
p3133
aS'and'
p3134
aS'gives'
p3135
aS'me'
p3136
aS'as'
p3137
aS'much'
p3138
aS'detail'
p3139
aS'as'
p3140
aS'possible'
p3141
aS'about'
p3142
aS'where'
p3143
aS'the'
p3144
aS'intrusion'
p3145
aS'is'
p3146
aS'coming'
p3147
aS'from.'
p3148
ag88
tp3149
a((lp3150
S'The'
p3151
aS'popup'
p3152
aS'blocker'
p3153
aS'and'
p3154
aS'anti-spam'
p3155
aS'are'
p3156
aS'bonuses.'
p3157
ag88
tp3158
a((lp3159
S'Product'
p3160
aS'is'
p3161
aS'OK;'
p3162
aS'however,'
p3163
aS'despite'
p3164
aS'the'
p3165
aS'fact'
p3166
aS'that'
p3167
ag2
aS'followed'
p3168
aS'the'
p3169
aS'rebate'
p3170
aS'instructions'
p3171
aS'explicitly,'
p3172
ag2
aS'am'
p3173
aS'being'
p3174
aS'denied'
p3175
aS'the'
p3176
aS'rebate'
p3177
aS'because'
p3178
aS'the'
p3179
aS'processing'
p3180
aS'agency'
p3181
aS'incorrectly'
p3182
aS'claims'
p3183
ag2
aS'did'
p3184
aS'not'
p3185
aS'send'
p3186
aS'in'
p3187
aS'proof'
p3188
aS'of'
p3189
aS'ownership'
p3190
aS'of'
p3191
ag266
aS'previous'
p3192
aS'product.'
p3193
ag47
tp3194
a((lp3195
S'Not'
p3196
aS'much'
p3197
aS'recourse'
p3198
aS'for'
p3199
aS'the'
p3200
aS'consumer'
p3201
aS'in'
p3202
aS'these'
p3203
aS'cases.'
p3204
ag47
tp3205
a((lp3206
g2
aS"didn't"
p3207
aS'have'
p3208
aS'any'
p3209
aS'major'
p3210
aS'problems'
p3211
aS'installing'
p3212
aS'this'
p3213
aS'software.'
p3214
ag88
tp3215
a((lp3216
S'The'
p3217
aS'only'
p3218
aS'problem'
p3219
ag2
aS'had'
p3220
aS'was'
p3221
ag266
aS'few'
p3222
aS'components'
p3223
aS"didn't"
p3224
aS'quite'
p3225
aS'load'
p3226
aS'correctly'
p3227
aS'upon'
p3228
aS'startup,'
p3229
aS'but'
p3230
ag266
aS'reboot'
p3231
aS'fixed'
p3232
aS'the'
p3233
aS'problem.'
p3234
ag27
tp3235
a((lp3236
g2
aS'had'
p3237
aS'NIS'
p3238
aS'2003'
p3239
aS'and'
p3240
aS'was'
p3241
aS'very'
p3242
aS'happy'
p3243
aS'with'
p3244
aS'it;'
p3245
aS'this'
p3246
aS'new'
p3247
aS'version'
p3248
aS'really'
p3249
aS"doesn't"
p3250
aS'seem'
p3251
aS'to'
p3252
aS'offer'
p3253
ag266
aS'lot'
p3254
aS'of'
p3255
aS'exciting'
p3256
aS'new'
p3257
aS'features,'
p3258
aS'seems'
p3259
aS'merely'
p3260
aS'the'
p3261
aS'same'
p3262
aS'as'
p3263
aS'2003'
p3264
aS'dressed-up'
p3265
aS'to'
p3266
aS'look'
p3267
aS'like'
p3268
ag266
aS'new'
p3269
aS'version.'
p3270
ag47
tp3271
a((lp3272
S'Anyhow,'
p3273
aS'this'
p3274
aS'software'
p3275
aS'is'
p3276
aS'working'
p3277
aS'fine'
p3278
aS'and'
p3279
aS'no'
p3280
aS'problems'
p3281
aS'since'
p3282
ag2
aS'installed'
p3283
aS'it'
p3284
aS'two'
p3285
aS'weeks'
p3286
aS'ago.'
p3287
ag88
tp3288
a((lp3289
g2
aS'give'
p3290
aS'it'
p3291
aS'4-stars'
p3292
aS'only'
p3293
aS'because'
p3294
aS'the'
p3295
aS'installation'
p3296
aS'process'
p3297
ag364
aS'or'
p3298
aS'rather'
p3299
aS'problems'
p3300
aS'that'
p3301
aS'may'
p3302
aS'surface'
p3303
aS'during'
p3304
aS'the'
p3305
aS'installation'
p3306
aS'process'
p3307
ag364
aS'can'
p3308
aS'be'
p3309
aS'frustrating'
p3310
aS'to'
p3311
aS'the'
p3312
aS'average'
p3313
aS'computer'
p3314
aS'user.'
p3315
ag27
tp3316
a((lp3317
S'If'
p3318
aS'you'
p3319
aS'experience'
p3320
aS'problems'
p3321
aS'with'
p3322
aS'installation,'
p3323
aS'you'
p3324
aS'can'
p3325
aS'visit'
p3326
aS"symantec's"
p3327
aS'website,'
p3328
aS'click'
p3329
aS'the'
p3330
aS'support'
p3331
aS'tab,'
p3332
aS'click'
p3333
aS'the'
p3334
aS"'home"
p3335
aS'or'
p3336
aS'home'
p3337
aS'office'
p3338
aS"support'"
p3339
aS'and'
p3340
aS'there'
p3341
aS'is'
p3342
aS'an'
p3343
aS'automated'
p3344
aS'support'
p3345
aS'assistant'
p3346
aS'that'
p3347
aS'can'
p3348
aS'scan'
p3349
aS'the'
p3350
aS'Norton'
p3351
aS'program'
p3352
aS'files'
p3353
aS'on'
p3354
aS'your'
p3355
aS'computer'
p3356
aS'and'
p3357
aS'it'
p3358
aS'will'
p3359
aS'tell'
p3360
aS'you'
p3361
aS'what'
p3362
aS'is'
p3363
aS'not'
p3364
aS'working'
p3365
aS'right'
p3366
aS'and'
p3367
aS'how'
p3368
aS'to'
p3369
aS'fix'
p3370
aS'it.'
p3371
ag27
tp3372
a((lp3373
S"Can't"
p3374
aS'get'
p3375
aS'easier'
p3376
aS'than'
p3377
aS'that!'
p3378
ag27
tp3379
a((lp3380
S'Avoid'
p3381
aS'like'
p3382
aS'the'
p3383
aS'plague.'
p3384
ag47
tp3385
a((lp3386
g2
aS'already'
p3387
aS'knew'
p3388
aS'something'
p3389
aS'was'
p3390
aS'wrong,'
p3391
aS'because'
p3392
aS'much'
p3393
aS'of'
p3394
aS'the'
p3395
aS'Spam'
p3396
aS"I've"
p3397
aS'seen'
p3398
aS'in'
p3399
aS'the'
p3400
aS'past'
p3401
aS'six'
p3402
aS'months'
p3403
aS'was'
p3404
aS'from'
p3405
aS'resellers'
p3406
aS'of'
p3407
aS'Norton'
p3408
aS'products.'
p3409
ag27
tp3410
a((lp3411
S'For'
p3412
aS'Norton'
p3413
aS'to'
p3414
aS'encourage'
p3415
aS'Spammers'
p3416
aS'by'
p3417
aS'letting'
p3418
aS'them'
p3419
aS'sell'
p3420
aS'their'
p3421
aS'products'
p3422
aS'is'
p3423
ag266
aS'very'
p3424
aS'bad'
p3425
aS'sign.'
p3426
ag47
tp3427
a((lp3428
S'Well,'
p3429
ag2
aS'must'
p3430
aS'be'
p3431
aS'one'
p3432
aS'of'
p3433
aS'the'
p3434
aS'few'
p3435
aS'fortunate'
p3436
aS'ones'
p3437
aS'on'
p3438
aS'here.'
p3439
ag47
tp3440
a((lp3441
S'Mine'
p3442
aS'installed'
p3443
aS'no'
p3444
aS'problem'
p3445
aS'(but'
p3446
ag2
aS'DID'
p3447
aS'uninstall'
p3448
aS'my'
p3449
aS'Norton'
p3450
aS'Anti-Virus'
p3451
aS'2002'
p3452
aS'&'
p3453
aS'Personal'
p3454
aS'Firewall'
p3455
aS'2002'
p3456
aS'first).'
p3457
ag88
tp3458
a((lp3459
S'Seems'
p3460
aS'to'
p3461
aS'work'
p3462
aS'great.'
p3463
ag88
tp3464
a((lp3465
S'Sorry'
p3466
aS'to'
p3467
aS'hear'
p3468
aS'about'
p3469
aS'all'
p3470
aS'the'
p3471
aS'other'
p3472
aS"folk's"
p3473
aS'problems....makes'
p3474
aS'me'
p3475
aS'wonder'
p3476
aS'why'
p3477
aS"I'm"
p3478
aS'NOT'
p3479
aS'having'
p3480
aS'any'
p3481
aS"(I'm"
p3482
aS'running'
p3483
aS'Win'
p3484
aS'XP'
p3485
aS'as'
p3486
aS'well).'
p3487
ag47
tp3488
a((lp3489
g2
aS'had'
p3490
aS'Norton'
p3491
aS'Internet'
p3492
aS'Security'
p3493
aS'2003'
p3494
aS'and'
p3495
aS'it'
p3496
aS'worked'
p3497
aS'great...one'
p3498
aS'of'
p3499
aS'the'
p3500
aS'features'
p3501
aS'that'
p3502
ag2
aS'liked'
p3503
aS'was'
p3504
aS'the'
p3505
aS'user'
p3506
aS'interface'
p3507
aS'as'
p3508
aS'well'
p3509
aS'as'
p3510
aS'the'
p3511
aS'ad/pop-up'
p3512
aS'blocking'
p3513
aS'feature'
p3514
aS'along'
p3515
aS'w/the'
p3516
aS'logs'
p3517
aS'on'
p3518
aS'internet'
p3519
aS'usage.'
p3520
ag47
tp3521
a((lp3522
g2
aS'read'
p3523
aS'many'
p3524
aS'reviews'
p3525
aS'on'
p3526
aS'Norton'
p3527
aS'I.S.'
p3528
aS'2004'
p3529
aS'from'
p3530
ag266
aS'variety'
p3531
aS'of'
p3532
aS'sources'
p3533
aS'(Cnet,'
p3534
aS'Amazon,'
p3535
aS'message'
p3536
aS'boards)'
p3537
aS'and'
p3538
aS'came'
p3539
aS'to'
p3540
aS'the'
p3541
aS'conclusion'
p3542
aS'that'
p3543
aS'NIS'
p3544
aS'04'
p3545
aS'was'
p3546
ag266
aS'terrible'
p3547
aS'product'
p3548
aS'and'
p3549
aS'not'
p3550
aS'worth'
p3551
aS'the'
p3552
aS'update.'
p3553
ag27
tp3554
a((lp3555
S'In'
p3556
aS'January'
p3557
aS'of'
p3558
aS'2004,'
p3559
ag2
aS'renewed'
p3560
aS'my'
p3561
aS'subscription'
p3562
aS'service'
p3563
aS'for'
p3564
aS'NIS'
p3565
aS'2003'
p3566
aS'but'
p3567
aS'on'
p3568
aS'Jan'
p3569
aS'7,'
p3570
aS'everything'
p3571
aS'changed.'
p3572
ag47
tp3573
a((lp3574
S'There'
p3575
aS'was'
p3576
ag266
aS'Verisign'
p3577
aS'problem'
p3578
aS'that'
p3579
aS'conflicted'
p3580
aS'w/Word'
p3581
aS'and'
p3582
aS'Excel'
p3583
aS'and'
p3584
aS'was'
p3585
aS'posted'
p3586
aS'on'
p3587
aS'the'
p3588
aS'Symantec'
p3589
aS'site'
p3590
aS'that'
p3591
aS'affected'
p3592
aS'computers.'
p3593
ag47
tp3594
a((lp3595
S'The'
p3596
aS'Symantec'
p3597
aS'site'
p3598
aS'said'
p3599
aS'it'
p3600
aS"didn't"
p3601
aS'affect'
p3602
aS'NIS'
p3603
aS'but'
p3604
ag2
aS'believe'
p3605
aS'it'
p3606
aS'did.'
p3607
ag47
tp3608
a((lp3609
g2
aS'also'
p3610
aS'believe'
p3611
aS'that'
p3612
aS'when'
p3613
ag2
aS'renewed'
p3614
aS'my'
p3615
aS'subscription'
p3616
aS'service'
p3617
aS'that'
p3618
aS'Symantec'
p3619
aS'uploaded'
p3620
aS'the'
p3621
aS'NIS'
p3622
aS'2004'
p3623
aS'patch.'
p3624
ag47
tp3625
a((lp3626
S'All'
p3627
aS'of'
p3628
ag266
aS'sudden'
p3629
aS'everything'
p3630
aS'that'
p3631
aS'reviewers'
p3632
aS'were'
p3633
aS'writing'
p3634
aS'about'
p3635
aS'NIS'
p3636
aS'2004'
p3637
aS'was'
p3638
aS'happening'
p3639
aS'to'
p3640
aS'my'
p3641
aS'computer.'
p3642
ag47
tp3643
a((lp3644
S'Booting'
p3645
aS'up'
p3646
aS'my'
p3647
aS'computer'
p3648
aS'took'
p3649
aS'forever!!!'
p3650
ag27
tp3651
a((lp3652
S'Then,'
p3653
aS'my'
p3654
aS'ad/pop-up'
p3655
aS'blocking'
p3656
aS'was'
p3657
aS'completely'
p3658
aS'gone.'
p3659
ag27
tp3660
a((lp3661
S'My'
p3662
aS'file'
p3663
aS'log'
p3664
aS'was'
p3665
aS'not'
p3666
aS'responding'
p3667
aS'and'
p3668
aS'the'
p3669
aS'program'
p3670
aS'was'
p3671
aS'not'
p3672
aS'blocking'
p3673
aS'any'
p3674
aS'cookies'
p3675
aS'or'
p3676
aS'unauthorized'
p3677
aS'sites.'
p3678
ag27
tp3679
a((lp3680
S'After'
p3681
aS'extensive'
p3682
aS'researching'
p3683
aS'on'
p3684
aS'the'
p3685
aS'Symantec'
p3686
aS'site'
p3687
ag2
aS'broke'
p3688
aS'down'
p3689
aS'and'
p3690
aS'called'
p3691
aS'Symantec.'
p3692
ag47
tp3693
a((lp3694
S'Again,'
p3695
aS'every'
p3696
aS'review'
p3697
aS'written'
p3698
aS'about'
p3699
aS'the'
p3700
aS'Tech'
p3701
aS'Line'
p3702
aS'is'
p3703
aS'true...after'
p3704
aS'waiting'
p3705
aS'close'
p3706
aS'to'
p3707
aS'45'
p3708
aS'minutes'
p3709
ag2
aS'finally'
p3710
aS'spoke'
p3711
aS'to'
p3712
ag266
aS'rep.'
p3713
ag27
tp3714
a((lp3715
g2
aS'had'
p3716
aS'to'
p3717
aS'pay'
p3718
aS'$29.95'
p3719
aS'just'
p3720
aS'to'
p3721
aS'go'
p3722
aS'any'
p3723
aS'further.'
p3724
ag47
tp3725
a((lp3726
S'After'
p3727
aS'telling'
p3728
aS'the'
p3729
aS'rep'
p3730
aS'and'
p3731
aS'his'
p3732
aS'tech'
p3733
aS'supervisor'
p3734
aS'the'
p3735
aS'problem'
p3736
aS'the'
p3737
aS'only'
p3738
aS'answer'
p3739
aS'was'
p3740
aS'to'
p3741
aS'uninstall'
p3742
aS'the'
p3743
aS'program'
p3744
aS'(which'
p3745
ag2
aS'had'
p3746
aS'already'
p3747
aS'done)...'
p3748
ag27
tp3749
a((lp3750
S'They'
p3751
aS'sent'
p3752
aS'me'
p3753
ag266
aS'link'
p3754
aS'to'
p3755
aS'their'
p3756
aS'website'
p3757
aS'to'
p3758
aS'follow'
p3759
aS'instructions'
p3760
aS'on'
p3761
aS'ridding'
p3762
aS'my'
p3763
aS'registry'
p3764
aS'of'
p3765
aS'all'
p3766
aS'Symantec'
p3767
aS'products'
p3768
aS'so'
p3769
ag2
aS'could'
p3770
aS'get'
p3771
ag266
aS'clean'
p3772
aS're-install.'
p3773
ag47
tp3774
a((lp3775
S'They'
p3776
aS"didn't"
p3777
aS'know'
p3778
aS'what'
p3779
aS'the'
p3780
aS'problem'
p3781
aS'could'
p3782
aS'be.'
p3783
ag27
tp3784
a((lp3785
S'They'
p3786
aS'said'
p3787
aS'to'
p3788
aS'call'
p3789
aS'back'
p3790
aS'if'
p3791
aS'it'
p3792
aS'still'
p3793
aS"didn't"
p3794
aS'work'
p3795
aS'after'
p3796
aS'the'
p3797
aS'complete'
p3798
aS'uninstall.'
p3799
ag47
tp3800
a((lp3801
g2
aS'did'
p3802
aS'it'
p3803
aS'and'
p3804
aS'it'
p3805
aS'was'
p3806
aS'worse'
p3807
aS'the'
p3808
aS'second'
p3809
aS'time'
p3810
aS'around...unbelievable.'
p3811
ag27
tp3812
a((lp3813
g2
aS'gave'
p3814
aS'up.'
p3815
ag47
tp3816
a((lp3817
S'Basically,'
p3818
ag2
aS'ate'
p3819
aS'the'
p3820
aS'cost'
p3821
aS'of'
p3822
aS'the'
p3823
aS'renewal'
p3824
aS'and'
p3825
aS'ate'
p3826
aS'the'
p3827
aS'cost'
p3828
aS'of'
p3829
aS'the'
p3830
aS'Tech'
p3831
aS'Help.'
p3832
ag27
tp3833
a((lp3834
S'NIS'
p3835
aS'is'
p3836
ag266
aS'package'
p3837
aS'of'
p3838
aS'several'
p3839
aS'Norton'
p3840
aS'products.'
p3841
ag47
tp3842
a((lp3843
S'Unfortunately,'
p3844
aS'it'
p3845
aS'does'
p3846
aS'not'
p3847
aS'give'
p3848
aS'you'
p3849
aS'the'
p3850
aS'option'
p3851
aS'of'
p3852
aS'unstalling'
p3853
aS'(or'
p3854
aS'uninstalling)'
p3855
aS'them'
p3856
aS'individually.'
p3857
ag27
tp3858
a((lp3859
S'If'
p3860
aS'you'
p3861
aS'get'
p3862
aS'NIS'
p3863
aS'be'
p3864
aS'sure'
p3865
aS'you'
p3866
aS'want'
p3867
aS'ALL'
p3868
aS'of'
p3869
aS'them'
p3870
aS'installed'
p3871
aS'and'
p3872
aS'running'
p3873
aS'on'
p3874
aS'your'
p3875
aS'machine.'
p3876
ag47
tp3877
a((lp3878
S'You'
p3879
aS'can'
p3880
aS'"disable"'
p3881
aS'some'
p3882
aS'of'
p3883
aS'the'
p3884
aS'individual'
p3885
aS'components,'
p3886
aS'but'
p3887
aS"don't"
p3888
aS'be'
p3889
aS"fooled--they're"
p3890
aS'still'
p3891
aS'there'
p3892
aS'and'
p3893
aS'running.'
p3894
ag27
tp3895
a((lp3896
S'Although'
p3897
ag2
aS'disabled'
p3898
aS'Norton'
p3899
aS'AntiSpam,'
p3900
aS'it'
p3901
aS'is'
p3902
aS'still'
p3903
aS'there.'
p3904
ag27
tp3905
a((lp3906
S'Every'
p3907
aS'time'
p3908
ag2
aS'start'
p3909
aS'Eudora,'
p3910
ag266
aS'message'
p3911
aS'from'
p3912
aS'AntiSpam'
p3913
aS'pops'
p3914
aS'up'
p3915
aS'telling'
p3916
aS'me'
p3917
aS'that'
p3918
aS'COM'
p3919
aS'automation'
p3920
aS'needs'
p3921
aS'to'
p3922
aS'be'
p3923
aS'turned'
p3924
aS'on'
p3925
aS'for'
p3926
aS'it'
p3927
aS'to'
p3928
aS'run'
p3929
aS'properly.'
p3930
ag47
tp3931
a((lp3932
g2
aS'guess'
p3933
aS'the'
p3934
aS'possibility'
p3935
aS'that'
p3936
aS'someone'
p3937
aS'might'
p3938
aS'not'
p3939
aS'want'
p3940
aS'it'
p3941
aS'to'
p3942
aS'run'
p3943
aS'at'
p3944
aS'all'
p3945
aS'never'
p3946
aS'occured'
p3947
aS'to'
p3948
aS'the'
p3949
aS'designers.'
p3950
ag47
tp3951
a((lp3952
S'Just'
p3953
aS'to'
p3954
aS'try'
p3955
aS'to'
p3956
aS'shut'
p3957
aS'it'
p3958
aS'up,'
p3959
ag2
aS'told'
p3960
aS'it'
p3961
aS'to'
p3962
aS'go'
p3963
aS'ahead'
p3964
aS'and'
p3965
aS'turn'
p3966
aS'on'
p3967
aS'COM'
p3968
aS'automation.'
p3969
ag47
tp3970
a((lp3971
S'This'
p3972
aS'did'
p3973
aS'manage'
p3974
aS'to'
p3975
aS'cut'
p3976
aS'the'
p3977
aS'number'
p3978
aS'of'
p3979
aS'popups'
p3980
aS'during'
p3981
aS'start-up'
p3982
aS'from'
p3983
ag150
aS'down'
p3984
aS'to'
p3985
aS'2.'
p3986
ag88
tp3987
a((lp3988
S'But'
p3989
aS'those'
p3990
ag103
aS'come'
p3991
aS'up'
p3992
aS'every'
p3993
aS'time.'
p3994
ag27
tp3995
a((lp3996
S'And'
p3997
aS'this'
p3998
aS'despite'
p3999
aS'the'
p4000
aS'fact'
p4001
aS'that'
p4002
aS"I'm"
p4003
aS'not'
p4004
aS'even'
p4005
aS'using'
p4006
aS'AntiSpam.'
p4007
ag47
tp4008
a((lp4009
S'Next,'
p4010
aS'the'
p4011
aS'big'
p4012
aS'reason'
p4013
aS'not'
p4014
aS'to'
p4015
aS'buy'
p4016
aS'ANY'
p4017
aS'Norton'
p4018
aS'product:'
p4019
aS'If'
p4020
aS"there's"
p4021
ag266
aS'problem'
p4022
aS'with'
p4023
aS'it,'
p4024
aS'Norton'
p4025
aS'charges'
p4026
aS'$30'
p4027
aS'to'
p4028
aS'even'
p4029
aS'tell'
p4030
aS'them'
p4031
aS'about'
p4032
aS'it.'
p4033
ag27
tp4034
a((lp4035
S'Sure'
p4036
aS'they'
p4037
aS'say'
p4038
aS'if'
p4039
aS"it's"
p4040
aS'their'
p4041
aS'fault'
p4042
aS'you'
p4043
aS"won't"
p4044
aS'get'
p4045
aS'charged,'
p4046
aS'but'
p4047
aS'THEY'
p4048
aS'are'
p4049
aS'the'
p4050
aS'ones'
p4051
aS'who'
p4052
aS'get'
p4053
aS'to'
p4054
aS'decide'
p4055
aS'whether'
p4056
aS"it's"
p4057
aS'their'
p4058
aS'fault.'
p4059
ag27
tp4060
a((lp4061
S'And'
p4062
aS'you'
p4063
aS'have'
p4064
aS'to'
p4065
aS'put'
p4066
aS'up'
p4067
aS'the'
p4068
aS'30'
p4069
aS'bucks'
p4070
aS'to'
p4071
aS'get'
p4072
aS'them'
p4073
aS'to'
p4074
aS'decide.'
p4075
ag47
tp4076
a((lp4077
S'Nice'
p4078
aS'little'
p4079
aS'racket'
p4080
aS"they've"
p4081
aS'got'
p4082
aS'there.'
p4083
ag47
tp4084
a((lp4085
g2
aS'bought'
p4086
aS'Norton'
p4087
aS'Internet'
p4088
aS'Security'
p4089
aS'years'
p4090
aS'ago'
p4091
aS'when'
p4092
aS'it'
p4093
aS'first'
p4094
aS'came'
p4095
aS'out.'
p4096
ag47
tp4097
a((lp4098
S'While'
p4099
aS'it'
p4100
aS"didn't"
p4101
aS'have'
p4102
aS'all'
p4103
aS'the'
p4104
aS'features'
p4105
ag2
aS'would'
p4106
aS'have'
p4107
aS'liked,'
p4108
aS'it'
p4109
aS'was'
p4110
aS'better'
p4111
aS'than'
p4112
aS'anything'
p4113
aS'else'
p4114
ag2
aS'could'
p4115
aS'find'
p4116
aS'at'
p4117
aS'the'
p4118
aS'time.'
p4119
ag88
tp4120
a((lp4121
S'The'
p4122
aS'problems'
p4123
ag2
aS'had'
p4124
aS'installing'
p4125
aS'Norton'
p4126
aS'extended'
p4127
aS'way'
p4128
aS'beyond'
p4129
aS'what'
p4130
aS'Symantec'
p4131
aS'should'
p4132
aS'reasonably'
p4133
aS'expect'
p4134
aS'the'
p4135
aS'public'
p4136
aS'to'
p4137
aS'deal'
p4138
aS'with.'
p4139
ag27
tp4140
a((lp4141
S'When'
p4142
ag2
aS'purchase'
p4143
aS'software,'
p4144
ag2
aS'NEVER'
p4145
aS'want'
p4146
aS'to'
p4147
aS'have'
p4148
aS'to'
p4149
aS'spend'
p4150
aS'hours'
p4151
aS'looking'
p4152
aS'up'
p4153
aS'solutions'
p4154
aS'to'
p4155
aS'my'
p4156
aS'install'
p4157
aS'problems'
p4158
aS'--'
p4159
aS'in'
p4160
aS'particular'
p4161
aS'solutions'
p4162
aS'that'
p4163
aS'involve'
p4164
aS'manually'
p4165
aS'setting'
p4166
aS'driver'
p4167
aS'preferences'
p4168
aS'or'
p4169
aS'editing'
p4170
aS'the'
p4171
aS'registry!'
p4172
ag27
tp4173
a((lp4174
S'This'
p4175
aS'is'
p4176
ag266
aS'very'
p4177
aS'full'
p4178
aS'featured'
p4179
aS'product.'
p4180
ag47
tp4181
a((lp4182
S'It'
p4183
aS'checks'
p4184
aS'every'
p4185
ag97
aS'minutes'
p4186
aS'for'
p4187
aS'virus'
p4188
aS'and'
p4189
aS'spam'
p4190
aS'definition'
p4191
aS'updates.'
p4192
ag47
tp4193
a((lp4194
S'Also,'
p4195
aS'with'
p4196
aS'one'
p4197
aS'click'
p4198
aS'you'
p4199
aS'can'
p4200
aS'help'
p4201
aS'train'
p4202
aS'your'
p4203
aS'spam'
p4204
aS'killer.'
p4205
ag88
tp4206
a((lp4207
S'And'
p4208
aS'the'
p4209
aS'firewall'
p4210
aS'came'
p4211
aS'with'
p4212
ag266
aS'wizard'
p4213
aS'which'
p4214
aS'made'
p4215
aS'it'
p4216
aS'effortless'
p4217
aS'to'
p4218
aS'configure'
p4219
aS'it'
p4220
aS'to'
p4221
aS'my'
p4222
aS'LAN.'
p4223
ag88
tp4224
a((lp4225
g2
aS'downloaded'
p4226
aS'this'
p4227
aS'set'
p4228
aS'from'
p4229
aS'Norton,'
p4230
aS'and'
p4231
aS'within'
p4232
aS'minutes'
p4233
aS'my'
p4234
aS'Internet'
p4235
aS'connection'
p4236
aS'failed'
p4237
aS'and'
p4238
aS'my'
p4239
aS'PC'
p4240
aS'was'
p4241
aS'almost'
p4242
aS'dead'
p4243
aS'due'
p4244
aS'to'
p4245
aS'registry'
p4246
aS'problems'
p4247
aS'from'
p4248
aS'the'
p4249
aS'download.'
p4250
ag27
tp4251
a((lp4252
g2
aS'was'
p4253
aS'forced'
p4254
aS'to'
p4255
aS're-format'
p4256
aS'the'
p4257
aS'next'
p4258
aS'day'
p4259
aS'due'
p4260
aS'to'
p4261
aS'extensive'
p4262
aS'incapatability'
p4263
aS'issues.'
p4264
ag47
tp4265
a((lp4266
g2
aS'lost'
p4267
aS'all'
p4268
aS'my'
p4269
aS'personal'
p4270
aS'info.'
p4271
ag47
tp4272
a((lp4273
S'Their'
p4274
aS'site'
p4275
aS'offers'
p4276
aS'no'
p4277
aS'live'
p4278
aS'help'
p4279
aS'at'
p4280
aS'all.'
p4281
ag27
tp4282
a((lp4283
g2
aS'tried'
p4284
aS'to'
p4285
aS'call'
p4286
aS'Norton,'
p4287
aS'and'
p4288
aS'the'
p4289
aS'only'
p4290
aS'numbers'
p4291
aS'they'
p4292
aS'list'
p4293
aS'on'
p4294
aS'their'
p4295
aS'sites'
p4296
aS'are'
p4297
aS'either'
p4298
aS'for'
p4299
aS'Non-tech'
p4300
aS'Customer'
p4301
aS'Service'
p4302
aS'(tried'
p4303
aS'this'
p4304
aS'one'
p4305
aS'and'
p4306
aS'hung'
p4307
aS'up'
p4308
aS'after'
p4309
aS'75'
p4310
aS'minute'
p4311
aS'of'
p4312
aS'MUZAC)'
p4313
aS'or'
p4314
aS'they'
p4315
aS'have'
p4316
ag266
aS'$30'
p4317
aS'tech-support'
p4318
aS'number.'
p4319
ag27
tp4320
a((lp4321
S'Who'
p4322
aS'wants'
p4323
aS'to'
p4324
aS'pay'
p4325
aS'$30'
p4326
aS'to'
p4327
aS'discuss'
p4328
ag266
aS'defect'
p4329
aS'in'
p4330
ag266
aS'product'
p4331
aS'that'
p4332
aS'just'
p4333
aS'cost'
p4334
aS'$95?'
p4335
aS'(I'
p4336
aS'also'
p4337
aS'bought'
p4338
aS'the'
p4339
aS'back-up'
p4340
aS'CD).'
p4341
ag27
tp4342
a((lp4343
g2
aS'finally'
p4344
aS'got'
p4345
ag266
aS'free'
p4346
aS'support'
p4347
aS'number'
p4348
aS'for'
p4349
aS'Norton'
p4350
aS'through'
p4351
aS'my'
p4352
aS'ISP'
p4353
aS'support'
p4354
aS'staff,'
p4355
aS'but'
p4356
aS'waited'
p4357
aS'an'
p4358
aS'hour'
p4359
aS'or'
p4360
aS'more'
p4361
aS'for'
p4362
ag266
aS'voice.'
p4363
ag27
tp4364
a((lp4365
S'They'
p4366
aS'said'
p4367
aS'they'
p4368
aS'would'
p4369
aS'refund'
p4370
aS'all'
p4371
aS'the'
p4372
aS'money,'
p4373
aS'but'
p4374
ag266
aS'month'
p4375
aS'later,'
p4376
aS'they'
p4377
aS'tell'
p4378
aS'me'
p4379
aS'now'
p4380
aS'the'
p4381
aS'back-up'
p4382
aS'disc'
p4383
aS'is'
p4384
aS'not'
p4385
aS'refundable'
p4386
aS'as'
p4387
aS'its'
p4388
aS'cost'
p4389
aS'is'
p4390
aS'purely'
p4391
aS'handling'
p4392
aS'and'
p4393
aS'shipping'
p4394
ag364
aS'$15'
p4395
aS'to'
p4396
aS'"handle"'
p4397
aS'and'
p4398
aS'ship'
p4399
ag266
aS'CD?'
p4400
aS'--and'
p4401
aS'they'
p4402
aS'have'
p4403
aS'been'
p4404
aS'indignant'
p4405
aS'and'
p4406
aS'combative'
p4407
aS'on'
p4408
aS'the'
p4409
aS'phone'
p4410
aS'and'
p4411
aS'in'
p4412
aS'emails.'
p4413
ag27
tp4414
a((lp4415
S'This'
p4416
aS'is'
p4417
ag266
aS'terrible'
p4418
aS'company'
p4419
aS'with'
p4420
ag266
aS'bad'
p4421
aS'product'
p4422
aS'and'
p4423
aS'awful'
p4424
aS'support.'
p4425
ag27
tp4426
a((lp4427
S'After'
p4428
aS'10'
p4429
aS'years,'
p4430
ag2
aS'now'
p4431
aS'downloaded'
p4432
aS"McCaffee's"
p4433
aS'product'
p4434
aS'after'
p4435
aS'calling'
p4436
aS'their'
p4437
aS'support....they'
p4438
aS'answered'
p4439
aS'quickly,'
p4440
aS'and'
p4441
aS'for'
p4442
aS'free,'
p4443
aS'and'
p4444
aS'were'
p4445
aS'very'
p4446
aS'helpful.'
p4447
ag27
tp4448
a((lp4449
S'No'
p4450
aS'problems'
p4451
aS'now,'
p4452
aS'just'
p4453
ag266
aS'sickly'
p4454
aS'disappointment'
p4455
aS'in'
p4456
aS'the'
p4457
aS'way'
p4458
aS'Norton'
p4459
aS'has'
p4460
aS'abandoned'
p4461
aS'thier'
p4462
aS'customers.'
p4463
ag27
tp4464
a((lp4465
g2
aS'see'
p4466
aS'many'
p4467
aS'other'
p4468
aS'reviews'
p4469
aS'that'
p4470
aS'say'
p4471
aS'the'
p4472
aS'same....stay'
p4473
aS'away'
p4474
aS'from'
p4475
aS'Norton,'
p4476
aS'they'
p4477
aS"don't"
p4478
aS'deserve'
p4479
aS'you,'
p4480
aS'or'
p4481
aS'anyone!'
p4482
ag27
tp4483
a((lp4484
g1165
aS'security'
p4485
aS'software'
p4486
aS'suite'
p4487
aS'with'
p4488
aS'lots'
p4489
aS'of'
p4490
aS'value'
p4491
ag47
tp4492
a((lp4493
S'While'
p4494
ag2
aS'understand'
p4495
aS'the'
p4496
aS'complaints'
p4497
aS'about'
p4498
aS"Symantec's"
p4499
aS'Norton'
p4500
aS'SystemWorks'
p4501
aS'software'
p4502
aS'suite'
p4503
aS'(which'
p4504
aS'are'
p4505
aS'totally'
p4506
aS'justified),'
p4507
aS'the'
p4508
aS'same'
p4509
aS"can't"
p4510
aS'be'
p4511
aS'said'
p4512
aS'for'
p4513
aS'Norton'
p4514
aS'Internet'
p4515
aS'Security.'
p4516
ag47
tp4517
a((lp4518
S"It's"
p4519
ag266
aS'highly'
p4520
aS'rated,'
p4521
aS'KICK'
p4522
aS'ASS'
p4523
aS'firewall'
p4524
aS'program'
p4525
aS"that's"
p4526
aS'bundled'
p4527
aS'with'
p4528
aS'the'
p4529
aS'venerable'
p4530
aS'Norton'
p4531
aS'AntiVirus,'
p4532
aS'plus'
p4533
aS'extras'
p4534
aS'(like'
p4535
aS'Norton'
p4536
aS'AntiSpam'
p4537
ag3453
aS'Norton'
p4538
aS'Parental'
p4539
aS'Control)'
p4540
aS'that'
p4541
aS'make'
p4542
aS'this'
p4543
aS'security'
p4544
aS'suite'
p4545
ag266
aS'must-have'
p4546
aS'for'
p4547
aS'people'
p4548
aS'who'
p4549
aS'have'
p4550
aS'broadband'
p4551
aS'internet'
p4552
aS'access.'
p4553
ag88
tp4554
a((lp4555
S'Detractors'
p4556
aS'should'
p4557
aS'spend'
p4558
aS'more'
p4559
aS'time'
p4560
aS'actually'
p4561
aS'customizing'
p4562
aS'the'
p4563
aS'program'
p4564
aS'to'
p4565
aS'meet'
p4566
aS'their'
p4567
aS'needs'
p4568
aS'instead'
p4569
aS'of'
p4570
aS'being'
p4571
aS'lazy'
p4572
ag3453
aS'complaining'
p4573
aS'just'
p4574
aS'for'
p4575
aS'the'
p4576
aS'hell'
p4577
aS'of'
p4578
aS'it.'
p4579
ag47
tp4580
a((lp4581
S'Once'
p4582
aS'you'
p4583
aS'set'
p4584
aS'it'
p4585
aS'up,'
p4586
aS'you'
p4587
aS'barely'
p4588
aS'even'
p4589
aS'notice'
p4590
aS"it's"
p4591
aS'even'
p4592
aS'there.'
p4593
ag47
tp4594
a((lp4595
S"I've"
p4596
aS'alway'
p4597
aS'liked'
p4598
aS'Symantec'
p4599
aS'products,'
p4600
aS'except'
p4601
aS'for'
p4602
aS'this'
p4603
aS'version'
p4604
aS'2004.'
p4605
ag27
tp4606
a((lp4607
S'If'
p4608
aS'you'
p4609
aS'are'
p4610
aS'already'
p4611
aS'using'
p4612
ag266
aS'previous'
p4613
aS'version'
p4614
aS'of'
p4615
aS'nortron'
p4616
aS'security'
p4617
aS'and'
p4618
aS'unistalled'
p4619
aS'it'
p4620
aS'to'
p4621
aS'install'
p4622
aS'the'
p4623
aS'new'
p4624
aS'version,'
p4625
aS'you'
p4626
aS'will'
p4627
aS'still'
p4628
aS'have'
p4629
aS'all'
p4630
aS'kind'
p4631
aS'of'
p4632
aS'problems'
p4633
aS'in'
p4634
aS'installing'
p4635
aS'the'
p4636
aS'new'
p4637
aS'version'
p4638
aS'on'
p4639
aS'your'
p4640
aS'system!'
p4641
ag27
tp4642
a((lp4643
S'It'
p4644
aS'seems'
p4645
aS'like'
p4646
aS'Symantec'
p4647
aS'did'
p4648
ag266
aS'lousy'
p4649
aS'job'
p4650
aS'on'
p4651
aS'this'
p4652
aS'version.'
p4653
ag47
tp4654
a((lp4655
S'Luckly,with'
p4656
ag169
aS'rebates'
p4657
aS'this'
p4658
aS'product'
p4659
aS'will'
p4660
aS'cost'
p4661
aS'me'
p4662
aS'nothing!'
p4663
aS'it'
p4664
aS'is'
p4665
aS'indeed'
p4666
aS'worth'
p4667
aS'nothing.'
p4668
ag88
tp4669
a((lp4670
S'To'
p4671
aS'install'
p4672
aS'that'
p4673
aS'version'
p4674
aS'you'
p4675
aS'have'
p4676
aS'to'
p4677
aS'uninstall'
p4678
aS'from'
p4679
aS'the'
p4680
aS'window'
p4681
aS'registery'
p4682
aS'anything'
p4683
aS'called'
p4684
aS'Symantec'
p4685
aS'or'
p4686
aS'Nortron,...'
p4687
aS'also'
p4688
aS'from'
p4689
aS'the'
p4690
aS'common'
p4691
aS'files'
p4692
aS'in'
p4693
aS'the'
p4694
aS'program'
p4695
aS'folder'
p4696
aS'the'
p4697
aS'symantec'
p4698
aS'folder'
p4699
aS'has'
p4700
aS'to'
p4701
aS'be'
p4702
aS'deleted.'
p4703
ag27
tp4704
a((lp4705
S'If'
p4706
aS'you'
p4707
aS'got'
p4708
aS'stuck'
p4709
aS'do'
p4710
aS'what'
p4711
ag2
aS'did,search'
p4712
aS'for'
p4713
aS'any'
p4714
aS'folder'
p4715
aS'called'
p4716
aS'symantec'
p4717
aS'and'
p4718
aS'delete'
p4719
aS'it!'
p4720
aS'then'
p4721
aS'install'
p4722
aS'that'
p4723
aS'program(assuming'
p4724
aS'you'
p4725
aS'know'
p4726
aS'what'
p4727
aS'you'
p4728
aS'are'
p4729
aS'doing).'
p4730
ag47
tp4731
a((lp4732
S'If'
p4733
aS'you'
p4734
aS'have'
p4735
aS'no'
p4736
aS'previous'
p4737
aS'version'
p4738
aS'of'
p4739
aS'nortron'
p4740
aS'security'
p4741
aS'on'
p4742
aS'your'
p4743
aS'system,'
p4744
aS'or'
p4745
aS'Nortron'
p4746
aS'Antivirus,'
p4747
aS'the'
p4748
aS'installation'
p4749
aS'will'
p4750
aS'go'
p4751
aS'fine,'
p4752
aS'otherwise'
p4753
aS'dig'
p4754
aS'in'
p4755
aS'and'
p4756
aS'in'
p4757
aS'to'
p4758
aS'do'
p4759
ag266
aS'major'
p4760
aS'registery'
p4761
aS'clean'
p4762
aS'up!the'
p4763
aS'old'
p4764
aS'programs'
p4765
aS'will'
p4766
aS'leave'
p4767
ag266
aS'trace'
p4768
aS'that'
p4769
aS'will'
p4770
aS'mess'
p4771
aS'up'
p4772
aS'the'
p4773
aS'new'
p4774
aS'installation,'
p4775
aS'even'
p4776
aS'if'
p4777
aS'you'
p4778
aS'uninstalled'
p4779
aS'the'
p4780
aS'old'
p4781
aS'programs'
p4782
aS'perfectly.'
p4783
ag27
tp4784
a((lp4785
S'What'
p4786
aS'dissapointes'
p4787
aS'me'
p4788
aS'the'
p4789
aS'most'
p4790
aS'that'
p4791
ag266
aS'software'
p4792
aS'like'
p4793
aS'that'
p4794
aS'is'
p4795
aS'not'
p4796
aS'cheap'
p4797
aS'gets'
p4798
aS'zero'
p4799
aS'support'
p4800
aS'form'
p4801
aS'symantec,'
p4802
aS'if'
p4803
aS'you'
p4804
aS'want'
p4805
aS'support,'
p4806
aS"they'll"
p4807
aS'charge'
p4808
aS'you'
p4809
ag266
aS'Fee!'
p4810
ag27
tp4811
a((lp4812
S"I've"
p4813
aS'tried'
p4814
aS'the'
p4815
aS'free'
p4816
aS'versions'
p4817
aS'of'
p4818
aS'zone'
p4819
aS'alarm'
p4820
aS'and'
p4821
aS'the'
p4822
aS'free'
p4823
aS'version'
p4824
aS'of'
p4825
aS'sygate'
p4826
aS'and'
p4827
aS'they'
p4828
aS'both'
p4829
aS'have'
p4830
ag266
aS'nice'
p4831
aS'and'
p4832
aS'easy'
p4833
aS'installation'
p4834
aS'and'
p4835
aS'work'
p4836
aS'great!.'
p4837
ag88
tp4838
a((lp4839
S'Next'
p4840
aS'year'
p4841
aS'when'
p4842
ag2
aS'purchase'
p4843
ag266
aS'2005'
p4844
aS'FireWall'
p4845
aS'version,'
p4846
ag2
aS'am'
p4847
aS'buying'
p4848
aS'the'
p4849
aS'Zone'
p4850
aS'Alarm'
p4851
aS'or'
p4852
aS'the'
p4853
aS'sygate'
p4854
aS'one.'
p4855
ag47
tp4856
a((lp4857
g2
aS'am'
p4858
aS'giving'
p4859
ag266
aS'zero'
p4860
aS'star'
p4861
aS'to'
p4862
aS'symantec'
p4863
aS'for'
p4864
aS'this'
p4865
aS'version!'
p4866
ag27
tp4867
a((lp4868
g2
aS'really'
p4869
aS'liked'
p4870
aS'the'
p4871
aS'firewall.'
p4872
ag47
tp4873
a((lp4874
S'It'
p4875
aS'can'
p4876
aS'be'
p4877
ag266
aS'pain'
p4878
aS'to'
p4879
aS'configure,'
p4880
aS'but'
p4881
ag2
aS'dealt'
p4882
aS'with'
p4883
aS'it.'
p4884
ag47
tp4885
a((lp4886
S'THEN'
p4887
aS'all'
p4888
aS'of'
p4889
ag266
aS'sudden'
p4890
aS'when'
p4891
ag2
aS'restarted'
p4892
aS'my'
p4893
aS'pc,'
p4894
ag2
aS"couldn't"
p4895
aS'get'
p4896
aS'to'
p4897
aS'anything'
p4898
aS'in'
p4899
aS'IE.'
p4900
ag47
tp4901
a((lp4902
g2
aS'have'
p4903
aS'gone'
p4904
aS'to'
p4905
aS'their'
p4906
aS'site'
p4907
aS'many'
p4908
aS'times'
p4909
aS'in'
p4910
aS'the'
p4911
aS'last'
p4912
aS'two'
p4913
aS'months'
p4914
aS'looking'
p4915
aS'for'
p4916
aS'an'
p4917
aS'answer.'
p4918
ag47
tp4919
a((lp4920
S"I've"
p4921
aS'tried'
p4922
aS'lots'
p4923
aS'of'
p4924
aS'things'
p4925
aS'they'
p4926
aS'suggest.'
p4927
ag47
tp4928
a((lp4929
S'My'
p4930
aS'computer'
p4931
aS'configuration'
p4932
aS'is'
p4933
aS'probably'
p4934
aS'all'
p4935
aS'screwed'
p4936
aS'up'
p4937
aS'at'
p4938
aS'this'
p4939
aS'point.'
p4940
ag47
tp4941
a((lp4942
S'The'
p4943
aS'only'
p4944
aS'free'
p4945
aS'help'
p4946
aS'you'
p4947
aS'get'
p4948
aS'is'
p4949
aS'in'
p4950
aS'renewing'
p4951
aS'your'
p4952
aS'subscription!'
p4953
ag88
tp4954
a((lp4955
S'The'
p4956
aS'only'
p4957
aS'way'
p4958
aS'my'
p4959
aS'pc'
p4960
aS'internet'
p4961
aS'works'
p4962
aS'is'
p4963
aS'if'
p4964
ag2
aS'open'
p4965
aS'the'
p4966
aS'Firewall'
p4967
aS'Program'
p4968
aS'configuration'
p4969
aS'and'
p4970
aS'manually'
p4971
aS'refresh'
p4972
aS'it.'
p4973
ag27
tp4974
a((lp4975
S"It's"
p4976
aS'become'
p4977
aS'tedious'
p4978
aS'doing'
p4979
aS'this.'
p4980
ag47
tp4981
a((lp4982
S'Wish'
p4983
ag2
aS"hadn't"
p4984
aS'renewed'
p4985
aS'my'
p4986
aS'subscription.'
p4987
ag47
tp4988
a((lp4989
S'Buy'
p4990
aS'ZONE'
p4991
aS'Alarm.'
p4992
ag47
tp4993
a((lp4994
S'Wish'
p4995
ag2
aS'had.'
p4996
ag47
tp4997
a((lp4998
g2
aS'read'
p4999
aS'how'
p5000
aS'the'
p5001
aS'buyers'
p5002
aS'of'
p5003
aS'this'
p5004
aS'product'
p5005
aS'watched'
p5006
aS'their'
p5007
aS'computers'
p5008
aS'turn'
p5009
aS'into'
p5010
aS'processing'
p5011
aS'sloths,'
p5012
aS'bought'
p5013
ag266
aS'copy'
p5014
aS'and'
p5015
aS'watched'
p5016
aS'my'
p5017
aS'2.4'
p5018
aS'Gig'
p5019
aS'XP'
p5020
aS'Pro'
p5021
aS'processor'
p5022
aS'slow'
p5023
aS'down'
p5024
aS'below'
p5025
aS'the'
p5026
aS'level'
p5027
aS'of'
p5028
aS'my'
p5029
aS'750'
p5030
aS'Meg'
p5031
aS'2000Pro'
p5032
aS'laptop!'
p5033
ag47
tp5034
a((lp5035
S'At'
p5036
aS'the'
p5037
aS'same'
p5038
aS'time'
p5039
ag2
aS'bought'
p5040
aS'PC-Cillin'
p5041
aS'for'
p5042
aS'the'
p5043
aS'laptop'
p5044
aS'and'
p5045
aS'what'
p5046
ag266
aS'slick'
p5047
aS'product!'
p5048
ag47
tp5049
a((lp5050
S'So'
p5051
aS'now,'
p5052
aS'when'
p5053
aS'we'
p5054
aS'type,'
p5055
aS'half'
p5056
aS'the'
p5057
aS'time'
p5058
aS'the'
p5059
aS'XP'
p5060
aS'Pro'
p5061
aS'2.4'
p5062
aS'Gig'
p5063
aS'PC'
p5064
aS'lags'
p5065
aS'behind'
p5066
aS'the'
p5067
aS'input,'
p5068
aS'sometime'
p5069
aS'by'
p5070
aS'10'
p5071
aS'characters!'
p5072
ag47
tp5073
a((lp5074
S'Symantec'
p5075
aS'should'
p5076
aS'give'
p5077
aS'us'
p5078
aS'all'
p5079
ag266
aS'refund'
p5080
aS'and'
p5081
aS'apology!'
p5082
ag27
tp5083
a((lp5084
g2
aS'will'
p5085
aS'NEVER'
p5086
aS'buy'
p5087
aS'their'
p5088
aS'product'
p5089
aS'again'
p5090
aS'at'
p5091
aS'this'
p5092
aS'rate,'
p5093
aS'and'
p5094
aS'neither'
p5095
aS'should'
p5096
aS'you.'
p5097
ag27
tp5098
a((lp5099
S'BEWARE!!!!'
p5100
ag47
tp5101
a((lp5102
S'The'
p5103
aS'product'
p5104
aS'has'
p5105
aS'worked'
p5106
aS'perfectly'
p5107
aS'for'
p5108
aS'me'
p5109
aS'on'
p5110
aS'my'
p5111
aS'XP.'
p5112
ag88
tp5113
a((lp5114
S'No'
p5115
aS'more'
p5116
aS'banner'
p5117
aS'ads,'
p5118
aS'pop-ups,'
p5119
aS'and'
p5120
aS'the'
p5121
aS'reliable'
p5122
aS'antivirus.'
p5123
ag88
tp5124
a((lp5125
g2
aS'work'
p5126
aS'on'
p5127
aS'word,'
p5128
aS'explorer,'
p5129
aS'netscape,'
p5130
aS'acrobat'
p5131
aS'reader,'
p5132
aS'photoshop'
p5133
aS'at'
p5134
aS'same'
p5135
aS'time'
p5136
aS'(meaning'
p5137
aS'using'
p5138
ag266
aS'lot'
p5139
aS'of'
p5140
aS'memory),'
p5141
aS'but'
p5142
aS'still'
p5143
aS'dont'
p5144
aS'see'
p5145
ag266
aS'problem'
p5146
aS'with'
p5147
aS'computer'
p5148
aS'(getting'
p5149
aS'slow'
p5150
aS'or'
p5151
aS'crashing).'
p5152
ag88
tp5153
a((lp5154
g2
aS'have'
p5155
aS'XP'
p5156
aS'with'
p5157
aS'256MB'
p5158
aS'RAM,'
p5159
aS'40GB'
p5160
aS'memory.'
p5161
ag47
tp5162
a((lp5163
S'This'
p5164
aS'product'
p5165
aS'is'
p5166
aS'way'
p5167
aS'cooler'
p5168
aS'than'
p5169
aS'anything'
p5170
aS'Ive'
p5171
aS'used'
p5172
aS'before'
p5173
aS'(PcCillins'
p5174
aS'and'
p5175
aS'McCafees'
p5176
aS'and'
p5177
aS'Norton'
p5178
aS'Antivirus'
p5179
aS'alone).'
p5180
ag88
tp5181
a((lp5182
g97
aS'stars'
p5183
aS'all'
p5184
aS'the'
p5185
aS'way!'
p5186
ag88
tp5187
a((lp5188
S"I've"
p5189
aS'had'
p5190
aS'the'
p5191
aS'last'
p5192
ag169
aS'versions'
p5193
aS'of'
p5194
aS'NIS.'
p5195
ag47
tp5196
a((lp5197
S'All'
p5198
aS'in'
p5199
aS'all'
p5200
aS'it'
p5201
aS"hasn't"
p5202
aS'been'
p5203
ag266
aS'bad'
p5204
aS'product.'
p5205
ag88
tp5206
a((lp5207
S'However,'
p5208
aS'Symantec'
p5209
aS'has'
p5210
aS'taken'
p5211
ag266
aS'significant'
p5212
aS'turn'
p5213
aS'for'
p5214
aS'the'
p5215
aS'worse'
p5216
aS'with'
p5217
aS'this'
p5218
aS'release.'
p5219
ag27
tp5220
a((lp5221
S'While'
p5222
aS'it'
p5223
aS'has'
p5224
ag266
aS'rather'
p5225
aS'effective'
p5226
aS'firewall,'
p5227
aS'and'
p5228
aS'comes'
p5229
aS'with'
p5230
aS'Norton'
p5231
aS'Antivirus'
p5232
aS'(which'
p5233
aS"I'm"
p5234
aS'actually'
p5235
aS'rather'
p5236
aS'fond'
p5237
aS'of),'
p5238
aS'the'
p5239
aS'Security'
p5240
aS'Suite'
p5241
aS'has'
p5242
aS'significantly'
p5243
aS'slowed'
p5244
aS'down'
p5245
aS'my'
p5246
aS'system.'
p5247
ag47
tp5248
a((lp5249
S"I'm"
p5250
aS'currently'
p5251
aS'using'
p5252
ag266
aS'Sony'
p5253
aS'Vaio'
p5254
aS'S-150'
p5255
aS'(which'
p5256
ag2
aS'bought'
p5257
aS'at'
p5258
aS'the'
p5259
aS'end'
p5260
aS'of'
p5261
aS'this'
p5262
aS'past'
p5263
aS'August),'
p5264
aS'and'
p5265
aS'it'
p5266
aS'takes'
p5267
aS'about'
p5268
aS'five'
p5269
aS'minutes'
p5270
aS'just'
p5271
aS'to'
p5272
aS'boot'
p5273
aS'the'
p5274
aS'system'
p5275
ag364
aS'in'
p5276
aS'fact,'
p5277
aS"I've"
p5278
aS'taken'
p5279
aS'to'
p5280
aS'just'
p5281
aS'hibernating,'
p5282
aS'rather'
p5283
aS'than'
p5284
aS'shutting'
p5285
aS'down'
p5286
aS'completely.'
p5287
ag27
tp5288
a((lp5289
S'The'
p5290
aS'Antivirus'
p5291
aS'is'
p5292
aS'good,'
p5293
aS'but'
p5294
aS'"Internet'
p5295
aS'Security"'
p5296
aS'just'
p5297
aS"isn't"
p5298
aS'worth'
p5299
aS'it.'
p5300
ag47
tp5301
a((lp5302
S"I've"
p5303
aS'owned'
p5304
aS'many'
p5305
aS'Norton'
p5306
aS'products'
p5307
aS'in'
p5308
aS'my'
p5309
aS'time,'
p5310
aS'and'
p5311
aS'for'
p5312
aS'the'
p5313
aS'most'
p5314
aS'part,'
p5315
aS"I've"
p5316
aS'been'
p5317
aS'pleased'
p5318
aS'with'
p5319
aS'their'
p5320
aS'performance.'
p5321
ag88
tp5322
a((lp5323
S'This'
p5324
aS'is'
p5325
aS'also'
p5326
aS'the'
p5327
aS'case'
p5328
aS'with'
p5329
aS'NIS'
p5330
aS'2004.'
p5331
ag88
tp5332
a((lp5333
S"I've"
p5334
aS'seen'
p5335
aS'many'
p5336
aS'reviews'
p5337
aS'praising'
p5338
aS'2003'
p5339
aS'and'
p5340
aS'cursing'
p5341
aS'2004.'
p5342
ag47
tp5343
a((lp5344
g2
aS'upgraded'
p5345
aS'from'
p5346
aS'NIS'
p5347
aS'2003,'
p5348
aS'and'
p5349
aS'the'
p5350
aS'change'
p5351
aS'in'
p5352
aS'performance'
p5353
aS'has'
p5354
aS'not'
p5355
aS'been'
p5356
aS'noticeable.'
p5357
ag88
tp5358
a((lp5359
S'On'
p5360
aS'the'
p5361
aS'contrary,'
p5362
aS"I'm"
p5363
aS'quite'
p5364
aS'pleased'
p5365
aS'with'
p5366
aS'my'
p5367
aS'upgrade.'
p5368
ag88
tp5369
a((lp5370
S'It'
p5371
aS'works'
p5372
aS'better'
p5373
aS'and'
p5374
aS'has'
p5375
aS'more'
p5376
aS'useful'
p5377
aS'features'
p5378
aS'than'
p5379
aS'NIS'
p5380
aS'2003.'
p5381
ag88
tp5382
a((lp5383
g2
aS'bought'
p5384
aS'this'
p5385
aS'product'
p5386
aS'after'
p5387
aS'reading'
p5388
aS'the'
p5389
aS"Editor's"
p5390
aS'Choice'
p5391
aS'article'
p5392
aS'at'
p5393
aS'PC'
p5394
aS'Magazine'
p5395
aS'and'
p5396
aS'had'
p5397
ag266
aS'great'
p5398
aS'experience'
p5399
aS'with'
p5400
aS'Amazon'
p5401
aS'(as'
p5402
aS'usual).'
p5403
ag47
tp5404
a((lp5405
S'The'
p5406
aS'program'
p5407
aS'is'
p5408
aS'fully'
p5409
aS'featured,'
p5410
aS'with'
p5411
aS'much'
p5412
aS'of'
p5413
aS'what'
p5414
aS"you'd"
p5415
aS'want'
p5416
aS'from'
p5417
ag266
aS'security'
p5418
aS'program'
p5419
aS'--'
p5420
ag88
tp5421
a((lp5422
g2
aS'was'
p5423
aS'upgrading'
p5424
aS'from'
p5425
ag266
aS'version'
p5426
aS'of'
p5427
aS'Norton'
p5428
aS'Anti-virus'
p5429
aS'that'
p5430
aS'was'
p5431
aS'about'
p5432
ag266
aS'year'
p5433
aS'old'
p5434
aS'in'
p5435
aS'order'
p5436
aS'to'
p5437
aS'get'
p5438
aS'spam'
p5439
aS'and'
p5440
aS'pop-up'
p5441
aS'control.'
p5442
ag47
tp5443
a((lp5444
S'My'
p5445
aS'previous'
p5446
aS'experience'
p5447
aS'with'
p5448
aS'multiple'
p5449
aS'Symantec/Norton'
p5450
aS'products'
p5451
aS'has'
p5452
aS'been'
p5453
aS'good.'
p5454
ag47
tp5455
a((lp5456
S'The'
p5457
aS'installation,'
p5458
aS'set-up,'
p5459
aS'and'
p5460
aS'operating'
p5461
aS'interfaces'
p5462
aS'are'
p5463
aS'well'
p5464
aS'organized'
p5465
aS'and'
p5466
aS'intuitive'
p5467
aS'and'
p5468
aS'the'
p5469
aS'email'
p5470
aS'spam'
p5471
aS'component'
p5472
aS'works'
p5473
aS'well.'
p5474
ag88
tp5475
a((lp5476
S'HOWEVER,'
p5477
ag2
aS'AM'
p5478
aS'VERY'
p5479
aS'DISAPPOINTED'
p5480
aS'WITH'
p5481
aS'THIS'
p5482
aS'PRODUCT'
p5483
aS'AND'
p5484
aS'WITH'
p5485
aS'SYMANTEC.'
p5486
ag27
tp5487
a((lp5488
S'It'
p5489
aS'feels'
p5490
aS'like'
p5491
aS"I'm"
p5492
aS'back'
p5493
aS'to'
p5494
aS'the'
p5495
aS'days'
p5496
aS'of'
p5497
aS'56k'
p5498
aS'dial-up'
p5499
aS'internet'
p5500
aS'service,'
p5501
aS'even'
p5502
aS'though'
p5503
aS"I'm"
p5504
aS'running'
p5505
ag266
aS'Dell'
p5506
aS'2GHz'
p5507
aS'Pentium'
p5508
ag150
aS'with'
p5509
aS'256MB'
p5510
aS'memory'
p5511
aS'and'
p5512
aS'have'
p5513
aS'had'
p5514
aS'excellent'
p5515
aS'broadband'
p5516
aS'service'
p5517
aS'for'
p5518
aS'the'
p5519
aS'past'
p5520
aS'year.'
p5521
ag27
tp5522
a((lp5523
g2
aS'tried'
p5524
aS'disabling'
p5525
aS'the'
p5526
aS'various'
p5527
aS'components'
p5528
aS'provided'
p5529
aS'with'
p5530
aS'this'
p5531
aS'product,'
p5532
aS'paring'
p5533
aS'it'
p5534
aS'all'
p5535
aS'the'
p5536
aS'way'
p5537
aS'back'
p5538
aS'to'
p5539
aS'anti-virus'
p5540
aS'only'
p5541
aS'service...'
p5542
aS'and'
p5543
aS'saw'
p5544
aS'no'
p5545
aS'improvement.'
p5546
ag27
tp5547
a((lp5548
S'There'
p5549
aS'is'
p5550
aS'absolutely'
p5551
aS'nothing'
p5552
aS'useful'
p5553
aS'at'
p5554
aS'the'
p5555
aS'Symantec/Norton'
p5556
aS'site.'
p5557
ag27
tp5558
a((lp5559
g2
aS'am'
p5560
aS'going'
p5561
aS'to'
p5562
aS'uninstall'
p5563
aS'this'
p5564
aS'and'
p5565
aS'stick'
p5566
aS'with'
p5567
aS'my'
p5568
aS'old'
p5569
aS'version'
p5570
aS'until'
p5571
aS'they'
p5572
aS'offer'
p5573
ag266
aS'fix'
p5574
aS'or'
p5575
aS'until'
p5576
ag2
aS'can'
p5577
aS'find'
p5578
ag266
aS'program'
p5579
aS'from'
p5580
aS'another'
p5581
aS'vendor.'
p5582
ag47
tp5583
a((lp5584
g2
aS'purchased'
p5585
aS'this'
p5586
aS'even'
p5587
aS'though'
p5588
ag2
aS'saw'
p5589
aS'some'
p5590
aS'disparaging'
p5591
aS'reviews'
p5592
aS'at'
p5593
aS'the'
p5594
aS'Amazon'
p5595
aS'site,'
p5596
aS'trusting'
p5597
aS'PC'
p5598
aS'Magazine'
p5599
aS'to'
p5600
aS'get'
p5601
aS'it'
p5602
aS'right.'
p5603
ag47
tp5604
a((lp5605
S'However,'
p5606
ag2
aS'suspect'
p5607
aS'that'
p5608
aS'many'
p5609
aS'people'
p5610
aS'are'
p5611
aS'having'
p5612
ag266
aS'bad'
p5613
aS'experience'
p5614
aS'--'
p5615
aS'DO'
p5616
aS'NOT'
p5617
aS'PURCHASE'
p5618
aS'THIS'
p5619
aS'PRODUCT.'
p5620
ag27
tp5621
a((lp5622
S'PIII'
p5623
aS'1Ghz'
p5624
aS'512MB'
p5625
aS'RDRAM'
p5626
aS'Windows'
p5627
aS'XP'
p5628
aS'Pro'
p5629
aS'80GB'
p5630
aS'HD'
p5631
ag2
aS'was'
p5632
aS'able'
p5633
aS'to'
p5634
aS'Uninstall'
p5635
aS'NIS'
p5636
aS'2003'
p5637
aS'and'
p5638
aS'Install'
p5639
aS'NIS'
p5640
aS'2004'
p5641
aS'with'
p5642
aS'no'
p5643
aS'trouble.'
p5644
ag88
tp5645
a((lp5646
S'First,'
p5647
ag2
aS'turned'
p5648
aS'off'
p5649
aS'my'
p5650
aS'cable'
p5651
aS'modem.'
p5652
ag47
tp5653
a((lp5654
S'Then'
p5655
ag2
aS'disabled'
p5656
aS'both'
p5657
aS'Norton'
p5658
aS'Antivirus'
p5659
aS'and'
p5660
aS'Norton'
p5661
aS'Internet'
p5662
aS'Security.'
p5663
ag47
tp5664
a((lp5665
g2
aS'used'
p5666
aS'"Add/Remove'
p5667
aS'Programs"'
p5668
aS'to'
p5669
aS'unistall'
p5670
aS'NIS'
p5671
aS'2003.'
p5672
ag47
tp5673
a((lp5674
S'In'
p5675
aS'"Add/Remove,'
p5676
aS'you'
p5677
aS'must'
p5678
aS'selecting'
p5679
aS'the'
p5680
aS"program's"
p5681
aS'Change'
p5682
aS'button.'
p5683
ag47
tp5684
a((lp5685
S'After'
p5686
aS'that'
p5687
aS'was'
p5688
aS'complete,'
p5689
ag2
aS'deleted'
p5690
aS'the'
p5691
aS'Norton'
p5692
aS'Antivirus'
p5693
aS'and'
p5694
aS'Norton'
p5695
aS'Internet'
p5696
aS'Security'
p5697
aS'folders'
p5698
aS'left'
p5699
aS'in'
p5700
aS'the'
p5701
aS'"Programs"'
p5702
aS'section'
p5703
aS'of'
p5704
aS'Windows'
p5705
aS'XP.'
p5706
ag47
tp5707
a((lp5708
S'Next'
p5709
ag2
aS'de-fragged'
p5710
aS'my'
p5711
aS'hard'
p5712
aS'drive.'
p5713
ag47
tp5714
a((lp5715
g2
aS'did'
p5716
aS'not'
p5717
aS'use'
p5718
aS'the'
p5719
aS'Rnis.exe,'
p5720
aS'since'
p5721
ag2
aS'have'
p5722
aS'WinFax'
p5723
aS'Pro'
p5724
aS'on'
p5725
aS'my'
p5726
aS'system.'
p5727
ag2
aS'did'
p5728
aS'not'
p5729
aS'touch'
p5730
aS'the'
p5731
aS'Windows'
p5732
aS'Registry,'
p5733
aS'for'
p5734
aS'the'
p5735
aS'same'
p5736
aS'reason.'
p5737
ag47
tp5738
a((lp5739
g2
aS'installed,'
p5740
aS'activated'
p5741
aS'and'
p5742
aS'registered'
p5743
aS'NIS'
p5744
aS'2004'
p5745
aS'without'
p5746
aS'issue.'
p5747
ag88
tp5748
a((lp5749
S'So'
p5750
aS'far,'
p5751
aS'the'
p5752
aS'Anti-Spam'
p5753
aS'feature'
p5754
aS'seems'
p5755
aS'to'
p5756
aS'be'
p5757
aS'very'
p5758
aS'good.'
p5759
ag88
tp5760
a((lp5761
g2
aS"ain't"
p5762
aS'no'
p5763
aS'computer'
p5764
aS'geek,'
p5765
aS'but'
p5766
ag2
aS'can'
p5767
aS'wrestle'
p5768
aS'with'
p5769
aS'the'
p5770
aS'best'
p5771
aS'of'
p5772
aS'them.'
p5773
ag47
tp5774
a((lp5775
S'This'
p5776
aS'program'
p5777
aS'would'
p5778
aS'not'
p5779
aS'let'
p5780
aS'me'
p5781
aS'send'
p5782
aS'Outlook'
p5783
aS'Email'
p5784
aS'or'
p5785
aS'listen'
p5786
aS'to'
p5787
aS'Audible'
p5788
aS'sample'
p5789
aS'books'
p5790
aS'online.'
p5791
ag27
tp5792
a((lp5793
g2
aS'gave'
p5794
aS'up'
p5795
aS'trying'
p5796
aS'to'
p5797
aS'figure'
p5798
aS'how'
p5799
aS'to'
p5800
aS'get'
p5801
aS'my'
p5802
aS'email'
p5803
aS'sent'
p5804
aS'or'
p5805
aS'listen'
p5806
aS'to'
p5807
aS'streaming'
p5808
aS'programs.'
p5809
ag47
tp5810
a((lp5811
S'Buy'
p5812
aS'this'
p5813
aS'if'
p5814
aS'you'
p5815
aS'like'
p5816
aS'mental'
p5817
aS'challenges'
p5818
aS'or'
p5819
aS'trying'
p5820
aS'how'
p5821
aS'to'
p5822
aS'pick'
p5823
aS'locks.'
p5824
ag27
tp5825
a((lp5826
S'For'
p5827
aS'security'
p5828
aS'buy'
p5829
aS'Zone'
p5830
aS'Alarm.'
p5831
aS"It's"
p5832
ag266
aS'very'
p5833
aS'friendly'
p5834
aS'program.'
p5835
ag47
tp5836
a((lp5837
g2
aS'was'
p5838
aS'begining'
p5839
aS'to'
p5840
aS'think'
p5841
ag2
aS'was'
p5842
aS'computer-retarded'
p5843
aS'after'
p5844
aS'dealing'
p5845
aS'with'
p5846
aS'this'
p5847
aS'program.'
p5848
ag47
tp5849
a((lp5850
g2
aS'was'
p5851
aS'using'
p5852
aS'this'
p5853
aS'on'
p5854
aS'my'
p5855
aS'2001'
p5856
aS'Dell'
p5857
aS'laptop'
p5858
aS'(which'
p5859
aS'worked'
p5860
aS'fine'
p5861
aS'until'
p5862
ag2
aS'upgraded'
p5863
aS'to'
p5864
aS'this'
p5865
aS'junk!)'
p5866
ag47
tp5867
a((lp5868
g2
aS'had'
p5869
aS'much'
p5870
aS'of'
p5871
aS'the'
p5872
aS'same'
p5873
aS'problems'
p5874
aS'that'
p5875
aS'everyone'
p5876
aS'else'
p5877
aS'has'
p5878
aS'listed'
p5879
aS'(mainly'
p5880
aS'the'
p5881
aS'SLOOOOOOOOOW'
p5882
aS'processor),'
p5883
aS'and'
p5884
aS'then'
p5885
ag2
aS"couldn't"
p5886
aS'get'
p5887
aS'the'
p5888
aS'damn'
p5889
aS'thing'
p5890
aS'off'
p5891
aS'my'
p5892
aS'computer'
p5893
aS'completely!'
p5894
ag27
tp5895
a((lp5896
g2
aS'decided'
p5897
aS'to'
p5898
aS'give'
p5899
aS'it'
p5900
aS'one'
p5901
aS'last'
p5902
aS'chance...'
p5903
aS'so'
p5904
ag2
aS'formatted'
p5905
aS'my'
p5906
aS'hard'
p5907
aS'drive,'
p5908
aS'reinstalled'
p5909
aS'Windows'
p5910
aS'XP'
p5911
aS'(which'
p5912
aS'also'
p5913
aS'required'
p5914
ag266
aS'day'
p5915
ag3453
aS'night'
p5916
aS'download/install'
p5917
aS'of'
p5918
aS'SP2'
p5919
aS'on'
p5920
aS'dial-up)'
p5921
aS'and'
p5922
aS'put'
p5923
aS'NIS2004'
p5924
aS'back'
p5925
aS'onto'
p5926
aS'the'
p5927
aS'computer.'
p5928
ag47
tp5929
a((lp5930
S'It'
p5931
aS'locked'
p5932
aS'during'
p5933
aS'install'
p5934
aS'and'
p5935
ag2
aS'had'
p5936
aS'to'
p5937
aS'reformat'
p5938
aS'the'
p5939
aS'drive'
p5940
aS'and'
p5941
aS'start'
p5942
aS'from'
p5943
aS'scratch'
p5944
aS'(GRRRRRR!)'
p5945
ag27
tp5946
a((lp5947
S'Blessedly,'
p5948
aS'my'
p5949
aS'DSL'
p5950
aS'was'
p5951
aS'installed'
p5952
aS'just'
p5953
aS'about'
p5954
aS'this'
p5955
aS'time'
p5956
aS'and'
p5957
ag2
aS'set'
p5958
aS'up'
p5959
ag266
aS'wireless'
p5960
aS'network'
p5961
aS'with'
p5962
aS'my'
p5963
aS'desktop.'
p5964
ag47
tp5965
a((lp5966
S'So'
p5967
aS'when'
p5968
ag2
aS'reformatted'
p5969
aS'for'
p5970
aS'the'
p5971
aS'third'
p5972
aS'time,'
p5973
aS'downloading'
p5974
aS'SP2'
p5975
aS'took'
p5976
aS'no'
p5977
aS'time'
p5978
aS'at'
p5979
aS'all'
p5980
aS'and'
p5981
aS'the'
p5982
aS'new'
p5983
aS'XP'
p5984
aS'was'
p5985
aS'kind'
p5986
aS'enough'
p5987
aS'to'
p5988
aS'even'
p5989
aS'suggest'
p5990
aS'other'
p5991
aS'antivirus'
p5992
aS'programs'
p5993
aS'to'
p5994
aS'try'
p5995
aS'(it'
p5996
aS'also'
p5997
aS'listed'
p5998
aS'Norton'
p5999
aS'and'
p6000
aS'McAffee).'
p6001
ag47
tp6002
a((lp6003
g2
aS'downloaded'
p6004
ag266
aS'trial'
p6005
aS'version'
p6006
aS'of'
p6007
aS'Computer'
p6008
aS'Associates'
p6009
aS'EZ'
p6010
aS'Firewall'
p6011
aS'and'
p6012
aS'Antivirus'
p6013
aS'and'
p6014
aS'fell'
p6015
aS'in'
p6016
aS'love'
p6017
aS'with'
p6018
ag266
aS'computer'
p6019
aS'security'
p6020
aS'system'
p6021
aS'all'
p6022
aS'over'
p6023
aS'again.'
p6024
ag88
tp6025
a((lp6026
g2
aS"can't"
p6027
aS'recommend'
p6028
aS'their'
p6029
aS'programs'
p6030
aS'enough.'
p6031
ag47
tp6032
a((lp6033
S'And'
p6034
ag2
aS"can't"
p6035
aS'warn'
p6036
aS'you'
p6037
aS'enough'
p6038
aS'to'
p6039
aS'STAY'
p6040
aS'AWAY'
p6041
aS'FROM'
p6042
aS'NORTON!!'
p6043
ag27
tp6044
a((lp6045
g2
aS'originally'
p6046
aS'bought'
p6047
aS'McAfee'
p6048
aS'VirusScan'
p6049
aS'7'
p6050
aS'from'
p6051
aS'Amazon.'
p6052
ag47
tp6053
a((lp6054
S'About'
p6055
ag266
aS'month'
p6056
aS'ago,'
p6057
aS'it'
p6058
aS'had'
p6059
aS'an'
p6060
aS'error'
p6061
aS'that'
p6062
ag2
aS'could'
p6063
aS'not'
p6064
aS'fix'
p6065
aS'and'
p6066
aS'the'
p6067
aS'program'
p6068
aS'would'
p6069
aS'not'
p6070
aS'update.'
p6071
ag47
tp6072
a((lp6073
S'Even'
p6074
aS'though'
p6075
ag2
aS'had'
p6076
aS'6+'
p6077
aS'months'
p6078
aS'left'
p6079
aS'on'
p6080
aS'the'
p6081
aS'McAfee'
p6082
aS'subscription,'
p6083
ag2
aS'decided'
p6084
aS'to'
p6085
aS'move'
p6086
aS'on'
p6087
aS'and'
p6088
aS'buy'
p6089
aS'Norton'
p6090
aS'Internet'
p6091
aS'Security'
p6092
aS'2004'
p6093
aS'(NIS).'
p6094
ag47
tp6095
a((lp6096
g2
aS'did'
p6097
aS'not'
p6098
aS'have'
p6099
aS'any'
p6100
aS'of'
p6101
aS'the'
p6102
aS'installation'
p6103
aS'problems'
p6104
aS'that'
p6105
aS'people'
p6106
aS'highlighted'
p6107
aS'here.'
p6108
ag88
tp6109
a((lp6110
g2
aS'did'
p6111
aS'remove'
p6112
aS'all'
p6113
aS'remnants'
p6114
aS'of'
p6115
aS'McAfee'
p6116
aS'before'
p6117
aS'installing'
p6118
aS'and'
p6119
aS'confirmed'
p6120
aS'the'
p6121
aS'Windows'
p6122
aS'XP'
p6123
aS'firewall'
p6124
aS'was'
p6125
aS'off.'
p6126
ag47
tp6127
a((lp6128
S'It'
p6129
aS'was'
p6130
aS'immediately'
p6131
aS'noticeable'
p6132
aS'that'
p6133
aS'NIS'
p6134
aS'slows'
p6135
aS'down'
p6136
aS'my'
p6137
aS'computer'
p6138
aS'(Pent4,'
p6139
aS'256'
p6140
aS'RAM).'
p6141
ag27
tp6142
a((lp6143
g2
aS'think'
p6144
aS'it'
p6145
aS'is'
p6146
ag266
aS'combination'
p6147
aS'of'
p6148
aS'the'
p6149
aS'program'
p6150
aS'size'
p6151
aS'taking'
p6152
aS'up'
p6153
aS'resources'
p6154
aS'and'
p6155
aS'the'
p6156
aS'open/close'
p6157
aS'scanning'
p6158
aS'that'
p6159
aS'it'
p6160
aS'does'
p6161
aS'with'
p6162
aS'every'
p6163
aS'program.'
p6164
ag27
tp6165
a((lp6166
S'Is'
p6167
aS'it'
p6168
aS'necessary'
p6169
aS'to'
p6170
aS'scan'
p6171
aS'my'
p6172
aS'MS'
p6173
aS'Money'
p6174
aS'database'
p6175
aS'when'
p6176
ag2
aS'close'
p6177
aS'the'
p6178
aS'program?'
p6179
ag27
tp6180
a((lp6181
S"I'm"
p6182
aS'not'
p6183
aS'sure'
p6184
aS'how'
p6185
aS'it'
p6186
aS'would'
p6187
aS'have'
p6188
aS'been'
p6189
aS'compromised'
p6190
aS'by'
p6191
ag266
aS'virus.'
p6192
ag47
tp6193
a((lp6194
g2
aS'have'
p6195
ag266
aS'modern'
p6196
aS'PC'
p6197
aS'with'
p6198
aS'lots'
p6199
aS'of'
p6200
aS'speed'
p6201
aS'and'
p6202
aS'memory,'
p6203
aS'but'
p6204
aS'this'
p6205
aS'firewall'
p6206
aS'just'
p6207
aS'brought'
p6208
aS'it'
p6209
aS'to'
p6210
ag266
aS'halt.'
p6211
ag27
tp6212
a((lp6213
S'Start'
p6214
aS'up,'
p6215
aS'log'
p6216
aS'off,'
p6217
aS'log'
p6218
aS'on...everything'
p6219
aS'became'
p6220
aS'very'
p6221
aS'slow.'
p6222
ag27
tp6223
a((lp6224
S'Configuring'
p6225
aS'it'
p6226
aS'for'
p6227
ag266
aS'home'
p6228
aS'network'
p6229
aS'was'
p6230
aS'almost'
p6231
aS'impossible.'
p6232
ag27
tp6233
a((lp6234
S'Multiple'
p6235
aS'users'
p6236
aS'on'
p6237
aS'one'
p6238
aS'machine'
p6239
aS'never'
p6240
aS'seemed'
p6241
aS'to'
p6242
aS'behave'
p6243
aS'like'
p6244
aS"you'd"
p6245
aS'expect.'
p6246
ag27
tp6247
a((lp6248
S'Avoid'
p6249
aS'at'
p6250
aS'all'
p6251
aS'costs'
p6252
ag47
tp6253
a((lp6254
g2
aS'just'
p6255
aS'about'
p6256
aS'lost'
p6257
aS'it'
p6258
aS'this'
p6259
aS'morning'
p6260
aS'with'
p6261
aS'this'
p6262
aS'software.'
p6263
ag47
tp6264
a((lp6265
S'While'
p6266
ag2
aS'was'
p6267
aS'trying'
p6268
aS'to'
p6269
aS'play'
p6270
aS'Half'
p6271
aS'Life'
p6272
ag103
aS'it'
p6273
aS'started'
p6274
aS'popping'
p6275
aS'up'
p6276
aS'with'
p6277
aS'"alerts"'
p6278
aS'every'
p6279
aS'twenty'
p6280
aS'seconds'
p6281
aS'(literally),'
p6282
aS'warning'
p6283
aS'me'
p6284
aS'my'
p6285
aS'antivirus'
p6286
aS'protection'
p6287
aS'was'
p6288
aS'off.'
p6289
ag27
tp6290
a((lp6291
S'But'
p6292
aS'it'
p6293
aS"wouldn't"
p6294
aS'let'
p6295
aS'me'
p6296
aS'turn'
p6297
aS'the'
p6298
aS'AV'
p6299
aS'protection'
p6300
aS'back'
p6301
aS'on'
p6302
aS'and'
p6303
aS'it'
p6304
aS"wouldn't"
p6305
aS'stop'
p6306
aS'with'
p6307
aS'the'
p6308
aS'alerts.'
p6309
ag27
tp6310
a((lp6311
g2
aS'had'
p6312
aS'tried'
p6313
aS'to'
p6314
aS'uninstall'
p6315
aS'Norton'
p6316
aS'Internet'
p6317
aS'Security'
p6318
ag266
aS'few'
p6319
aS'weeks'
p6320
aS'ago,'
p6321
aS'and'
p6322
aS'it'
p6323
aS"wouldn't"
p6324
aS'let'
p6325
aS'me'
p6326
aS'do'
p6327
aS'that'
p6328
aS'either.'
p6329
ag27
tp6330
a((lp6331
g2
aS'tried'
p6332
aS'it'
p6333
aS'again'
p6334
aS'this'
p6335
aS'morning'
p6336
aS'and'
p6337
aS'it'
p6338
aS'said'
p6339
ag2
aS"didn't"
p6340
aS'have'
p6341
aS'the'
p6342
aS'required'
p6343
aS'"permissions"'
p6344
aS'and'
p6345
aS'lacked'
p6346
aS'proper'
p6347
aS'administrator'
p6348
aS'status.'
p6349
ag27
tp6350
a((lp6351
S'On'
p6352
aS'my'
p6353
aS'own'
p6354
aS'home'
p6355
aS'computer.'
p6356
ag47
tp6357
a((lp6358
S'Of'
p6359
aS'course,'
p6360
aS'if'
p6361
aS'you'
p6362
aS'try'
p6363
aS'to'
p6364
aS'reach'
p6365
aS'Symantec'
p6366
aS'customer'
p6367
aS'service'
p6368
aS'you'
p6369
aS'get'
p6370
aS'useless'
p6371
aS'automated'
p6372
aS'systems'
p6373
aS'unless'
p6374
aS'you'
p6375
aS'want'
p6376
aS'to'
p6377
aS'pay'
p6378
aS'$30'
p6379
aS'per'
p6380
aS'incident.'
p6381
ag27
tp6382
a((lp6383
S'Meanwhile,'
p6384
aS'the'
p6385
aS'damn'
p6386
aS'alert'
p6387
aS'is'
p6388
aS'still'
p6389
aS'popping'
p6390
aS'up'
p6391
aS'every'
p6392
aS'20'
p6393
aS'seconds.'
p6394
ag47
tp6395
a((lp6396
S'Finally'
p6397
ag2
aS'ran'
p6398
aS'msconfig'
p6399
aS'and'
p6400
aS'went'
p6401
aS'into'
p6402
aS'the'
p6403
aS'"services"'
p6404
aS'tab'
p6405
aS'and'
p6406
aS'unchecked'
p6407
aS'every'
p6408
aS'last'
p6409
aS'Norton/Symantec'
p6410
aS'"service,"'
p6411
aS'then'
p6412
aS'ran'
p6413
aS'uninstall'
p6414
aS'again.'
p6415
ag47
tp6416
a((lp6417
S'This'
p6418
aS'time,'
p6419
aS'it'
p6420
aS'started'
p6421
aS'the'
p6422
aS'uninstallation'
p6423
aS'process,'
p6424
aS'then'
p6425
ag2
aS'left'
p6426
aS'for'
p6427
aS'work.'
p6428
ag2
aS'think'
p6429
aS'it'
p6430
aS'will'
p6431
aS'work.'
p6432
ag2
aS'hope'
p6433
aS'it'
p6434
aS'will'
p6435
aS'work.'
p6436
ag27
tp6437
a((lp6438
g2
aS'simply'
p6439
aS'hate'
p6440
aS'Symantec.'
p6441
ag2
aS'swear,'
p6442
aS'if'
p6443
ag2
aS'could'
p6444
aS'have'
p6445
aS'physically'
p6446
aS'ripped'
p6447
aS'that'
p6448
aS'software'
p6449
aS'out'
p6450
aS'of'
p6451
aS'my'
p6452
aS'computer'
p6453
aS'with'
p6454
aS'my'
p6455
aS'bare,'
p6456
aS'bleeding'
p6457
aS'hands,'
p6458
ag2
aS'would'
p6459
aS'have.'
p6460
ag27
tp6461
a((lp6462
g2
aS'have'
p6463
aS'been'
p6464
ag266
aS'loyal'
p6465
aS'Norton'
p6466
aS'Anti-Virus'
p6467
aS'and'
p6468
aS'Internet'
p6469
aS'Security'
p6470
aS'software'
p6471
aS'user'
p6472
aS'for'
p6473
aS'as'
p6474
aS'long'
p6475
aS'as'
p6476
ag2
aS'can'
p6477
aS'remember.'
p6478
ag47
tp6479
a((lp6480
S'Their'
p6481
aS'products'
p6482
aS'have'
p6483
aS'been'
p6484
aS'great'
p6485
aS'and'
p6486
aS'have'
p6487
aS'saved'
p6488
aS'my'
p6489
aS'bacon'
p6490
aS'on'
p6491
aS'numerous'
p6492
aS'occasions.'
p6493
ag88
tp6494
a.