(dp0
S'Norton Internet Security 2004 is one of the more buggy implementations.'
p1
(dp2
S'NIS2004'
p3
S'-2'
p4
ssS'I have never had this problem with any other software on my computer.'
p5
(dp6
S'Norton'
p7
S'-3]'
p8
ssS'First, I turned off my cable modem.'
p9
NsS'My previous experience with multiple Symantec/Norton products has been good.'
p10
NsS'I have found too many bugs in Norton Internet Security Professional to recommend it to any one without extreme patience and experience.'
p11
(dp12
S'Norton internet security'
p13
S'-2'
p14
ssS'Before I managed to manually add the program file, I contacted Symantec support.'
p15
NsS"On the contrary, I'm quite pleased with my upgrade."
p16
(dp17
S'upgrade'
p18
S'+3'
p19
ssS'Why they brought this to market is beyond me.'
p20
NsS"While it has a rather effective firewall, and comes with Norton Antivirus (which I'm actually rather fond of), the Security Suite has significantly slowed down my system."
p21
(dp22
S'firewall'
p23
S'+2'
p24
sS' security suite'
p25
S'-2'
p26
ssS'Not much recourse for the consumer in these cases.'
p27
NsS"I bought this product after reading the Editor's Choice article at PC Magazine and had a great experience with Amazon (as usual)."
p28
NsS'There is absolutely nothing useful at the Symantec/Norton site.'
p29
(dp30
S'symantec/Norton site'
p31
S'-2'
p32
ssS'If you get NIS be sure you want ALL of them installed and running on your machine.'
p33
NsS'There is little meaningful difference between the two versions aside from the tedius activation process, and the product is currently rather buggy and has problems running unless cleanly installed on a formatted drive.'
p34
(dp35
S'activation process'
p36
S'-1'
p37
sS' product'
p38
S'-2'
p39
ssS"And I can't warn you enough to STAY AWAY FROM NORTON!!"
p40
(dp41
S'Norton'
p42
S'-3'
p43
ssS'Blessedly, my DSL was installed just about this time and I set up a wireless network with my desktop.'
p44
NsS'To say that it is "buggy" would be the world\'s most profound understatement.'
p45
NsS'I was forced to re-format the next day due to extensive incapatability issues.'
p46
NsS'I had to pay $29.95 just to go any further.'
p47
NsS'In "Add/Remove, you must selecting the program\'s Change button.'
p48
NsS'For Norton to encourage Spammers by letting them sell their products is a very bad sign.'
p49
NsS'I did it and it was worse the second time around...unbelievable.'
p50
(dp51
S'support'
p52
S'-3][p'
p53
ssS"I hope it's better than this hunk of junk Internet/AV 2004 package."
p54
NsS'The problems I had installing Norton extended way beyond what Symantec should reasonably expect the public to deal with.'
p55
(dp56
S'installing'
p57
S'-2'
p58
ssS"We were able to obtain a Norton Corporate Edition of Antivirus only (no firewall or utilities) and so far it's great."
p59
(dp60
S'Corporate Edition'
p61
S'+2'
p62
ssS"I had tried to uninstall Norton Internet Security a few weeks ago, and it wouldn't let me do that either."
p63
(dp64
S'uninstall'
p65
S'-2'
p66
ssS'Since then, I have had one problem after another.'
p67
NsS"The next problem was that it didn't recognize all the installed components, so it would not update them, most notably and importantly, virus definitions."
p68
(dp69
S'components'
p70
S'-2'
p71
ssS'Wish I had.'
p72
NsS'I bought Norton Internet Security years ago when it first came out.'
p73
NsS'I guess the possibility that someone might not want it to run at all never occured to the designers.'
p74
NsS"You won't need to update your firewall and antivirus separately or install two disks."
p75
(dp76
S'update'
p77
S'+2'
p78
ssS'They use to be so useful and neceesary.'
p79
NsS'An infected computer tried to launch an attack on mine and I was able to get a map and address of the server.'
p80
NsS'Seems the "program scan" feature did NOT find the EXE file for Outlook!'
p81
(dp82
S'program scan'
p83
S'-1'
p84
ssS'Also if you do manage to get it installed, any problems with LiveUpdate or with System Works will also affect the functionality and/or the process of updating Internet Security.'
p85
(dp86
S' System Works'
p87
S'-1'
p88
sS' Internet Security'
p89
S'-1'
p90
sS'LiveUpdate'
p91
S'-1'
p92
sS'installed'
p93
S'-2'
p94
ssS'Again, every review written about the Tech Line is true...after waiting close to 45 minutes I finally spoke to a rep.'
p95
(dp96
S'Tech Line'
p97
S'-2'
p98
ssS'It was immediately noticeable that NIS slows down my computer (Pent4, 256 RAM).'
p99
(dp100
S'speed'
p101
S'-2][u'
p102
ssS'I have been a loyal Norton Anti-Virus and Internet Security software user for as long as I can remember.'
p103
NsS'I finally got a free support number for Norton through my ISP support staff, but waited an hour or more for a voice.'
p104
(dp105
S'support'
p106
S'-2'
p107
ssS'Buy ZONE Alarm.'
p108
NsS'The Antivirus is good, but "Internet Security" just isn\'t worth it.'
p109
(dp110
S' internet security'
p111
S'-1](cs'
p112
sS'antivirus'
p113
S'+2'
p114
ssS"And this despite the fact that I'm not even using AntiSpam."
p115
NsS'They sent me a link to their website to follow instructions on ridding my registry of all Symantec products so I could get a clean re-install.'
p116
NsS'There was a Verisign problem that conflicted w/Word and Excel and was posted on the Symantec site that affected computers.'
p117
NsS'Eventually I will uninstall this troublesome bug-filled program.'
p118
NsS"Here's why:"
p119
NsS'But it caused more headaches than I could imagine.'
p120
NsS'The 1 time it did install, it did not work and had errors, I used the unistall NIS icon and it properly removed itself.'
p121
(dp122
S'product'
p123
S'-3'
p124
sS'uninstall'
p125
S'+2'
p126
ssS"It's become tedious doing this."
p127
NsS'Symantec should give us all a refund and apology!'
p128
(dp129
S'Symantec'
p130
S'-2'
p131
ssS'First, it serious, serious installation problems.'
p132
(dp133
S'installation'
p134
S'-3'
p135
ssS'Nothing spectacular is done by internet security or by antivirus software.'
p136
(dp137
S' antivirus software'
p138
S'-2'
p139
sS'internet security'
p140
S'-2'
p141
ssS'So now, when we type, half the time the XP Pro 2.4 Gig PC lags behind the input, sometime by 10 characters!'
p142
NsS"When all was said and done, I couldn't even use Microsoft Outlook."
p143
NsS'Okay, how can I say this nicely?'
p144
NsS'As a loyal customer of Norton/Symantec products, I purchased Internet Security 2004 as a software firewall and could not be any more dissatisfied with the product (and hence the one star rating).'
p145
(dp146
S'product'
p147
S'-3]'
p148
ssS'It is buggy, slow and basically frustrates the heck out of the user.'
p149
(dp150
S'slow'
p151
S'-3'
p152
ssS'All of a sudden everything that reviewers were writing about NIS 2004 was happening to my computer.'
p153
NsS'I tried it again this morning and it said I didn\'t have the required "permissions" and lacked proper administrator status.'
p154
(dp155
S'Uninstall'
p156
S'-1][u'
p157
ssS'This product has virtually all the same installation problems.'
p158
(dp159
S'installation'
p160
S'-2'
p161
ssS'The biggest problem is the installation.'
p162
(dp163
S'installation'
p164
S'-3'
p165
ssS'Seems to work great.'
p166
(dp167
S'work'
p168
S'+3'
p169
ssS'We were leary to say the least, but decided to give Norton the benefit of the doubt.'
p170
NsS'To install that version you have to uninstall from the window registery anything called Symantec or Nortron,... also from the common files in the program folder the symantec folder has to be deleted.'
p171
(dp172
S' uninstall'
p173
S'-2'
p174
sS'install'
p175
S'-1'
p176
ssS'The best part of the firewall is the visual backtracking.'
p177
(dp178
S'visual backtracking'
p179
S'+3'
p180
ssS'No problems now, just a sickly disappointment in the way Norton has abandoned thier customers.'
p181
(dp182
S'Norton'
p183
S'-2'
p184
ssS'Every time I start Eudora, a message from AntiSpam pops up telling me that COM automation needs to be turned on for it to run properly.'
p185
NsS'Detractors should spend more time actually customizing the program to meet their needs instead of being lazy & complaining just for the hell of it.'
p186
NsS"While it didn't have all the features I would have liked, it was better than anything else I could find at the time."
p187
(dp188
S'NIS '
p189
S'+1'
p190
ssS'Product is OK; however, despite the fact that I followed the rebate instructions explicitly, I am being denied the rebate because the processing agency incorrectly claims I did not send in proof of ownership of a previous product.'
p191
(dp192
S'Product'
p193
S'+1'
p194
sS' instruction'
p195
S'-1'
p196
ssS'I give it 4-stars only because the installation process - or rather problems that may surface during the installation process - can be frustrating to the average computer user.'
p197
(dp198
S'installation'
p199
S'-1'
p200
ssS'The popup blocker and anti-spam are bonuses.'
p201
(dp202
S' anti-spam'
p203
S'+2'
p204
sS'popup blocker'
p205
S'+2'
p206
ssS"Multiple users on one machine never seemed to behave like you'd expect."
p207
(dp208
S'network'
p209
S'-3'
p210
ssS"But it wouldn't let me turn the AV protection back on and it wouldn't stop with the alerts."
p211
(dp212
S'alerts'
p213
S'-2'
p214
ssS"Maybe it's me, but this isn't my program."
p215
NsS"Likewise, I've heard Norton 2004 PROFESSIONAL version is fine too."
p216
(dp217
S'professional version'
p218
S'+2'
p219
ssS'I was using this on my 2001 Dell laptop (which worked fine until I upgraded to this junk!)'
p220
NsS'Yeah - this program protects your computer all right - by locking you off the internet.'
p221
(dp222
S'program'
p223
S'-3'
p224
ssS"It wasn't the computer - it was Norton Internet Security 2004 which is the culprit!!"
p225
NsS"The best thing to do with this version, is to leave it on the store shelf. It doesn't work, and will cost you an enormous amount of your time, not to mention your hard earned dollars."
p226
(dp227
S'version 2004'
p228
S'-3'
p229
ssS'5 stars all the way!'
p230
(dp231
S'product'
p232
S'+3][u'
p233
ssS'HOWEVER, I AM VERY DISAPPOINTED WITH THIS PRODUCT AND WITH SYMANTEC.'
p234
(dp235
S'symantec'
p236
S'-3'
p237
ssS'After 4 attempted installs, I have finally given up.'
p238
(dp239
S'Installation'
p240
S'-2'
p241
ssS"I've searched the program and their online tech support (worthless) and have found no solutions."
p242
(dp243
S'support'
p244
S'-3'
p245
ssS'Configuring it for a home network was almost impossible.'
p246
(dp247
S'home network'
p248
S'-2'
p249
ssS'Almost from the beginning, LiveUpdate would not function.'
p250
(dp251
S'LiveUpdate'
p252
S'-2'
p253
ssS'If you got stuck do what I did,search for any folder called symantec and delete it! then install that program(assuming you know what you are doing).'
p254
NsS'The latest of Internet Security has antispam function that is helpful because I has received a mountain of those these days.'
p255
(dp256
S'antispam function'
p257
S'2'
p258
ssS"Some of the options are confusing, especially when the popup warnings occur, but I've had no problems with intrusions."
p259
(dp260
S'options'
p261
S'-1'
p262
sS' intrusion'
p263
S'+2'
p264
ssS'These tasks are faster and easier than in prior versions, and I found the menu to be much more navigable.'
p265
(dp266
S' menu'
p267
S'+2'
p268
sS'faster'
p269
S'+1'
p270
ssS'It was a Symantec error.'
p271
(dp272
S'Symantec'
p273
S'-2'
p274
ssS'Their products have been great and have saved my bacon on numerous occasions.'
p275
(dp276
S'products'
p277
S'+3'
p278
ssS'If we had been unable to obtain the Corporate edition, we would NOT have purchased another Norton 2004 or 2005 home version anything.'
p279
(dp280
S' home version'
p281
S'-3][cs'
p282
sS'Corporate edition'
p283
S'+2'
p284
ssS'When I purchase software, I NEVER want to have to spend hours looking up solutions to my install problems -- in particular solutions that involve manually setting driver preferences or editing the registry!'
p285
(dp286
S'install'
p287
S'-3'
p288
ssS"The only reason I'd buy them separately in the combo package is for two liecenses."
p289
NsS"What dissapointes me the most that a software like that  is not cheap gets zero support form symantec, if you want support, they'll charge you a Fee!"
p290
(dp291
S'support'
p292
S'-3'
p293
ssS'I simply hate Symantec. I swear, if I could have physically ripped that software out of my computer with my bare, bleeding hands, I would have.'
p294
(dp295
S'Symantec'
p296
S'-3'
p297
ssS'At the same time I bought PC-Cillin for the laptop and what a slick product!'
p298
NsS'Without this important feature, both SystemWorks and Internet Security are all but useless.'
p299
NsS'Mine installed no problem (but I DID uninstall my Norton Anti-Virus 2002 & Personal Firewall 2002 first).'
p300
(dp301
S'install'
p302
S'+2'
p303
ssS"I can't recommend their programs enough."
p304
NsS'It has saved my system on more than one occasion, and makes disc clean up a snap.'
p305
NsS"The program is fully featured, with much of what you'd want from a security program --"
p306
(dp307
S'program'
p308
S'+2'
p309
ssS'Well, I must be one of the few fortunate ones on here.'
p310
NsS'Anti-Spam is Good'
p311
(dp312
S'Anti-Spa'
p313
S'Anti-Spa'
p314
ssS"The only problem I had was a few components didn't quite load correctly upon startup, but a reboot fixed the problem."
p315
(dp316
S'components'
p317
S'-1'
p318
ssS'I also reviewed Norton System Works 2004/Professional.'
p319
NsS'Just to try to shut it up, I told it to go ahead and turn on COM automation.'
p320
NsS'I am going to buy PC-cillium ASAP.'
p321
NsS'I used "Add/Remove Programs" to unistall NIS 2003.'
p322
NsS'By the way, I use the Norton 2003 Corporate at work with absolutely no trouble.'
p323
(dp324
S'corporate'
p325
S'+3'
p326
ssS"THEN all of a sudden when I restarted my pc, I couldn't get to anything in IE."
p327
NsS'This did manage to cut the number of popups during start-up from 4 down to 2.'
p328
(dp329
S'product'
p330
S'+2'
p331
ssS'Plus, when Norton provided online updates, there were so many unexplained categories (about 15 over and above virus definitions)'
p332
NsS'(Intructions for doing so are on Symantecs website.)'
p333
NsS'I gave up trying to figure how to get my email sent or listen to streaming programs.'
p334
NsS'Norton has been on a downhill slid recently with their products, but with this one, they have fallen off the cliff.'
p335
(dp336
S'Norton'
p337
S'-3'
p338
ssS'The antivirus feature is phenomenal, and is regularly updated.'
p339
(dp340
S'antivirus'
p341
g258
ssS'Start up, log off, log on...everything became very slow.'
p342
(dp343
S'slow'
p344
S'-2][u'
p345
ssS"I already knew something was wrong, because much of the Spam I've seen in the past six months was from resellers of Norton products."
p346
(dp347
S'spam'
p348
S'-2'
p349
ssS'I did not use the Rnis.exe, since I have WinFax Pro on my system. I did not touch the Windows Registry, for the same reason.'
p350
NsS'I am an IT professional and have used Norton for years, but this product is a complete and utter dud.'
p351
(dp352
S'product'
p353
S'-3'
p354
ssS'I read many reviews on Norton I.S. 2004 from a variety of sources (Cnet, Amazon, message boards) and came to the conclusion that NIS 04 was a terrible product and not worth the update.'
p355
(dp356
S'NIS 04'
p357
S'-3'
p358
ssS'This came PRELOADED on our new, 2.8Mz Pentium 4 256RAM computer.'
p359
NsS'Like most of their solutions (which first blame other applications for errors), the tech persons line was that this was probably a Microsoft error - it was NOT.'
p360
(dp361
S'support'
p362
S'-2][u'
p363
ssS'So far, the Anti-Spam feature seems to be very good.'
p364
(dp365
S'Anti-Spam'
p366
S'+3'
p367
ssS'There are some highs to the 2004 edition, but mostly lows.'
p368
(dp369
S'2004 edition'
p370
S'-1'
p371
ssS'Well, no more.'
p372
NsS'I use the program like most other people - in DISABLED mode.'
p373
NsS"I've seen many reviews praising 2003 and cursing 2004."
p374
NsS"I don't have one good thing to say."
p375
NsS"And, when you think about it, it's insulting that Norton requires its customers to jump through these hoops -- anyone who can provide proof of purchase, whether on the phone or online (what if your computer is down?), should have equal priority."
p376
(dp377
S'Norton'
p378
S'-3'
p379
ssS'Perhaps Semantic could work out the efficiency a little, but these reviews are highly exagerated... I would ask what else these people are running on their computers(?)'
p380
(dp381
S'Semantic'
p382
S'+1'
p383
ssS"It did find Outlook Express, but that's not what I use."
p384
NsS'This is the fourth version of SystemWorks and the second version of Internet Security that I have used and it has always been a favorite.'
p385
(dp386
S' Internet Security'
p387
S'+3'
p388
sS'SystemWorks'
p389
S'+3'
p390
ssS'It works better and has more useful features than NIS 2003.'
p391
(dp392
S'performance'
p393
S'+3][u][cs'
p394
sS' features'
p395
S'+3'
p396
ssS'I bought NIS 2004 recently to try it out.'
p397
NsS'Who wants to pay $30 to discuss a defect in a product that just cost $95? (I also bought the back-up CD).'
p398
(dp399
S'cost'
p400
S'-3'
p401
ssS'I am glad that I do not work for Norton.'
p402
(dp403
S'Norton'
p404
S'-2'
p405
ssS'The tests were right.'
p406
NsS"Then when I went to Norton's website to obtain a priority ID number per the instructions I had been given, I couldn't find a way to get one."
p407
(dp408
S'priority ID'
p409
S'-1'
p410
ssS'I have read the installation instructions for both NIS 2004 and NAV 2004 prior to installation, but still ended up with the same result...junk software.'
p411
(dp412
S'software'
p413
S'-3'
p414
ssS"Even for computer super-heros it's a pain to maintain when there is a problem."
p415
NsS'After telling the rep and his tech supervisor the problem the only answer was to uninstall the program (which I had already done)...'
p416
(dp417
S'tech'
p418
S'-2'
p419
ssS'And the firewall came with a wizard which made it effortless to configure it to my LAN.'
p420
(dp421
S'wizard'
p422
S'+2'
p423
ssS'First, it failed whenever connecting to get updates.'
p424
(dp425
S'updates'
p426
S'-2'
p427
ssS"Sorry to hear about all the other folk's problems....makes me wonder why I'm NOT having any (I'm running Win XP as well)."
p428
NsS"This is pretty standard for an up to date computer anymore, so what's the fuss?"
p429
NsS'The other annoyance with this that you have to remove every single remnant of previous version of Norton SystemWorks before you installs this.'
p430
(dp431
S'installs'
p432
S'-2'
p433
ssS'Trust me and all the other reviews on this one.'
p434
NsS'I think it is a combination of the program size taking up resources and the open/close scanning that it does with every program.'
p435
(dp436
S' scanning'
p437
S'-1'
p438
sS'size'
p439
S'-2'
p440
ssS'I recommended this for my father based on my experience with previous versions.'
p441
(dp442
S''
p443
S's'
p444
ssS'Being a past Norton customer, I consider this to be a slap to my face.'
p445
(dp446
S'Norton'
p447
S'-3'
p448
ssS'I also believe that when I renewed my subscription service that Symantec uploaded the NIS 2004 patch.'
p449
NsS'I was totally baffled.'
p450
NsS'This is a very full featured product.'
p451
NsS'Unfortunately, it does not give you the option of unstalling (or uninstalling) them individually.'
p452
(dp453
S'unstalling'
p454
S'-1'
p455
ssS"It usually only takes 5-10 MB's of system memory."
p456
NsS"For security buy Zone Alarm. It's a very friendly program."
p457
NsS"So, we're fed up."
p458
NsS'After finally restarting, the "automatic updates" ran.'
p459
NsS"But this doesn't make up for it's innumerable other short-comings, the biggest of which is the inability to download any updates due to problems with LiveUpdate."
p460
(dp461
S'LiveUpdate'
p462
S'-2'
p463
ssS"While I understand the complaints about Symantec's Norton SystemWorks software suite (which are totally justified), the same can't be said for Norton Internet Security."
p464
NsS"As of October, 2004, these products are NOT working and I'm ready to demand a refund from Symantec."
p465
(dp466
S'products'
p467
S'-3'
p468
ssS'No more banner ads, pop-ups, and the reliable antivirus.'
p469
(dp470
S'antivirus'
p471
S'+3'
p472
ssS'Buying software that can not be installed normally and being put into the position of having a non-working computer.'
p473
(dp474
S'installed'
p475
S'-2'
p476
ssS'Stay away from this product!'
p477
(dp478
S'product'
p479
S'-3'
p480
ssS'Sometimes a suite is not a good deal and all you get is a bundle of headaches.'
p481
(dp482
S'suite'
p483
S'-2'
p484
ssS'Although I disabled Norton AntiSpam, it is still there.'
p485
(dp486
S'Norton AntiSpam'
p487
S'-2'
p488
ssS"We've only had it 2 days, but so far so good.  (WRONG - SEE UPDATE BELOW)"
p489
NsS'They gave me a ridiculous set of steps which included emailing them screen prints as PDF files!'
p490
NsS'But that is good for me because Symantec softwares are a bit hard to master for me who are not savvy on computers.'
p491
(dp492
S'Symantec softwares '
p493
S'+2]'
p494
ssS'A security software suite with lots of value'
p495
NsS'HMMMM.. Good luck.'
p496
NsS'After that was complete, I deleted the Norton Antivirus and Norton Internet Security folders left in the "Programs" section of Windows XP.'
p497
NsS'But those 2 come up every time.'
p498
(dp499
S'popups'
p500
S'-2][u'
p501
ssS'And you have to put up the 30 bucks to get them to decide.'
p502
NsS'It locked during install and I had to reformat the drive and start from scratch (GRRRRRR!)'
p503
(dp504
S'install'
p505
S'-1'
p506
ssS'I installed, activated and registered NIS 2004 without issue.'
p507
(dp508
S'install'
p509
S'+2'
p510
ssS'It checks every 5 minutes for virus and spam definition updates.'
p511
NsS"We'd used Norton products like Internet Security 2003 forever with only rare troubles."
p512
NsS'I have always sworn by Norton Anti-Virus and SystemWorks products, and have used them both for years.'
p513
NsS'Even though I have the parental controls off it constantly starts updating them then freezes my computer.'
p514
(dp515
S'parental controls'
p516
S'-2'
p517
ssS'My file log was not responding and the program was not blocking any cookies or unauthorized sites.'
p518
(dp519
S'blocking'
p520
S'-3'
p521
ssS'After a recent update, I can no longer open more then 1 browser window.'
p522
(dp523
S'update'
p524
S'-3'
p525
ssS"I'll update my review if I find out otherwise."
p526
NsS'Anyhow, this software is working fine and no problems since I installed it two weeks ago.'
p527
(dp528
S'working'
p529
S'+2'
p530
ssS'Long reboots due to Norton taking FOREVER  to boot.'
p531
(dp532
S'Norton'
p533
S'-3'
p534
ssS'After extensive researching on the Symantec site I broke down and called Symantec.'
p535
NsS'I was upgrading from a version of Norton Anti-virus that was about a year old in order to get spam and pop-up control.'
p536
NsS"I've been using Norton Anti-Virus in its many incarnations for over 5 years."
p537
NsS'While I was trying to play Half Life 2 it started popping up with "alerts" every twenty seconds (literally), warning me my antivirus protection was off.'
p538
(dp539
S'alerts'
p540
S'-2'
p541
ssS'I really liked the firewall.'
p542
NsS"Maybe it's time to explore McAfee products again..."
p543
NsS'I tried disabling the various components provided with this product, paring it all the way back to anti-virus only service... and saw no improvement.'
p544
(dp545
S'performance'
p546
S'-2][u'
p547
ssS"They said to call back if it still didn't work after the complete uninstall."
p548
NsS"Nice little racket they've got there."
p549
NsS'PIII 1Ghz 512MB RDRAM Windows XP Pro 80GB HD  I was able to Uninstall NIS 2003 and Install NIS 2004 with no trouble.'
p550
(dp551
S' Install'
p552
S'+3'
p553
sS'Uninstall'
p554
S'+3'
p555
ssS'Avoid at all costs'
p556
NsS'It can not be the computer or the owner, since I purchased McAfee Anti-Virus 8 and it installs and works fine with no problems.'
p557
(dp558
S'McAfee Anti-Virus 8'
p559
S'+2]'
p560
ssS'Norton online support does not even acknowledge this problem nor does the computer company that preloaded it on our new computer.'
p561
(dp562
S'support'
p563
S'-2'
p564
ssS"After 10 years, I now downloaded McCaffee's product after calling their support....they answered quickly, and for free, and were very helpful."
p565
(dp566
S'support'
p567
S'-3][cc'
p568
ssS'Had to uninstall it.'
p569
NsS'The only way my pc internet works is if I open the Firewall Program configuration and manually refresh it.'
p570
(dp571
S'Firewall'
p572
S'-1'
p573
ssS"Wish I hadn't renewed my subscription."
p574
NsS"Norton's memory usage on systems with 512 MB is very low."
p575
(dp576
S'memory usage'
p577
S'+2'
p578
ssS'I decided to give it one last chance... so I formatted my hard drive, reinstalled Windows XP (which also required a day & night download/install of SP2 on dial-up) and put NIS2004 back onto the computer.'
p579
NsS"I've alway liked Symantec products, except for this version 2004."
p580
(dp581
S'version 2004'
p582
S'-2'
p583
ssS'However, I suspect that many people are having a bad experience -- DO NOT PURCHASE THIS PRODUCT.'
p584
(dp585
S'PRODUCT'
p586
S'-3'
p587
ssS'Meanwhile, the damn alert is still popping up every 20 seconds.'
p588
NsS'I did not have any of the installation problems that people highlighted here.'
p589
(dp590
S'installation'
p591
S'+2'
p592
ssS'Next year when I purchase a 2005 FireWall version, I am buying the Zone Alarm or the sygate one.'
p593
NsS'I had a question about the pros and cons of turning off the Norton firewall vs. the windows firewall, and waited 45 minutes to speak with a tech support representative because I did not have a "customer priority ID number."'
p594
(dp595
S'support'
p596
S'-2'
p597
ssS'I downloaded this set from Norton, and within minutes my Internet connection failed and my PC was almost dead due to registry problems from the download.'
p598
(dp599
S'download'
p600
S'-3'
p601
ssS'I have used Norton for the past 5 years and for the last 2 years, the software has gotten more and more disgraceful.'
p602
(dp603
S'Norton'
p604
S'-2'
p605
ssS'The customer support is pathetic.'
p606
(dp607
S'support'
p608
S'-3'
p609
ssS'So I expected the same level of quality and ease of use with their Internet Security program.'
p610
NsS'I read how the buyers of this product watched their computers turn into processing sloths, bought a copy and watched my 2.4 Gig XP Pro processor slow down below the level of my 750 Meg 2000Pro laptop!'
p611
NsS"I've been using NIS 2004 for about 2 months and it works well."
p612
(dp613
S'NIS 2004'
p614
S'+2'
p615
ssS'Norton support is completely pathetic.'
p616
(dp617
S'support'
p618
S'-3]'
p619
ssS'If you have an older version of "Internet Security" installed, you may also need to remove it as well before proceeding with SystemWorks install.'
p620
(dp621
S'install'
p622
S'-3'
p623
ssS"I've had to install and uninstall them four or five times so far, and I've not to get either product working properly."
p624
(dp625
S'product'
p626
S'-3'
p627
ssS'Even though I had 6+ months left on the McAfee subscription, I decided to move on and buy Norton Internet Security 2004 (NIS).'
p628
NsS"I've tried the free versions of zone alarm and the free version of sygate and they both have a nice and easy installation and work great!."
p629
(dp630
S'sygate'
p631
S'+2][cc'
p632
sS'zone alarm'
p633
S'+2'
p634
ssS"We'd have probably tried McAffee, but I hear from reviews that it has troubles too."
p635
NsS'I am giving a zero star to symantec for this version!'
p636
(dp637
S'symantec'
p638
S'-3'
p639
ssS'We were so fed up that we uninstalled ALL of Norton Internet/AV 2004 and were going to try McAffee, but a techie friend recommended trying Norton SystemWorks 2005 first.'
p640
NsS"I see many other reviews that say the same....stay away from Norton, they don't deserve you, or anyone!"
p641
(dp642
S'Norton'
p643
S'-3'
p644
ssS'This package contains BOTH Norton Antivirus and Firewall.'
p645
NsS'Their website had a download that helped remove those, although I had to manually remove a good number of files from the "Programs" directory.'
p646
(dp647
S'remove'
p648
S'+1'
p649
ssS'I had the best intentions when I bought this, I really did.'
p650
NsS'This is also the case with NIS 2004.'
p651
(dp652
S'NIS 2004'
p653
S'+2]'
p654
ssS'For purposes of clarity, here is my review from that product,edited to be appropriate for this product, since, for the most part, they share many of the same problems.'
p655
(dp656
S'product'
p657
S'-1'
p658
ssS'About a month ago, it had an error that I could not fix and the program would not update.'
p659
NsS'I have used Norton products in the past and I am familiar with them.'
p660
NsS'I have had Norton Internet Security for 3 yrs and up graded to 2004 versionin August 2004.'
p661
NsS'In January of 2004, I renewed my subscription service for NIS 2003 but on Jan 7, everything changed.'
p662
NsS'I have a modern PC with lots of speed and memory, but this firewall just brought it to a halt.'
p663
(dp664
S'firewall'
p665
S'-3'
p666
ssS"Unfortunately, you can't buy the corporate edition over the counter."
p667
NsS'The only free help you get is in renewing your subscription!'
p668
(dp669
S'help'
p670
S'+1'
p671
ssS'It seems like Symantec did a lousy job on this version.'
p672
NsS"Sure, it slows it down a little, but that's expected."
p673
(dp674
S'speed'
p675
S'+1'
p676
ssS"If you currently own the 2003 version, and are looking to upgrade to the 2004 version, don't."
p677
(dp678
S'2004 version'
p679
S'-2'
p680
ssS'NIS is a package of several Norton products.'
p681
NsS'When I finally got it working, it only worked properly for many a month.'
p682
(dp683
S'LiveUpdate'
p684
S'-2'
p685
ssS"But I don't think SystemWorks 2005 will start acting up."
p686
NsS'From day one, we\'ve had hangups, crashes, glitches, continual reboots, LONG shutdowns due to "ccApp.exe" program running which is a Norton program.'
p687
(dp688
S'Norton program'
p689
S'-3'
p690
ssS'I would ask what else these people are running on their computers(?)'
p691
NsS"So far I haven't had so much complaints except that I still haven't mastered how to scandisk when using Internet Security."
p692
(dp693
S'scandisk'
p694
S'-1'
p695
ssS"So, DON'T buy this or upgrade."
p696
(dp697
S'product'
p698
S'-2'
p699
sS' upgrade'
p700
S'-2'
p701
ssS'Their site offers no live help at all.'
p702
(dp703
S'help'
p704
S'-3'
p705
ssS"So I e-mailed the online tech support with that simple question, and got a reply which was totally unresponsive (it looked as though they didn't actually read the e-mail and just sent back a few boilerplate paragraphs)."
p706
(dp707
S'support'
p708
S'-1'
p709
ssS'This product is way cooler than anything Ive used before (PcCillins and McCafees and Norton Antivirus alone).'
p710
(dp711
S'product'
p712
S'+3][cc'
p713
ssS'NIS 2003 worked like a charm last year.'
p714
(dp715
S'NIS 2003'
p716
S'+2'
p717
ssS'Other than that it is all the same except the new updates.'
p718
(dp719
S'updates'
p720
S'-2'
p721
ssS'If you have no previous version of  nortron security on your system, or Nortron Antivirus, the installation will go fine, otherwise dig in and in to do a major registery clean up!the old programs will leave a trace that will mess up the new installation, even if you uninstalled the old programs perfectly.'
p722
(dp723
S'installation'
p724
S'-2'
p725
ssS'I have XP with 256MB RAM, 40GB memory.'
p726
NsS'I am thankful that I have Roxio GOBACK, I had to use it 3 of the 4 times.'
p727
NsS"Our Norton Internet/AV 2004 was terrible right from the get go, so I'd think that if SytemWorks is ok now, it should remain ok."
p728
(dp729
S'Norton Internet/AV 2004'
p730
S'-3'
p731
ssS'Antagonising'
p732
NsS'Finally I ran msconfig and went into the "services" tab and unchecked every last Norton/Symantec "service," then ran uninstall again.'
p733
NsS"Now in October,2004, the firewall said I couldn't OK anymore software to use the internet because its full."
p734
(dp735
S'firewall'
p736
S'-3'
p737
ssS'After installing, the system froze trying to restart (this is a new computer with Windows XP Home).'
p738
NsS"They didn't know what the problem could be."
p739
(dp740
S'tech'
p741
S'-3][p'
p742
ssS'Basically, I ate the cost of the renewal and ate the cost of the Tech Help.'
p743
(dp744
S'Tech'
p745
S'-3'
p746
ssS'It included popup and ad blockers, referrer blockers, firewall,  intrusion detection, and all the same things that the 2004 version includes that are really needed.'
p747
NsS"I wish I'd done some research first...."
p748
NsS'72 hours later after installing, it started doing the exact same things!'
p749
NsS'Why is it that I can install any other type of software and it installs and works properly?'
p750
NsS'Even this, however, did not solve my problems.'
p751
NsS'Before installing anything on your computer, you need to do a bit of research before spending the money.'
p752
(dp753
g443
g444
ssS'I have gone to their site many times in the last two months looking for an answer.'
p754
NsS"And that's a shame."
p755
NsS"They are a royal pain to install, and don't function properly once finally installed -- if you can install them at all."
p756
(dp757
S' function'
p758
S'-2'
p759
sS'install'
p760
S'-3'
p761
ssS'I originally bought McAfee VirusScan 7 from Amazon.'
p762
NsS'Norton pops up a window about the intrusions and gives me as much detail as possible about where the intrusion is coming from.'
p763
(dp764
S'intrusion'
p765
S'+3'
p766
ssS'DO NOT BUY ANY HOME VERSION OF NORTON ANYTHING.'
p767
(dp768
S'HOME VERSION'
p769
S'-3'
p770
ssS'This time, it started the uninstallation process, then I left for work. I think it will work. I hope it will work.'
p771
(dp772
S'uninstallation'
p773
S'-1'
p774
ssS'Warning! The Windows "remove program" feature does not do a good job of this, and neither does Norton\'s own removal program.'
p775
(dp776
S'removal program'
p777
S'-2'
p778
ssS'I originally had bought Norton Internet Security for my laptop after the preinstalled Norton Antivirus trial had finished.'
p779
NsS"Can't get easier than that!"
p780
(dp781
S'installation'
p782
S'-1][u'
p783
ssS'I was begining to think I was computer-retarded after dealing with this program.'
p784
NsS'I may not be a computer expert but I am perfectly capable of following detailed instructions, and Norton just makes life way too hard.'
p785
NsS'Just the home version of Norton Internet/AV has too many glitches and problems to even remotely bother with.'
p786
(dp787
S'home version'
p788
S'-2'
p789
ssS'But if I installed either one of these Norton products, neither works after installation?'
p790
(dp791
S'Norton products'
p792
S'-3'
p793
ssS'Again, I tried online email support.'
p794
NsS'The installation, set-up, and operating interfaces are well organized and intuitive and the email spam component works well.'
p795
(dp796
S' email spam'
p797
S'+1'
p798
sS' set-up'
p799
S'+1'
p800
sS' operation interfaces'
p801
S'+1'
p802
sS'installation'
p803
S'+1'
p804
ssS"It feels like I'm back to the days of 56k dial-up internet service, even though I'm running a Dell 2GHz Pentium 4 with 256MB memory and have had excellent broadband service for the past year."
p805
(dp806
S'performance'
p807
S'-2][u'
p808
ssS'I just got an older 866 Mhz system with 512 PC 133 RAM and it also runs fine on that.'
p809
(dp810
S'memory usage'
p811
S'+2'
p812
ssS"If SystemWorks 2005 starts to act up, I'm done with Norton products forever."
p813
NsS"It's a highly rated, KICK ASS firewall program that's bundled with the venerable Norton AntiVirus, plus extras (like Norton AntiSpam & Norton Parental Control) that make this security suite a must-have for people who have broadband internet access."
p814
(dp815
S'firewall'
p816
S'+3'
p817
sS' Parental Control'
p818
S'+2'
p819
sS' antispam'
p820
S'+2'
p821
sS' antivirus'
p822
S'+3'
p823
ssS'I did remove all remnants of McAfee before installing and confirmed the Windows XP firewall was off.'
p824
NsS'If you are already using a previous version of nortron security and unistalled it to install the new version, you will still have all kind of problems in installing the new version on your system!'
p825
(dp826
S'installing'
p827
S'-2'
p828
ssS"I agree with the other reviewer that it doesn't even deserve 1 star."
p829
NsS'No longer.'
p830
NsS'So when I reformatted for the third time, downloading SP2 took no time at all and the new XP was kind enough to even suggest other antivirus programs to try (it also listed Norton and McAffee).'
p831
NsS'During install, NIS would either freeze or not reboot properly when asked to do so.'
p832
(dp833
S'NIS'
p834
S'-2'
p835
ssS"Once again it won't reinstall, even with online and email assistance from Symantect Technicians."
p836
(dp837
S'reinstall'
p838
S'-3'
p839
ssS'Also, with one click you can help train your spam killer.'
p840
(dp841
S'Spam killer'
p842
S'+2'
p843
ssS'The SystemWorks 2005 seems to be working GREAT!!'
p844
NsS'Buy this if you like mental challenges or trying how to pick locks.'
p845
(dp846
S'product'
p847
S'-3][u'
p848
ssS'They said they would refund all the money, but a month later, they tell me now the back-up disc is not refundable as its cost is purely handling and shipping - $15 to "handle" and ship a CD? --and they have been indignant and combative on the phone and in emails.'
p849
(dp850
S'refund'
p851
S'-3'
p852
ssS"Sure they say if it's their fault you won't get charged, but THEY are the ones who get to decide whether it's their fault."
p853
(dp854
S'charge'
p855
S'-2'
p856
sS' Norton'
p857
S'-2][p'
p858
ssS'The program brings more problems than a virus, albeit not as major problems, just not what you expect for 70 bucks.'
p859
(dp860
S' cost'
p861
S'-1'
p862
sS'program'
p863
S'-2'
p864
ssS'Of course, if you try to reach Symantec customer service you get useless automated systems unless you want to pay $30 per incident.'
p865
(dp866
S'Symantec customer service'
p867
S'-3'
p868
ssS'Avoid like the plague.'
p869
NsS'Next I de-fragged my hard drive.'
p870
NsS"I've owned many Norton products in my time, and for the most part, I've been pleased with their performance."
p871
(dp872
S'performance'
p873
S'+2'
p874
ssS'I purchased this even though I saw some disparaging reviews at the Amazon site, trusting PC Magazine to get it right.'
p875
NsS"If you experience problems with installation, you can visit symantec's website, click the support tab, click the 'home or home office support' and there is an automated support assistant that can scan the Norton program files on your computer and it will tell you what is not working right and how to fix it."
p876
(dp877
S'installation'
p878
S'-1]'
p879
ssS'This version of Internet Security 2004, is beyond hope.'
p880
(dp881
S'Internet Security 2004'
p882
S'-3'
p883
ssS"I had much of the same problems that everyone else has listed (mainly the SLOOOOOOOOOW processor), and then I couldn't get the damn thing off my computer completely!"
p884
(dp885
S'processor'
p886
S'-3'
p887
ssS'The MS scandisk would appear due to manual shutdown and would only scan to the 2nd bar, over and over(up to 1 hr, I then shut it down and used GOBACK).'
p888
(dp889
S'Manual shutdown'
p890
S'-2'
p891
ssS'You can "disable" some of the individual components, but don\'t be fooled--they\'re still there and running.'
p892
(dp893
S'components'
p894
S'-1'
p895
ssS'I upgraded from NIS 2003, and the change in performance has not been noticeable.'
p896
(dp897
S'upgrade'
p898
S'+2] performance[+1'
p899
ssS'It can be a pain to configure, but I dealt with it.'
p900
NsS'This product is absolutely not ready for release.'
p901
(dp902
S'product'
p903
S'-3'
p904
ssS"Next, the big reason not to buy ANY Norton product:  If there's a problem with it, Norton charges $30 to even tell them about it."
p905
(dp906
S'Norton'
p907
S'-2'
p908
sS' charge'
p909
S'-2'
p910
ssS'However, Symantec has taken a significant turn for the worse with this release.'
p911
(dp912
S'Symantec'
p913
S'-2'
p914
ssS'The hardest part was the run around with what software suite to buy.'
p915
NsS"I'm not sure how it would have been compromised by a virus."
p916
NsS"I'm currently using a Sony Vaio S-150 (which I bought at the end of this past August), and it takes about five minutes just to boot the system - in fact, I've taken to just hibernating, rather than shutting down completely."
p917
(dp918
S'boot'
p919
S'-2'
p920
ssS"Norton has a name in the market but I think it's only the name."
p921
NsS'If you are new to the market and looking to buy a symantec software product, save yourself some money and buy the 2003 version.'
p922
(dp923
S'product'
p924
S'-2'
p925
ssS'On my own home computer.'
p926
NsS'I lost all my personal info.'
p927
NsS"I ain't no computer geek, but I can wrestle with the best of them."
p928
NsS'This is a terrible company with a bad product and awful support.'
p929
(dp930
S'product'
p931
S'-2'
p932
sS' support'
p933
S'-3'
p934
ssS'I followed the instructions to the letter.'
p935
NsS"I didn't have any major problems installing this software."
p936
(dp937
S'nstalling'
p938
S'+1'
p939
ssS'I had Norton Internet Security 2003 and it worked great...one of the features that I liked was the user interface as well as the ad/pop-up blocking feature along w/the logs on internet usage.'
p940
NsS'Then, my ad/pop-up blocking was completely gone.'
p941
(dp942
S'blocking'
p943
S'-3'
p944
ssS"All in all it hasn't been a bad product."
p945
(dp946
S'Product '
p947
S'+1'
p948
ssS'I work on word, explorer, netscape, acrobat reader, photoshop at same time (meaning using a lot of memory), but still dont see a problem with computer (getting slow or crashing).'
p949
(dp950
S'antivirus'
p951
S'+3'
p952
ssS'So, if you have a fairly fast computer (1 gig or better) with plenty of ram (512) and your not gaming online or running streaming video continually, you should be fine.'
p953
NsS'Both the antivirus and firewall are integrated into one piece of software and they update together.'
p954
(dp955
S'update'
p956
S'+1'
p957
ssS'This program would not let me send Outlook Email or listen to Audible sample books online.'
p958
(dp959
S'program'
p960
S'-2'
p961
ssS'Is it necessary to scan my MS Money database when I close the program?'
p962
(dp963
S'scan'
p964
S'-1'
p965
ssS'The former hogs memory and it takes ages for the computer to start.'
p966
NsS'Without updated virus definiations, your PC is also at serious risk!'
p967
NsS'I am an advanced computer user, so I cannot even imagine how a new or novice user would ever get this terrible program to work!'
p968
(dp969
S'work'
p970
S'-3'
p971
ssS"The Symantec site said it didn't affect NIS but I believe it did."
p972
NsS"I'm not sure why all the bad reviews, my computer isn't especially slowed down and I have Win'98."
p973
(dp974
S'speed'
p975
S'+1'
p976
ssS'My computer configuration is probably all screwed up at this point.'
p977
NsS"It's a rip off if one buys Norton Internet Security and antivirus."
p978
(dp979
S'Internet Security'
p980
S'-2'
p981
sS' antivirus'
p982
S'-2'
p983
ssS'WRONG - SEE MY UPDATE ABOVE.'
p984
NsS'Booting up my computer took forever!!!'
p985
(dp986
S'booting'
p987
S'-3'
p988
ssS"I've tried lots of things they suggest."
p989
NsS'Back in May 2004, when I first reviewed this, it had taken me over 16 hours to install and run.'
p990
(dp991
S'install'
p992
S'-3'
p993
ssS"I had NIS 2003 and was very happy with it; this new version really doesn't seem to offer a lot of exciting new features, seems merely the same as 2003 dressed-up to look like a new version."
p994
NsS'BEWARE!!!!'
p995
NsS'Then I disabled both Norton Antivirus and Norton Internet Security.'
p996
NsS'This is definitely one of those products, especially as the company is leaning more towards making a profit.'
p997
(dp998
S'products'
p999
S'-1'
p1000
ssS'I tried to call Norton, and the only numbers they list on their sites are either for Non-tech Customer Service (tried this one and hung up after 75 minute of MUZAC) or they have a $30 tech-support number.'
p1001
(dp1002
S' support'
p1003
S'-3'
p1004
sS'service'
p1005
S'-3'
p1006
ssS"It's a well-known company that I expected more from and spent 2 hours with tech support running all kinds of tests on the computer which of course came back reporting no trouble with the computer."
p1007
NsS'I gave up.'
p1008
NsS"I've had the last 3 versions of NIS."
p1009
NsS'Personally, I may never buy Symantect products again.'
p1010
(dp1011
S'Symantect products'
p1012
S'-3'
p1013
ssS'I will NEVER buy their product again at this rate, and neither should you.'
p1014
(dp1015
S'product'
p1016
S'-3'
p1017
ssS'Avoid this product at all costs.'
p1018
(dp1019
S'product'
p1020
S'-3'
p1021
ssS'I just about lost it this morning with this software.'
p1022
NsS'We constantly got "Windows Virtual Memory Low" error messages popping up follwed by ridiculous slowdowns and/or crashes.'
p1023
(dp1024
S'memory usage'
p1025
S'-3'
p1026
ssS'I just uninstalled SystemWorks and Internet Security for at least the fifth time due to funtionality issues.'
p1027
(dp1028
S'functionality'
p1029
S'-3'
p1030
ssS'Too bad the product is cumbersome and intertwined trying to do so much at one time.'
p1031
(dp1032
S'product'
p1033
S'-2'
p1034
ssS"Once you set it up, you barely even notice it's even there."
p1035
NsS"If you want integrated Antivirus and Firewall this is what I'd suggest."
p1036
NsS'Luckly,with 3 rebates this product will cost me nothing! it is indeed worth nothing.'
p1037
(dp1038
S'product'
p1039
S'+1'
p1040
ssS'I think their antivirus software was one of, if not the best, on the'
p1041
(dp1042
S'antivirus'
p1043
g258
ssS"Apparently, they can't even fix the bugs that have overrun their own site."
p1044
NsS'Something happened with this release for Norton System Works (2004) and for "Internet Security 2004".'
p1045
NsS'You also need to go in and MANUALLY remove many Symantec files from the REGISTRY.'
p1046
(dp1047
S'remove'
p1048
S'-2'
p1049
ssS'I am going to uninstall this and stick with my old version until they offer a fix or until I can find a program from another vendor.'
p1050
NsS"Im at full capacity!!!! I called Symantic and they said they don't know why but I should get Tech's Support at $35/hr to help!! I did call them and was on hold for 55 minutes untill I hung up!"
p1051
(dp1052
S'capacity'
p1053
S'-3'
p1054
sS' Support'
p1055
S'-3'
p1056
ssS'A lot of "fragments" were left in the Registry, and it the Norton system folders.'
p1057
(dp1058
S'fragments'
p1059
S'-2]'
p1060
ssS'I downloaded a trial version of Computer Associates EZ Firewall and Antivirus and fell in love with a computer security system all over again.'
p1061
(dp1062
S'Computer Associates EZ'
p1063
S'+1'
p1064
ssS" I've used the Corporate edition at work without any problems ever."
p1065
(dp1066
S'Corporate edition'
p1067
S'+3'
p1068
ssS'The product has worked perfectly for me on my XP.'
p1069
(dp1070
S'product'
p1071
S'+3'
p1072
ssS"I don't know what's happened to Norton, but 2004 is absolute garbage."
p1073
(dp1074
S'2004'
p1075
S'-3'
p1076
ssS'Once installed, however, some of the functions do work OK (Disk Doctor, One Button Checkup, and WinDoctor).'
p1077
(dp1078
S'functions'
p1079
S'+1]'
p1080
ss.